
build/IHC_float.elf:     file format elf32-littlearm
build/IHC_float.elf
architecture: armv5te, flags 0x00000112:
EXEC_P, HAS_SYMS, D_PAGED
start address 0x00000000

Program Header:
    LOAD off    0x00010000 vaddr 0x00000000 paddr 0x00000000 align 2**16
         filesz 0x00004c01 memsz 0x00004c01 flags r-x
    LOAD off    0x00020000 vaddr 0x00400000 paddr 0x00400000 align 2**16
         filesz 0x00000108 memsz 0x00000aac flags rw-
private flags = 5000200: [Version5 EABI] [soft-float ABI]

Sections:
Idx Name          Size      VMA       LMA       File off  Algn
  0 RO_DATA       00004c01  00000000  00000000  00010000  2**3
                  CONTENTS, ALLOC, LOAD, READONLY, CODE
  1 RW_DATA       00000108  00400000  00400000  00020000  2**2
                  CONTENTS, ALLOC, LOAD, DATA
  2 ZI_DATA       000009a4  00400108  00400108  00020108  2**2
                  ALLOC
  3 .debug_info   0001583e  00000000  00000000  00020108  2**0
                  CONTENTS, READONLY, DEBUGGING
  4 .debug_abbrev 00002e70  00000000  00000000  00035946  2**0
                  CONTENTS, READONLY, DEBUGGING
  5 .debug_loc    0000620f  00000000  00000000  000387b6  2**0
                  CONTENTS, READONLY, DEBUGGING
  6 .debug_aranges 000006f0  00000000  00000000  0003e9c5  2**0
                  CONTENTS, READONLY, DEBUGGING
  7 .debug_ranges 00000b30  00000000  00000000  0003f0b5  2**0
                  CONTENTS, READONLY, DEBUGGING
  8 .debug_line   00002622  00000000  00000000  0003fbe5  2**0
                  CONTENTS, READONLY, DEBUGGING
  9 .debug_str    00002bac  00000000  00000000  00042207  2**0
                  CONTENTS, READONLY, DEBUGGING
 10 .comment      000000dc  00000000  00000000  00044db3  2**0
                  CONTENTS, READONLY
 11 .ARM.attributes 00000029  00000000  00000000  00044e8f  2**0
                  CONTENTS, READONLY
 12 .debug_frame  00001a2c  00000000  00000000  00044eb8  2**2
                  CONTENTS, READONLY, DEBUGGING
SYMBOL TABLE:
00000000 l    d  RO_DATA	00000000 RO_DATA
00400000 l    d  RW_DATA	00000000 RW_DATA
00400108 l    d  ZI_DATA	00000000 ZI_DATA
00000000 l    d  .debug_info	00000000 .debug_info
00000000 l    d  .debug_abbrev	00000000 .debug_abbrev
00000000 l    d  .debug_loc	00000000 .debug_loc
00000000 l    d  .debug_aranges	00000000 .debug_aranges
00000000 l    d  .debug_ranges	00000000 .debug_ranges
00000000 l    d  .debug_line	00000000 .debug_line
00000000 l    d  .debug_str	00000000 .debug_str
00000000 l    d  .comment	00000000 .comment
00000000 l    d  .ARM.attributes	00000000 .ARM.attributes
00000000 l    d  .debug_frame	00000000 .debug_frame
00000000 l    df *ABS*	00000000 sark.o
00000001 l       *ABS*	00000000 GNU
00000000 l       *ABS*	00000000 NULL
80000000 l       *ABS*	00000000 BIT_31
00000001 l       *ABS*	00000000 BUF_WRITE
00000012 l       *ABS*	00000000 NUM_CPUS
00000006 l       *ABS*	00000000 NUM_LINKS
00000000 l       *ABS*	00000000 ITCM_BASE
00008000 l       *ABS*	00000000 ITCM_SIZE
00008000 l       *ABS*	00000000 ITCM_TOP
00400000 l       *ABS*	00000000 DTCM_BASE
00010000 l       *ABS*	00000000 DTCM_SIZE
00410000 l       *ABS*	00000000 DTCM_TOP
70000000 l       *ABS*	00000000 SDRAM_BASE_UNBUF
60000000 l       *ABS*	00000000 SDRAM_BASE_BUF
60000000 l       *ABS*	00000000 SDRAM_BASE
08000000 l       *ABS*	00000000 SDRAM_SIZE
68000000 l       *ABS*	00000000 SDRAM_TOP
f5000000 l       *ABS*	00000000 SYSRAM_BASE_UNBUF
e5000000 l       *ABS*	00000000 SYSRAM_BASE_BUF
e5000000 l       *ABS*	00000000 SYSRAM_BASE
00008000 l       *ABS*	00000000 SYSRAM_SIZE
e5008000 l       *ABS*	00000000 SYSRAM_TOP
f6000000 l       *ABS*	00000000 ROM_BASE
00008000 l       *ABS*	00000000 ROM_SIZE
f6008000 l       *ABS*	00000000 ROM_TOP
10000000 l       *ABS*	00000000 CC_BASE_UNBUF
20000000 l       *ABS*	00000000 CC_BASE_BUF
20000000 l       *ABS*	00000000 CC_BASE
00000000 l       *ABS*	00000000 CC_TCR
00000004 l       *ABS*	00000000 CC_TXDATA
00000008 l       *ABS*	00000000 CC_TXKEY
0000000c l       *ABS*	00000000 CC_RSR
00000010 l       *ABS*	00000000 CC_RXDATA
00000014 l       *ABS*	00000000 CC_RXKEY
00000018 l       *ABS*	00000000 CC_SAR
0000001c l       *ABS*	00000000 CC_TEST
11000000 l       *ABS*	00000000 TIMER_BASE_UNBUF
21000000 l       *ABS*	00000000 TIMER_BASE_BUF
21000000 l       *ABS*	00000000 TIMER_BASE
00000020 l       *ABS*	00000000 TIMER_OFFSET
21000000 l       *ABS*	00000000 TIMER1_BASE
21000020 l       *ABS*	00000000 TIMER2_BASE
00000000 l       *ABS*	00000000 TC_LOAD
00000004 l       *ABS*	00000000 TC_COUNT
00000008 l       *ABS*	00000000 TC_CONTROL
0000000c l       *ABS*	00000000 TC_INT_CLR
00000010 l       *ABS*	00000000 TC_RAW_INT
00000014 l       *ABS*	00000000 TC_MASK_INT
00000018 l       *ABS*	00000000 TC_BG_LOAD
00000000 l       *ABS*	00000000 T1_LOAD
00000004 l       *ABS*	00000000 T1_COUNT
00000008 l       *ABS*	00000000 T1_CONTROL
0000000c l       *ABS*	00000000 T1_INT_CLR
00000010 l       *ABS*	00000000 T1_RAW_INT
00000014 l       *ABS*	00000000 T1_MASK_INT
00000018 l       *ABS*	00000000 T1_BG_LOAD
00000020 l       *ABS*	00000000 T2_LOAD
00000024 l       *ABS*	00000000 T2_COUNT
00000028 l       *ABS*	00000000 T2_CONTROL
0000002c l       *ABS*	00000000 T2_INT_CLR
00000030 l       *ABS*	00000000 T2_RAW_INT
00000034 l       *ABS*	00000000 T2_MASK_INT
00000038 l       *ABS*	00000000 T2_BG_LOAD
1f000000 l       *ABS*	00000000 VIC_BASE_UNBUF
2f000000 l       *ABS*	00000000 VIC_BASE_BUF
2f000000 l       *ABS*	00000000 VIC_BASE
00000000 l       *ABS*	00000000 VIC_IRQST
00000004 l       *ABS*	00000000 VIC_FIQST
00000008 l       *ABS*	00000000 VIC_RAW
0000000c l       *ABS*	00000000 VIC_SELECT
00000010 l       *ABS*	00000000 VIC_ENABLE
00000014 l       *ABS*	00000000 VIC_DISABLE
00000018 l       *ABS*	00000000 VIC_SOFT_SET
0000001c l       *ABS*	00000000 VIC_SOFT_CLR
00000020 l       *ABS*	00000000 VIC_PROTECT
00000030 l       *ABS*	00000000 VIC_VADDR
00000034 l       *ABS*	00000000 VIC_DEFADDR
00000100 l       *ABS*	00000000 VIC_ADDR
00000100 l       *ABS*	00000000 VIC_ADDR0
00000104 l       *ABS*	00000000 VIC_ADDR1
00000108 l       *ABS*	00000000 VIC_ADDR2
0000010c l       *ABS*	00000000 VIC_ADDR3
00000110 l       *ABS*	00000000 VIC_ADDR4
00000114 l       *ABS*	00000000 VIC_ADDR5
00000118 l       *ABS*	00000000 VIC_ADDR6
0000011c l       *ABS*	00000000 VIC_ADDR7
00000120 l       *ABS*	00000000 VIC_ADDR8
00000124 l       *ABS*	00000000 VIC_ADDR9
00000128 l       *ABS*	00000000 VIC_ADDR10
0000012c l       *ABS*	00000000 VIC_ADDR11
00000130 l       *ABS*	00000000 VIC_ADDR12
00000134 l       *ABS*	00000000 VIC_ADDR13
00000138 l       *ABS*	00000000 VIC_ADDR14
0000013c l       *ABS*	00000000 VIC_ADDR15
00000200 l       *ABS*	00000000 VIC_CNTL
00000200 l       *ABS*	00000000 VIC_CNTL0
00000204 l       *ABS*	00000000 VIC_CNTL1
00000208 l       *ABS*	00000000 VIC_CNTL2
0000020c l       *ABS*	00000000 VIC_CNTL3
00000210 l       *ABS*	00000000 VIC_CNTL4
00000214 l       *ABS*	00000000 VIC_CNTL5
00000218 l       *ABS*	00000000 VIC_CNTL6
0000021c l       *ABS*	00000000 VIC_CNTL7
00000220 l       *ABS*	00000000 VIC_CNTL8
00000224 l       *ABS*	00000000 VIC_CNTL9
00000228 l       *ABS*	00000000 VIC_CNTL10
0000022c l       *ABS*	00000000 VIC_CNTL11
00000230 l       *ABS*	00000000 VIC_CNTL12
00000234 l       *ABS*	00000000 VIC_CNTL13
00000238 l       *ABS*	00000000 VIC_CNTL14
0000023c l       *ABS*	00000000 VIC_CNTL15
00000000 l       *ABS*	00000000 WDOG_INT
00000001 l       *ABS*	00000000 SOFTWARE_INT
00000002 l       *ABS*	00000000 COMM_RX_INT
00000003 l       *ABS*	00000000 COMM_TX_INT
00000004 l       *ABS*	00000000 TIMER1_INT
00000005 l       *ABS*	00000000 TIMER2_INT
00000006 l       *ABS*	00000000 CC_RDY_INT
00000007 l       *ABS*	00000000 CC_RPE_INT
00000008 l       *ABS*	00000000 CC_RFE_INT
00000009 l       *ABS*	00000000 CC_TFL_INT
0000000a l       *ABS*	00000000 CC_TOV_INT
0000000b l       *ABS*	00000000 CC_TMT_INT
0000000c l       *ABS*	00000000 DMA_DONE_INT
0000000d l       *ABS*	00000000 DMA_ERR_INT
0000000e l       *ABS*	00000000 DMA_TO_INT
0000000f l       *ABS*	00000000 RTR_DIAG_INT
00000010 l       *ABS*	00000000 RTR_DUMP_INT
00000011 l       *ABS*	00000000 RTR_ERR_INT
00000012 l       *ABS*	00000000 CPU_INT
00000013 l       *ABS*	00000000 ETH_TX_INT
00000014 l       *ABS*	00000000 ETH_RX_INT
00000015 l       *ABS*	00000000 ETH_PHY_INT
00000016 l       *ABS*	00000000 SLOW_CLK_INT
00000017 l       *ABS*	00000000 CC_TNF_INT
00000018 l       *ABS*	00000000 CC_MC_INT
00000019 l       *ABS*	00000000 CC_P2P_INT
0000001a l       *ABS*	00000000 CC_NN_INT
0000001b l       *ABS*	00000000 CC_FR_INT
0000001c l       *ABS*	00000000 INT0_INT
0000001d l       *ABS*	00000000 INT1_INT
0000001e l       *ABS*	00000000 GPIO8_INT
0000001f l       *ABS*	00000000 GPIO9_INT
30000000 l       *ABS*	00000000 DMA_BASE_UNBUF
40000000 l       *ABS*	00000000 DMA_BASE_BUF
40000000 l       *ABS*	00000000 DMA_BASE
00000004 l       *ABS*	00000000 DMA_ADRS
00000008 l       *ABS*	00000000 DMA_ADRT
0000000c l       *ABS*	00000000 DMA_DESC
00000010 l       *ABS*	00000000 DMA_CTRL
00000014 l       *ABS*	00000000 DMA_STAT
00000018 l       *ABS*	00000000 DMA_GCTL
0000001c l       *ABS*	00000000 DMA_CRCC
00000020 l       *ABS*	00000000 DMA_CRCR
00000024 l       *ABS*	00000000 DMA_TMTV
00000028 l       *ABS*	00000000 DMA_SCTL
00000040 l       *ABS*	00000000 DMA_STAT0
00000044 l       *ABS*	00000000 DMA_STAT1
00000048 l       *ABS*	00000000 DMA_STAT2
0000004c l       *ABS*	00000000 DMA_STAT3
00000050 l       *ABS*	00000000 DMA_STAT4
00000054 l       *ABS*	00000000 DMA_STAT5
00000058 l       *ABS*	00000000 DMA_STAT6
0000005c l       *ABS*	00000000 DMA_STAT7
00000104 l       *ABS*	00000000 DMA_AD2S
00000108 l       *ABS*	00000000 DMA_AD2T
0000010c l       *ABS*	00000000 DMA_DES2
00000180 l       *ABS*	00000000 DMA_CRCT
f0000000 l       *ABS*	00000000 PL340_BASE_UNBUF
e0000000 l       *ABS*	00000000 PL340_BASE_BUF
e0000000 l       *ABS*	00000000 PL340_BASE
00000000 l       *ABS*	00000000 MC_STAT
00000004 l       *ABS*	00000000 MC_CMD
00000008 l       *ABS*	00000000 MC_DIRC
0000000c l       *ABS*	00000000 MC_MCFG
00000010 l       *ABS*	00000000 MC_REFP
00000014 l       *ABS*	00000000 MC_CASL
00000018 l       *ABS*	00000000 MC_DQSS
0000001c l       *ABS*	00000000 MC_MRD
00000020 l       *ABS*	00000000 MC_RAS
00000024 l       *ABS*	00000000 MC_RC
00000028 l       *ABS*	00000000 MC_RCD
0000002c l       *ABS*	00000000 MC_RFC
00000030 l       *ABS*	00000000 MC_RP
00000034 l       *ABS*	00000000 MC_RRD
00000038 l       *ABS*	00000000 MC_WR
0000003c l       *ABS*	00000000 MC_WTR
00000040 l       *ABS*	00000000 MC_XP
00000044 l       *ABS*	00000000 MC_XSR
00000048 l       *ABS*	00000000 MC_ESR
0000004c l       *ABS*	00000000 MC_MCFG2
00000050 l       *ABS*	00000000 MC_MCFG3
00000100 l       *ABS*	00000000 MC_QOS0
00000104 l       *ABS*	00000000 MC_QOS1
00000108 l       *ABS*	00000000 MC_QOS2
0000010c l       *ABS*	00000000 MC_QOS3
00000110 l       *ABS*	00000000 MC_QOS4
00000114 l       *ABS*	00000000 MC_QOS5
00000118 l       *ABS*	00000000 MC_QOS6
0000011c l       *ABS*	00000000 MC_QOS7
00000120 l       *ABS*	00000000 MC_QOS8
00000124 l       *ABS*	00000000 MC_QOS9
00000128 l       *ABS*	00000000 MC_QOS10
0000012c l       *ABS*	00000000 MC_QOS11
00000130 l       *ABS*	00000000 MC_QOS12
00000134 l       *ABS*	00000000 MC_QOS13
00000138 l       *ABS*	00000000 MC_QOS14
0000013c l       *ABS*	00000000 MC_QOS15
00000200 l       *ABS*	00000000 MC_CCFG0
00000204 l       *ABS*	00000000 MC_CCFG1
00000208 l       *ABS*	00000000 MC_CCFG2
0000020c l       *ABS*	00000000 MC_CCFG3
00000300 l       *ABS*	00000000 DLL_STATUS
00000304 l       *ABS*	00000000 DLL_CONFIG0
00000308 l       *ABS*	00000000 DLL_CONFIG1
f1000000 l       *ABS*	00000000 RTR_BASE_UNBUF
e1000000 l       *ABS*	00000000 RTR_BASE_BUF
e1000000 l       *ABS*	00000000 RTR_BASE
00000000 l       *ABS*	00000000 RTR_CONTROL
00000004 l       *ABS*	00000000 RTR_STATUS
00000008 l       *ABS*	00000000 RTR_EHDR
0000000c l       *ABS*	00000000 RTR_EKEY
00000010 l       *ABS*	00000000 RTR_EDAT
00000014 l       *ABS*	00000000 RTR_ESTAT
00000018 l       *ABS*	00000000 RTR_DHDR
0000001c l       *ABS*	00000000 RTR_DKEY
00000020 l       *ABS*	00000000 RTR_DDAT
00000024 l       *ABS*	00000000 RTR_DLINK
00000028 l       *ABS*	00000000 RTR_DSTAT
0000002c l       *ABS*	00000000 RTR_DGEN
00000084 l       *ABS*	00000000 RTR_FR
00000200 l       *ABS*	00000000 RTR_DGF0
00000204 l       *ABS*	00000000 RTR_DGF1
00000208 l       *ABS*	00000000 RTR_DGF2
0000020c l       *ABS*	00000000 RTR_DGF3
00000210 l       *ABS*	00000000 RTR_DGF4
00000214 l       *ABS*	00000000 RTR_DGF5
00000218 l       *ABS*	00000000 RTR_DGF6
0000021c l       *ABS*	00000000 RTR_DGF7
00000220 l       *ABS*	00000000 RTR_DGF8
00000224 l       *ABS*	00000000 RTR_DGF9
00000228 l       *ABS*	00000000 RTR_DGF10
0000022c l       *ABS*	00000000 RTR_DGF11
00000230 l       *ABS*	00000000 RTR_DGF12
00000234 l       *ABS*	00000000 RTR_DGF13
00000238 l       *ABS*	00000000 RTR_DGF14
0000023c l       *ABS*	00000000 RTR_DGF15
00000300 l       *ABS*	00000000 RTR_DGC0
00000304 l       *ABS*	00000000 RTR_DGC1
00000308 l       *ABS*	00000000 RTR_DGC2
0000030c l       *ABS*	00000000 RTR_DGC3
00000310 l       *ABS*	00000000 RTR_DGC4
00000314 l       *ABS*	00000000 RTR_DGC5
00000318 l       *ABS*	00000000 RTR_DGC6
0000031c l       *ABS*	00000000 RTR_DGC7
00000320 l       *ABS*	00000000 RTR_DGC8
00000324 l       *ABS*	00000000 RTR_DGC9
00000328 l       *ABS*	00000000 RTR_DGC10
0000032c l       *ABS*	00000000 RTR_DGC11
00000330 l       *ABS*	00000000 RTR_DGC12
00000334 l       *ABS*	00000000 RTR_DGC13
00000338 l       *ABS*	00000000 RTR_DGC14
0000033c l       *ABS*	00000000 RTR_DGC15
00000f00 l       *ABS*	00000000 RTR_TST1
00000f04 l       *ABS*	00000000 RTR_TST2
00002000 l       *ABS*	00000000 P2P_TABLE_SIZE
00000400 l       *ABS*	00000000 MC_TABLE_SIZE
00000018 l       *ABS*	00000000 MC_RAM_WIDTH
00ffffff l       *ABS*	00000000 MC_RAM_MASK
00000008 l       *ABS*	00000000 P2P_EPW
00000003 l       *ABS*	00000000 P2P_LOG_EPW
00000007 l       *ABS*	00000000 P2P_EMASK
00000003 l       *ABS*	00000000 P2P_BPE
00000007 l       *ABS*	00000000 P2P_BMASK
00db6db6 l       *ABS*	00000000 P2P_INIT
e1004000 l       *ABS*	00000000 RTR_MCRAM_BASE
e1005000 l       *ABS*	00000000 RTR_MCRAM_TOP
e1008000 l       *ABS*	00000000 RTR_MCKEY_BASE
e1009000 l       *ABS*	00000000 RTR_MCKEY_TOP
e100c000 l       *ABS*	00000000 RTR_MCMASK_BASE
e100d000 l       *ABS*	00000000 RTR_MCMASK_TOP
e1010000 l       *ABS*	00000000 RTR_P2P_BASE
e1018000 l       *ABS*	00000000 RTR_P2P_TOP
00000020 l       *ABS*	00000000 MC_CAM_WIDTH
f2000000 l       *ABS*	00000000 SYSCTL_BASE_UNBUF
e2000000 l       *ABS*	00000000 SYSCTL_BASE_BUF
e2000000 l       *ABS*	00000000 SYSCTL_BASE
5ec00000 l       *ABS*	00000000 SC_CODE
59111012 l       *ABS*	00000000 CHIP_ID_CODE
00000000 l       *ABS*	00000000 SC_CHIP_ID
00000004 l       *ABS*	00000000 SC_CPU_DIS
00000008 l       *ABS*	00000000 SC_SET_IRQ
0000000c l       *ABS*	00000000 SC_CLR_IRQ
00000010 l       *ABS*	00000000 SC_SET_OK
00000010 l       *ABS*	00000000 SC_CPU_OK
00000014 l       *ABS*	00000000 SC_CLR_OK
00000018 l       *ABS*	00000000 SC_SOFT_RST_L
0000001c l       *ABS*	00000000 SC_HARD_RST_L
00000020 l       *ABS*	00000000 SC_SUBS_RST_L
00000024 l       *ABS*	00000000 SC_SOFT_RST_P
00000028 l       *ABS*	00000000 SC_HARD_RST_P
0000002c l       *ABS*	00000000 SC_SUBS_RST_P
00000030 l       *ABS*	00000000 SC_RST_CODE
00000034 l       *ABS*	00000000 SC_MON_ID
00000038 l       *ABS*	00000000 SC_MISC_CTRL
0000003c l       *ABS*	00000000 GPIO_RES
00000040 l       *ABS*	00000000 GPIO_PORT
00000044 l       *ABS*	00000000 GPIO_DIR
00000048 l       *ABS*	00000000 GPIO_SET
0000004c l       *ABS*	00000000 GPIO_CLR
00000048 l       *ABS*	00000000 GPIO_READ
00000050 l       *ABS*	00000000 SC_PLL1
00000054 l       *ABS*	00000000 SC_PLL2
00000058 l       *ABS*	00000000 SC_FLAG
00000058 l       *ABS*	00000000 SC_SETFLAG
0000005c l       *ABS*	00000000 SC_CLRFLAG
00000060 l       *ABS*	00000000 SC_CLKMUX
00000064 l       *ABS*	00000000 SC_SLEEP
00000068 l       *ABS*	00000000 SC_TS0
0000006c l       *ABS*	00000000 SC_TS1
00000070 l       *ABS*	00000000 SC_TS2
00000080 l       *ABS*	00000000 SC_ARB0
00000100 l       *ABS*	00000000 SC_TAS0
00000180 l       *ABS*	00000000 SC_TAC0
00000200 l       *ABS*	00000000 SC_LINK_DIS
00000000 l       *ABS*	00000000 RST_POR
00000001 l       *ABS*	00000000 RST_WDT
00000002 l       *ABS*	00000000 RST_USER
00000003 l       *ABS*	00000000 RST_SW
00000004 l       *ABS*	00000000 RST_WDI
f3000000 l       *ABS*	00000000 WDOG_BASE_UNBUF
e3000000 l       *ABS*	00000000 WDOG_BASE_BUF
e3000000 l       *ABS*	00000000 WDOG_BASE
00000000 l       *ABS*	00000000 WD_LOAD
00000004 l       *ABS*	00000000 WD_COUNT
00000008 l       *ABS*	00000000 WD_CTRL
0000000c l       *ABS*	00000000 WD_INTCLR
00000010 l       *ABS*	00000000 WD_RAWINT
00000014 l       *ABS*	00000000 WD_MSKINT
00000c00 l       *ABS*	00000000 WD_LOCK
1acce551 l       *ABS*	00000000 WD_CODE
00000001 l       *ABS*	00000000 WD_INT_B
00000002 l       *ABS*	00000000 WD_RST_B
f4000000 l       *ABS*	00000000 ETH_BASE_UNBUF
e4000000 l       *ABS*	00000000 ETH_BASE_BUF
e4000000 l       *ABS*	00000000 ETH_BASE
e4000000 l       *ABS*	00000000 ETH_TX_BASE
00000600 l       *ABS*	00000000 ETH_TX_SIZE
e4000600 l       *ABS*	00000000 ETH_TX_TOP
e4004000 l       *ABS*	00000000 ETH_RX_BASE
00000c00 l       *ABS*	00000000 ETH_RX_SIZE
e4004c00 l       *ABS*	00000000 ETH_RX_TOP
e4008000 l       *ABS*	00000000 ETH_RX_DESC_RAM
e400c000 l       *ABS*	00000000 ETH_REGS
00000000 l       *ABS*	00000000 ETH_CONTROL
00000004 l       *ABS*	00000000 ETH_STATUS
00000008 l       *ABS*	00000000 ETH_TX_LEN
0000000c l       *ABS*	00000000 ETH_TX_CMD
00000010 l       *ABS*	00000000 ETH_RX_CMD
00000014 l       *ABS*	00000000 ETH_MAC_LO
00000018 l       *ABS*	00000000 ETH_MAC_HI
0000001c l       *ABS*	00000000 ETH_PHY_CTRL
00000020 l       *ABS*	00000000 ETH_INT_CLR
00000024 l       *ABS*	00000000 ETH_RX_BUF_RP
0000002c l       *ABS*	00000000 ETH_RX_DESC_RP
00000001 l       *ABS*	00000000 ETH_TX_CLR
00000010 l       *ABS*	00000000 ETH_RX_CLR
00000001 l       *ABS*	00000000 PHY_CTRL_NRST
00000002 l       *ABS*	00000000 PHY_CTRL_DIN
00000004 l       *ABS*	00000000 PHY_CTRL_DOUT
00000008 l       *ABS*	00000000 PHY_CTRL_OE
00000010 l       *ABS*	00000000 PHY_CTRL_CLK
00000000 l       *ABS*	00000000 PKT_MC
00400000 l       *ABS*	00000000 PKT_P2P
00800000 l       *ABS*	00000000 PKT_NN
00a00000 l       *ABS*	00000000 PKT_NND
00c00000 l       *ABS*	00000000 PKT_FR
00020000 l       *ABS*	00000000 PKT_PL
00020000 l       *ABS*	00000000 PKT_MC_PL
00420000 l       *ABS*	00000000 PKT_P2P_PL
00820000 l       *ABS*	00000000 PKT_NN_PL
00c20000 l       *ABS*	00000000 PKT_FR_PL
0000000a l       *ABS*	00000000 CLK_XTAL_MHZ
0007011a l       *ABS*	00000000 PLL_260
0007011e l       *ABS*	00000000 PLL_300
00070121 l       *ABS*	00000000 PLL_330
00070128 l       *ABS*	00000000 PLL_400
00000050 l       *ABS*	00000000 PLL_LOCK_TIME
809488a5 l       *ABS*	00000000 PLL_CLK_SEL
00000020 l       *ABS*	00000000 SERIAL_NCS
00000010 l       *ABS*	00000000 SERIAL_CLK
00000008 l       *ABS*	00000000 SERIAL_SI
00000004 l       *ABS*	00000000 SERIAL_SO
00000038 l       *ABS*	00000000 SERIAL_OE
80000000 l       *ABS*	00000000 SDRAM_TQ
40000000 l       *ABS*	00000000 SDRAM_DPD
20000000 l       *ABS*	00000000 SDRAM_HERE
08000000 l       *ABS*	00000000 JTAG_NTRST
04000000 l       *ABS*	00000000 JTAG_TMS
02000000 l       *ABS*	00000000 JTAG_TDI
01000000 l       *ABS*	00000000 JTAG_TCK
00100000 l       *ABS*	00000000 JTAG_RTCK
00080000 l       *ABS*	00000000 JTAG_TDO
00008000 l       *ABS*	00000000 JTAG_INT
00000001 l       *ABS*	00000000 LED_0
00000010 l       *ABS*	00000000 MODE_USER
00000011 l       *ABS*	00000000 MODE_FIQ
00000012 l       *ABS*	00000000 MODE_IRQ
00000013 l       *ABS*	00000000 MODE_SVC
00000017 l       *ABS*	00000000 MODE_ABT
0000001b l       *ABS*	00000000 MODE_UND
0000001f l       *ABS*	00000000 MODE_SYS
00000020 l       *ABS*	00000000 THUMB_BIT
00000080 l       *ABS*	00000000 IMASK_IRQ
00000040 l       *ABS*	00000000 IMASK_FIQ
000000c0 l       *ABS*	00000000 IMASK_ALL
00000001 l       *ABS*	00000000 SARK_EVENT
00000180 l       *ABS*	00000000 SVC_STACK
00000100 l       *ABS*	00000000 IRQ_STACK
00000100 l       *ABS*	00000000 FIQ_STACK
00000004 l       *ABS*	00000000 NUM_SDP_MSGS
0000000f l       *ABS*	00000000 SARK_SLOT
00000010 l       *ABS*	00000000 INIT_EVENTS
deaddead l       *ABS*	00000000 DEAD_WORD
00000001 l       *ABS*	00000000 APLX_ACOPY
00000002 l       *ABS*	00000000 APLX_RCOPY
00000003 l       *ABS*	00000000 APLX_FILL
00000004 l       *ABS*	00000000 APLX_EXEC
000000ff l       *ABS*	00000000 APLX_END
00000010 l       *ABS*	00000000 APLX_ENTRY_SIZE
00000040 l       *ABS*	00000000 APLX_BUF_SIZE
00007fc0 l       *ABS*	00000000 APLX_BUFFER
000000ff l       *ABS*	00000000 TAG_NONE
00000000 l       *ABS*	00000000 TAG_HOST
00000001 l       *ABS*	00000000 RTR_ALLOC_FIRST
00000400 l       *ABS*	00000000 RTR_ALLOC_LAST
000003ff l       *ABS*	00000000 RTR_ALLOC_MAX
00000001 l       *ABS*	00000000 ALLOC_LOCK
00000002 l       *ABS*	00000000 ALLOC_ID
00000005 l       *ABS*	00000000 A_LOCK_SEMA
00000001 l       *ABS*	00000000 A_RTE_RESET
00000002 l       *ABS*	00000000 A_RTE_UNDEF
00000003 l       *ABS*	00000000 A_RTE_SVC
00000004 l       *ABS*	00000000 A_RTE_PABT
00000005 l       *ABS*	00000000 A_RTE_DABT
00000006 l       *ABS*	00000000 A_RTE_IRQ
00000007 l       *ABS*	00000000 A_RTE_FIQ
00000008 l       *ABS*	00000000 A_RTE_VIC
00000002 l       *ABS*	00000000 A_STATE_RTE
00000006 l       *ABS*	00000000 EVENT_COUNT
00000000 l       *ABS*	00000000 CMD_VER
00000001 l       *ABS*	00000000 CMD_RUN
00000002 l       *ABS*	00000000 CMD_READ
00000003 l       *ABS*	00000000 CMD_WRITE
00000004 l       *ABS*	00000000 CMD_APLX
00000005 l       *ABS*	00000000 CMD_FILL
00000010 l       *ABS*	00000000 CMD_REMAP
00000011 l       *ABS*	00000000 CMD_LINK_READ
00000012 l       *ABS*	00000000 CMD_LINK_WRITE
00000013 l       *ABS*	00000000 CMD_AR
00000014 l       *ABS*	00000000 CMD_NNP
00000016 l       *ABS*	00000000 CMD_SIG
00000017 l       *ABS*	00000000 CMD_FFD
00000018 l       *ABS*	00000000 CMD_AS
00000019 l       *ABS*	00000000 CMD_LED
0000001a l       *ABS*	00000000 CMD_IPTAG
0000001b l       *ABS*	00000000 CMD_SROM
0000001c l       *ABS*	00000000 CMD_ALLOC
0000001d l       *ABS*	00000000 CMD_RTR
0000001f l       *ABS*	00000000 CMD_INFO
00000040 l       *ABS*	00000000 CMD_TUBE
00000080 l       *ABS*	00000000 RC_OK
00000081 l       *ABS*	00000000 RC_LEN
00000082 l       *ABS*	00000000 RC_SUM
00000083 l       *ABS*	00000000 RC_CMD
00000084 l       *ABS*	00000000 RC_ARG
00000085 l       *ABS*	00000000 RC_PORT
00000086 l       *ABS*	00000000 RC_TIMEOUT
00000087 l       *ABS*	00000000 RC_ROUTE
00000088 l       *ABS*	00000000 RC_CPU
00000089 l       *ABS*	00000000 RC_DEAD
0000008a l       *ABS*	00000000 RC_BUF
0000008b l       *ABS*	00000000 RC_P2P_NOREPLY
0000008c l       *ABS*	00000000 RC_P2P_REJECT
0000008d l       *ABS*	00000000 RC_P2P_BUSY
0000008e l       *ABS*	00000000 RC_P2P_TIMEOUT
0000008f l       *ABS*	00000000 RC_PKT_TX
00000000 l       *ABS*	00000000 TYPE_BYTE
00000001 l       *ABS*	00000000 TYPE_HALF
00000002 l       *ABS*	00000000 TYPE_WORD
00000008 l       *ABS*	00000000 NUM_SDP_PORTS
00000005 l       *ABS*	00000000 PORT_SHIFT
000000e0 l       *ABS*	00000000 PORT_MASK
0000001f l       *ABS*	00000000 CPU_MASK
000000ff l       *ABS*	00000000 PORT_ETH
00000100 l       *ABS*	00000000 SDP_BUF_SIZE
00000080 l       *ABS*	00000000 VCPU_SIZE
0000002c l       *ABS*	00000000 VCPU_RT_CODE
0000002e l       *ABS*	00000000 VCPU_CPU_STATE
0000002f l       *ABS*	00000000 VCPU_APP_ID
0000001c l       *ABS*	00000000 SARK_MSG_INT
0000001d l       *ABS*	00000000 SARK_SIG_INT
00000000 l       *ABS*	00000000 SARK_VIRT_CPU
00000008 l       *ABS*	00000000 SARK_RANDOM
00000030 l       *ABS*	00000000 SARK_CPU_CLK
00000020 l       *ABS*	00000000 SV_SSIZE
00000060 l       *ABS*	00000000 SV_USIZE
00000080 l       *ABS*	00000000 SV_ISIZE
00000020 l       *ABS*	00000000 SV_VSIZE
00000040 l       *ABS*	00000000 SV_RSIZE
00001000 l       *ABS*	00000000 SV_SIZE
e5007fe0 l       *ABS*	00000000 SV_SROM
e5007f80 l       *ABS*	00000000 SV_UBASE
e5007f00 l       *ABS*	00000000 SV_IBASE
e5007f00 l       *ABS*	00000000 SV_SV
00000100 l       *ABS*	00000000 SYS_BOOT
e5007000 l       *ABS*	00000000 SYS_USER_TOP
e5000100 l       *ABS*	00000000 SYS_USER_BASE
e5007ee0 l       *ABS*	00000000 SV_VECTORS
e5007ea0 l       *ABS*	00000000 SV_RANDOM
e5007000 l       *ABS*	00000000 SV_VCPU
e5007900 l       *ABS*	00000000 SV_SPARE
000005a0 l       *ABS*	00000000 SPARE_SIZE
e5007fe0 l       *ABS*	00000000 SROM_FLAG_BASE
e5007f80 l       *ABS*	00000000 STATUS_MAP_BASE
e5007ee0 l       *ABS*	00000000 RST_BLOCK_BASE
00008000 l       *ABS*	00000000 SRF_PRESENT
000000f0 l       *ABS*	00000000 SRF_HW_VER
00000008 l       *ABS*	00000000 SRF_PHY_INIT
00000004 l       *ABS*	00000000 SRF_PHY_RST
00000002 l       *ABS*	00000000 SRF_PHY_WAIT
00000001 l       *ABS*	00000000 SRF_ETH
00000000 l       *ABS*	00000000 SRF_NONE
00000020 l       RO_DATA	00000000 reset_vec
00000004 l       RO_DATA	00000000 undef
00000024 l       RO_DATA	00000000 undef_vec
00000028 l       RO_DATA	00000000 svc_vec
0000002c l       RO_DATA	00000000 pabt_vec
00000030 l       RO_DATA	00000000 dabt_vec
0000003c l       RO_DATA	00000000 fiq_vec
00000078 l       RO_DATA	00000000 reset_entry
000000d8 l       RO_DATA	00000000 undef_error
000000e0 l       RO_DATA	00000000 svc_error
000000e8 l       RO_DATA	00000000 pabt_error
000000f0 l       RO_DATA	00000000 dabt_error
00000034 l       RO_DATA	00000000 aplx_proc
00000038 l       RO_DATA	00000000 irq_vec
000000f8 l       RO_DATA	00000000 irq_error
00000100 l       RO_DATA	00000000 fiq_error
00000040 l       RO_DATA	00000000 svc_stack
00000042 l       RO_DATA	00000000 irq_stack
00000044 l       RO_DATA	00000000 fiq_stack
00000046 l       RO_DATA	00000000 stack_size
00000048 l       RO_DATA	00000000 code_top
0000004c l       RO_DATA	00000000 heap_base
00000050 l       RO_DATA	00000000 stack_top
00000054 l       RO_DATA	00000000 stack_fill
00000058 l       RO_DATA	00000000 num_msgs
00000059 l       RO_DATA	00000000 sark_slot
0000005a l       RO_DATA	00000000 num_events
0000005b l       RO_DATA	00000000 api
0000005c l       RO_DATA	00000000 app_id
0000005d l       RO_DATA	00000000 app_flags
0000005e l       RO_DATA	00000000 __PAD
00000060 l       RO_DATA	00000000 event_vec
000000d0 l       RO_DATA	00000000 reset_error
00000114 l       RO_DATA	00000000 exc_error
00000138 l       RO_DATA	00000000 cc_error
000001fc l       RO_DATA	00000000 lg1
00000238 l       RO_DATA	00000000 ws1
00000298 l       RO_DATA	00000000 wc2
00000280 l       RO_DATA	00000000 wc1
00000378 l       RO_DATA	00000000 aplx_buffer
0000037c l       RO_DATA	00000000 aplx_loader
00000368 l       RO_DATA	00000000 aplx_l0
00000394 l       RO_DATA	00000000 aplx_copy
00000390 l       RO_DATA	00000000 aplx_rcopy
000003a2 l       RO_DATA	00000000 aplx_fill
000003b2 l       RO_DATA	00000000 aplx_exec
000003a8 l       RO_DATA	00000000 aplx_l1
00000000 l    df *ABS*	00000000 sark_base.c
00000000 l    df *ABS*	00000000 sark_event.c
00000000 l    df *ABS*	00000000 sark_timer.c
00000000 l    df *ABS*	00000000 sark_hw.c
00000000 l    df *ABS*	00000000 sark_isr.c
00000000 l    df *ABS*	00000000 sark_alloc.c
00000000 l    df *ABS*	00000000 sark_io.c
00002390 l     F RO_DATA	00000040 io_buf_init
000024bc l     F RO_DATA	000000c4 io_put_fixed
00400190 l     O ZI_DATA	00000004 io_msg
00004ab1 l     O RO_DATA	00000011 hex
00400194 l     O ZI_DATA	00000004 io_buf
00400198 l     O ZI_DATA	00000004 buf_ptr
0040019c l     O ZI_DATA	00000004 sp_ptr
00000000 l    df *ABS*	00000000 sark_pkt.c
00000000 l    df *ABS*	00000000 spinn_IHC_softfloat.c
00000000 l    df *ABS*	00000000 random.c
00400000 l     O RW_DATA	00000004 x.6190
00400004 l     O RW_DATA	00000004 y.6191
00400008 l     O RW_DATA	00000004 z.6192
0040000c l     O RW_DATA	00000004 c.6193
00400010 l     O RW_DATA	00000004 y.6182
00400014 l     O RW_DATA	00000004 w.6184
00400018 l     O RW_DATA	00000004 z.6183
0040001c l     O RW_DATA	00000004 x.6181
00400108 l     O ZI_DATA	00000080 STATE
00400188 l     O ZI_DATA	00000004 state_i.6165
0040018c l     O ZI_DATA	00000004 c.6185
00000000 l    df *ABS*	00000000 stdfix-exp.c
00004860 l     O RO_DATA	000000d0 __exp_hi
00004930 l     O RO_DATA	00000040 __expm1_mid
00000000 l    df *ABS*	00000000 normal.c
00004970 l     O RO_DATA	0000002c leading_terms
0000499c l     O RO_DATA	00000018 offset
000049b4 l     O RO_DATA	00000018 multiplier
000049cc l     O RO_DATA	00000084 low_values
00400020 l     O RW_DATA	000000dc polynomials
00000000 l    df *ABS*	00000000 spin1_api.c
004001a0 l     O ZI_DATA	00000004 resume_sync
004001a4 l     O ZI_DATA	00000004 timer_tick
004001a8 l     O ZI_DATA	00000004 paused
004001b0 l     O ZI_DATA	00000320 task_queue
004004d0 l     O ZI_DATA	00000004 run
00000000 l    df *ABS*	00000000 spin1_isr.c
00000000 l    df *ABS*	00000000 _arm_addsubdf3.o
00000000 l    df *ABS*	00000000 _arm_muldivdf3.o
00000000 l    df *ABS*	00000000 _arm_truncdfsf2.o
00000000 l    df *ABS*	00000000 _arm_addsubsf3.o
00000000 l    df *ABS*	00000000 _arm_muldivsf3.o
00000000 l    df *ABS*	00000000 _arm_cmpsf2.o
00000000 l    df *ABS*	00000000 _arm_fixunssfsi.o
00000000 l    df *ABS*	00000000 fixed-bit.c
00000000 l    df *ABS*	00000000 fixed-bit.c
00000000 l    df *ABS*	00000000 fixed-bit.c
00000000 l    df *ABS*	00000000 fixed-bit.c
00000000 l    df *ABS*	00000000 fixed-bit.c
00000000 l    df *ABS*	00000000 fixed-bit.c
00000000 l    df *ABS*	00000000 fixed-bit.c
00000000 l    df *ABS*	00000000 fixed-bit.c
00000000 l    df *ABS*	00000000 _arm_fixsfsi.o
00000000 l    df *ABS*	00000000 IHC_float_build.c
000046c8 l     F RO_DATA	00000008 __spin1_exit_from_arm
000046d0 l     F RO_DATA	00000008 __io_printf_from_arm
004004d4 g     O ZI_DATA	00000008 ANCleftMSR
004004dc g     O ZI_DATA	00000004 sdramout_buffer
004007f8 g     O ZI_DATA	00000004 old_vector
00002e24 g     F RO_DATA	0000000a spin1_start
000001e8 g     F RO_DATA	00000000 sark_lock_get
0000307c g     F RO_DATA	00000030 sark_pre_main
00001adc g     F RO_DATA	00000034 sark_shmsg_get
004004e0 g     O ZI_DATA	00000034 Cilia
00002fd8 g     F RO_DATA	0000000c spin1_get_core_id
00003168 g     F RO_DATA	00000074 cc_fr_ready_isr
000001b8 g     F RO_DATA	00000000 spin1_int_enable
00000040 g       *ABS*	00000000 RO_FROM
00000800 g       *ABS*	00000000 STACK_SIZE
000038e0 g     F RO_DATA	00000060 .hidden __floatdidf
0000034e g     F RO_DATA	00000000 sark_bx
00400514 g     O ZI_DATA	00000004 IHCVnow
00002b44 g     F RO_DATA	0000008c spin1_callback_on
0000459c g     F RO_DATA	00000044 .hidden __gnu_mulhelperusq
00000fb0 g     F RO_DATA	00000090 app_done
00001a10 g     F RO_DATA	0000002c __norminv_ulrbits
00400518 g     O ZI_DATA	00000004 sdramin_buffer
00000258 g     F RO_DATA	00000000 sark_msg_cpy
000042c0 g     F RO_DATA	00000160 .hidden __divsf3
0040051c g     O ZI_DATA	00000004 ANCleftLSR
00400520 g     O ZI_DATA	00000004 dtcm_buffer_y
000003b8 g     F RO_DATA	000000c4 data_read
00002068 g     F RO_DATA	0000003c event_alloc
00002c0c g     F RO_DATA	0000006c clean_up
00001a6c g     F RO_DATA	0000001e sark_block_init
00004668 g     F RO_DATA	0000005c .hidden __fixsfsi
000033a4 g     F RO_DATA	00000088 timer1_isr
00001420 g     F RO_DATA	00000048 validate_mars_kiss64_seed
000021dc g     F RO_DATA	00000028 sark_fiq_han
00000010 g       *ABS*	00000000 APLX_ENTRY
00001abc g     F RO_DATA	00000020 sark_msg_free
0000346c g     F RO_DATA	00000068 soft_int_isr
00002fc8 g     F RO_DATA	0000000e spin1_send_mc_packet
00002828 g     F RO_DATA	00000028 configure_dma_controller
000015dc g     F RO_DATA	00000140 expk
00003e88 g     F RO_DATA	000001bc .hidden __aeabi_fadd
00400524 g     O ZI_DATA	00000004 ANReproLSR
00003e84 g     F RO_DATA	000001c0 .hidden __subsf3
00001040 g     F RO_DATA	00000100 c_main
00001e5c g     F RO_DATA	00000170 sark_int
000011c0 g     F RO_DATA	00000084 WELL1024a_simp
00400528 g     O ZI_DATA	00000004 read_switch
00002880 g     F RO_DATA	0000016c configure_vic
000002ec g     F RO_DATA	00000000 sark_int_han
0040052c g     O ZI_DATA	00000048 Synapse
00001fcc g     F RO_DATA	00000058 event_wait
00400574 g     O ZI_DATA	00000004 mICaCurr
00400578 g     O ZI_DATA	00000004 profile_buffer
00001e48 g     F RO_DATA	00000014 sark_wait
00001244 g     F RO_DATA	0000000c validate_WELL1024a_seed
000001d8 g     F RO_DATA	00000000 spin1_mode_restore
0040057c g     O ZI_DATA	00000008 ANReproMSR
000001a8 g     F RO_DATA	00000000 spin1_irq_disable
0000451c g     F RO_DATA	00000018 .hidden __aeabi_fcmpgt
00003864 g     F RO_DATA	00000028 .hidden __floatsidf
00001e38 g     F RO_DATA	00000010 sark_cmd_fill
00400584 g     O ZI_DATA	00000008 CaCurrMSR
00002384 g     F RO_DATA	0000000c rtr_alloc
000020a4 g     F RO_DATA	00000050 sark_vic_init
0000332c g     F RO_DATA	00000078 dma_done_fiqsr
0000016c g     F RO_DATA	00000000 cpu_shutdown
0000404c g     F RO_DATA	00000020 .hidden __aeabi_i2f
0000047c g     F RO_DATA	000000b8 generateStartupVars
000001d8 g     F RO_DATA	00000000 cpu_int_restore
004007fc g     O ZI_DATA	00000048 diagnostics
00004428 g     F RO_DATA	0000006c .hidden __lesf2
00410000 g       *ABS*	00000000 STACK_TOP
0040058c g     O ZI_DATA	00000004 end_count_process
00400aac g       ZI_DATA	00000000 HEAP_BASE
00002204 g     F RO_DATA	000000c8 sark_xalloc
00400844 g     O ZI_DATA	00000004 old_enable
00003840 g     F RO_DATA	00000024 .hidden __aeabi_ui2d
000014d0 g     F RO_DATA	0000001c gaussian_dist_variate
00003524 g     F RO_DATA	00000000 .hidden __aeabi_drsub
00002850 g     F RO_DATA	00000030 configure_timer1
00400590 g     O ZI_DATA	00000004 r_max
00400594 g     O ZI_DATA	00000018 ANAvailHSR
00000350 g     F RO_DATA	00000000 __gnu_thumb1_case_uqi
004005ac g     O ZI_DATA	00000004 start_count_process
004005b0 g     O ZI_DATA	00000018 refrac_hsr
0000388c g     F RO_DATA	00000040 .hidden __extendsfdf2
00003bd0 g     F RO_DATA	0000020c .hidden __aeabi_ddiv
00003530 g     F RO_DATA	00000310 .hidden __adddf3
00004430 g     F RO_DATA	00000064 .hidden __nesf2
00003940 g     F RO_DATA	00000290 .hidden __aeabi_dmul
004005c8 g     O ZI_DATA	00000018 ANReproHSR
00400848 g     O ZI_DATA	00000004 user_arg1
00001b10 g     F RO_DATA	00000024 sark_shmsg_free
004005e0 g     O ZI_DATA	0000003c startupValues
00000320 g     F RO_DATA	00000000 schedule
0040061c g     O ZI_DATA	00000004 ANAvailLSR
00003214 g     F RO_DATA	00000088 cc_tx_empty_isr
00003840 g     F RO_DATA	00000024 .hidden __floatunsidf
0000012c g     F RO_DATA	00000000 rt_error
000012e4 g     F RO_DATA	00000070 mars_kiss32
00003ddc g     F RO_DATA	000000a0 .hidden __aeabi_d2f
00003130 g     F RO_DATA	00000038 cc_rx_ready_fiqsr
00003e84 g     F RO_DATA	000001c0 .hidden __aeabi_fsub
00400620 g     O ZI_DATA	00000018 ANCleftHSR
00002fe4 g     F RO_DATA	0000000c spin1_get_chip_id
00400100 g     O RW_DATA	00000004 fr_pkt_prio
00004504 g     F RO_DATA	00000018 .hidden __aeabi_fcmpge
00001a48 g     F RO_DATA	00000010 sark_cpu_state
00400638 g     O ZI_DATA	00000004 dtcm_buffer_b
0000407c g     F RO_DATA	000000ac .hidden __floatdisf
004001ac g     O ZI_DATA	00000001 user_pending
00000ca8 g     F RO_DATA	00000254 process_chan
00001250 g     F RO_DATA	00000094 WELL1024a_seed
00004420 g     F RO_DATA	00000074 .hidden __gtsf2
00001778 g     F RO_DATA	00000044 mid_approx
00003530 g     F RO_DATA	00000310 .hidden __aeabi_dadd
004000fc g     O RW_DATA	00000004 mc_pkt_prio
000044ec g     F RO_DATA	00000018 .hidden __aeabi_fcmple
00002bd0 g     F RO_DATA	0000000c spin1_get_simulation_time
000038cc g     F RO_DATA	00000074 .hidden __aeabi_ul2d
000030ac g     F RO_DATA	0000000a sark_post_main
00004c34 g       *ABS*	00000000 RW_FROM
000001a8 g     F RO_DATA	00000000 cpu_irq_disable
00000000 g       RO_DATA	00000000 cpu_reset
000002bc g     F RO_DATA	00000000 sark_div10
0040063c g     O ZI_DATA	00000004 test_DMA
00400640 g     O ZI_DATA	00000004 index_x
00000108 g       RO_DATA	00000000 vic_error
000018b4 g     F RO_DATA	0000015c __norminv_rbits
00400644 g     O ZI_DATA	00000004 seg_index
000045e0 g     F RO_DATA	00000024 .hidden __gnu_cmpusq2
00400000 g       *ABS*	00000000 DTCM_BASE
0000352c g     F RO_DATA	00000314 .hidden __aeabi_dsub
000038cc g     F RO_DATA	00000074 .hidden __floatundidf
00400648 g     O ZI_DATA	00000004 write_switch
00002134 g     F RO_DATA	0000002c v2p_mask
00004850 g     O RO_DATA	0000000a build_name
0040064c g     O ZI_DATA	00000004 myKey
0000404c g     F RO_DATA	00000020 .hidden __floatsisf
0000034c  w    F RO_DATA	00000000 sark_config
00001354 g     F RO_DATA	00000068 mars_kiss64_simp
00004630 g     F RO_DATA	00000018 .hidden __gnu_fractsasf
00400650 g     O ZI_DATA	00000004 CaCurrLSR
000013bc g     F RO_DATA	00000064 mars_kiss64_seed
00004668 g     F RO_DATA	0000005c .hidden __aeabi_f2iz
00004430 g     F RO_DATA	00000064 .hidden __eqsf2
00400654 g     O ZI_DATA	00000008 refrac_msr
00002024 g     F RO_DATA	0000002c event_pause
0040065c g     O ZI_DATA	00000004 start_count_write
0000485c g     O RO_DATA	00000004 build_date
0000020c g     F RO_DATA	00000000 sark_lock_free
000022cc g     F RO_DATA	00000018 sark_alloc
00400000 g       *ABS*	00000000 RW_BASE
00002ed8 g     F RO_DATA	000000f0 spin1_send_packet
000042c0 g     F RO_DATA	00000160 .hidden __aeabi_fdiv
00000108 g       ZI_DATA	00000000 RW_LENGTH
00003864 g     F RO_DATA	00000028 .hidden __aeabi_i2d
000034d4 g     F RO_DATA	00000050 soft_int_fiqsr
00002a58 g     F RO_DATA	000000ec dispatch
00000190 g     F RO_DATA	00000000 cpu_init_mode
0000406c g     F RO_DATA	000000bc .hidden __floatundisf
00000268 g     F RO_DATA	00000000 sark_word_cpy
00000040 g       *ABS*	00000000 APLX_SIZE
0000017c g     F RO_DATA	00000000 cpu_sleep
00003bd0 g     F RO_DATA	0000020c .hidden __divdf3
00400104 g     O RW_DATA	00000004 fiq_event
0040084c g     O ZI_DATA	00000001 leadAp
00400724 g     O ZI_DATA	0000003c sark
00004044 g     F RO_DATA	00000028 .hidden __aeabi_ui2f
00400660 g     O ZI_DATA	00000004 processing
00002c00 g     F RO_DATA	0000000c spin1_set_timer_tick
00003940 g     F RO_DATA	00000290 .hidden __muldf3
00001c84 g     F RO_DATA	0000009c sark_msg_send
00400664 g     O ZI_DATA	00000004 end_count_write
000001e0 g     F RO_DATA	00000000 spin1_wfi
00001d20 g     F RO_DATA	00000050 sark_cmd_ver
00004430 g     F RO_DATA	00000064 .hidden __cmpsf2
00000534 g     F RO_DATA	00000774 app_init
000001e0 g     F RO_DATA	00000000 cpu_wfi
00002050 g     F RO_DATA	00000018 event_stop
000029ec g     F RO_DATA	00000044 resume
000001c8 g     F RO_DATA	00000000 cpu_int_disable
0000407c g     F RO_DATA	000000ac .hidden __aeabi_l2f
000020f4 g     F RO_DATA	00000040 sark_vic_set
00004428 g     F RO_DATA	0000006c .hidden __ltsf2
000022e4 g     F RO_DATA	0000001e sark_heap_init
000031dc g     F RO_DATA	00000038 cc_fr_ready_fiqsr
00002bdc g     F RO_DATA	00000024 spin1_exit
00400760 g     O ZI_DATA	00000098 event
00400668 g     O ZI_DATA	00000004 dtcm_buffer_x
00003ddc g     F RO_DATA	000000a0 .hidden __truncdfsf2
000046d8 g       RO_DATA	00000000 __init_array_end
000038e0 g     F RO_DATA	00000060 .hidden __aeabi_l2d
00001dd2 g     F RO_DATA	00000066 sark_cmd_write
000030b8 g     F RO_DATA	00000078 cc_rx_ready_isr
0000406c g     F RO_DATA	000000bc .hidden __aeabi_ul2f
000044a4 g     F RO_DATA	00000018 .hidden __aeabi_cfcmple
00001b50  w    F RO_DATA	00000134 sark_init
00004128 g     F RO_DATA	00000198 .hidden __mulsf3
00001a3c  w    F RO_DATA	0000000c rte_handler
00000360 g     F RO_DATA	00000000 sark_aplx
00002c78 g     F RO_DATA	00000078 report_debug
00002580 g     F RO_DATA	000002a8 io_printf
00400850 g     O ZI_DATA	00000148 dma_queue
00000234 g     F RO_DATA	00000000 sark_word_set
00001140 g     F RO_DATA	00000080 init_WELL1024a_simp
00400998 g     O ZI_DATA	00000004 old_select
0040066c g     O ZI_DATA	00000004 start_count_read
00001834 g     F RO_DATA	00000080 central_approx
00002cf0 g     F RO_DATA	00000048 report_warns
00400670 g     O ZI_DATA	00000004 coreID
00400674 g     O ZI_DATA	00000004 refrac_lsr
00004420 g     F RO_DATA	00000074 .hidden __gesf2
00001468 g     F RO_DATA	00000068 exponential_dist_variate
00003e7c g     F RO_DATA	000001c8 .hidden __aeabi_frsub
000044bc g     F RO_DATA	00000018 .hidden __aeabi_fcmpeq
0000329c g     F RO_DATA	00000090 dma_done_isr
00001554 g     F RO_DATA	00000054 poisson_dist_variate_exp_minus_lambda
0040099c g     O ZI_DATA	00000004 ticks
00004128 g     F RO_DATA	00000198 .hidden __aeabi_fmul
00004494 g     F RO_DATA	00000028 .hidden __aeabi_cfrcmple
0000031c g     F RO_DATA	00000000 null_int_han
00002e30 g     F RO_DATA	000000a8 spin1_dma_transfer
00002ff0 g     F RO_DATA	0000008c schedule_sysmode
00002304 g     F RO_DATA	00000080 rtr_alloc_id
00004650 g     F RO_DATA	00000018 .hidden __gnu_fractsfsa
00400678 g     O ZI_DATA	00000004 chipID
0000342c g     F RO_DATA	00000040 timer1_fiqsr
0040067c g     O ZI_DATA	00000004 dtcm_buffer_a
000044d4 g     F RO_DATA	00000018 .hidden __aeabi_fcmplt
00000220 g     F RO_DATA	00000000 sark_str_cpy
00002a30 g     F RO_DATA	00000028 resume_wait
00400680 g     O ZI_DATA	00000004 route
00002160 g     F RO_DATA	0000007c rtr_mc_set
00400108 g       *ABS*	00000000 ZI_BASE
00000000 g       *ABS*	00000000 RO_BASE
000001b8 g     F RO_DATA	00000000 cpu_int_enable
004009a0 g     O ZI_DATA	00000004 user_arg0
00001a58 g     F RO_DATA	00000014 sark_app_lead
00004628 g     F RO_DATA	00000008 .hidden __gnu_fractsausq
00400684 g     O ZI_DATA	00000004 dt
00004534 g     F RO_DATA	00000054 .hidden __aeabi_f2uiz
00400688 g     O ZI_DATA	0000006c preSyn
00000000 g       *ABS*	00000000 ITCM_BASE
00004044 g     F RO_DATA	00000028 .hidden __floatunsisf
004006f4 g     O ZI_DATA	00000004 index_y
000044a4 g     F RO_DATA	00000018 .hidden __aeabi_cfcmpeq
00004588 g     F RO_DATA	00000014 .hidden __gnu_mulusq3
00002d38 g     F RO_DATA	000000ec start
004006f8 g     O ZI_DATA	00000004 end_count_read
004006fc g     O ZI_DATA	00000008 ANAvailMSR
000015a8 g     F RO_DATA	00000034 exp_series
00004604 g     F RO_DATA	00000024 .hidden __gnu_saturate1usq
000046d8 g       RO_DATA	00000000 __init_array_start
0000171c g     F RO_DATA	0000005c lo_approx
00004534 g     F RO_DATA	00000054 .hidden __fixunssfsi
004009a4 g     O ZI_DATA	00000040 callback
000017bc g     F RO_DATA	00000078 tail_approx
00001b34 g     F RO_DATA	0000001c sark_call_cpp_constructors
000014ec g     F RO_DATA	00000068 poisson_dist_variate
000023d0 g     F RO_DATA	000000ec io_put_char
0000388c g     F RO_DATA	00000040 .hidden __aeabi_f2d
00004648 g     F RO_DATA	00000008 .hidden __gnu_fractusqsa
00400704 g     O ZI_DATA	00000004 Fs
0000352c g     F RO_DATA	00000314 .hidden __subdf3
00000efc g     F RO_DATA	000000b4 transfer_handler
000001c8 g     F RO_DATA	00000000 spin1_int_disable
00400708 g     O ZI_DATA	00000004 dtcm_profile_buffer
00003e88 g     F RO_DATA	000001bc .hidden __addsf3
00001d70 g     F RO_DATA	00000062 sark_cmd_read
000009a4 g       *ABS*	00000000 ZI_LENGTH
00004c04 g       RW_DATA	00000000 RO_LENGTH
0040070c g     O ZI_DATA	00000018 CaCurrHSR
00001a8c g     F RO_DATA	00000030 sark_msg_get
004009e4 g     O ZI_DATA	000000c8 tx_packet_queue



Disassembly of section RO_DATA:

00000000 <cpu_reset>:
       0:	e59ff018 	ldr	pc, [pc, #24]	; 20 <reset_vec>

00000004 <undef>:
       4:	e59ff018 	ldr	pc, [pc, #24]	; 24 <undef_vec>
       8:	e59ff018 	ldr	pc, [pc, #24]	; 28 <svc_vec>
       c:	e59ff018 	ldr	pc, [pc, #24]	; 2c <pabt_vec>
      10:	e59ff018 	ldr	pc, [pc, #24]	; 30 <dabt_vec>
      14:	ebfffffa 	bl	4 <undef>
      18:	e51ffff0 	ldr	pc, [pc, #-4080]	; fffff030 <ROM_TOP+0x9ff7030>
      1c:	e59ff018 	ldr	pc, [pc, #24]	; 3c <fiq_vec>

00000020 <reset_vec>:
      20:	00000078 	.word	0x00000078

00000024 <undef_vec>:
      24:	000000d8 	.word	0x000000d8

00000028 <svc_vec>:
      28:	000000e0 	.word	0x000000e0

0000002c <pabt_vec>:
      2c:	000000e8 	.word	0x000000e8

00000030 <dabt_vec>:
      30:	000000f0 	.word	0x000000f0

00000034 <aplx_proc>:
      34:	00000361 	.word	0x00000361

00000038 <irq_vec>:
      38:	000000f8 	.word	0x000000f8

0000003c <fiq_vec>:
      3c:	00000100 	.word	0x00000100

00000040 <svc_stack>:
      40:	0060      	.short	0x0060

00000042 <irq_stack>:
      42:	0040      	.short	0x0040

00000044 <fiq_stack>:
      44:	0040      	.short	0x0040

00000046 <stack_size>:
      46:	0800      	.short	0x0800

00000048 <code_top>:
      48:	00004c04 	.word	0x00004c04

0000004c <heap_base>:
      4c:	00400aac 	.word	0x00400aac

00000050 <stack_top>:
      50:	00410000 	.word	0x00410000

00000054 <stack_fill>:
      54:	deaddead 	.word	0xdeaddead

00000058 <num_msgs>:
      58:	04          	.byte	0x04

00000059 <sark_slot>:
      59:	0f          	.byte	0x0f

0000005a <num_events>:
      5a:	10          	.byte	0x10

0000005b <api>:
	...

0000005c <app_id>:
	...

0000005d <app_flags>:
	...

0000005e <__PAD>:
	...

00000060 <event_vec>:
	...

00000078 <reset_entry>:
      78:	e24f1060 	sub	r1, pc, #96	; 0x60
      7c:	e1c103bc 	strh	r0, [r1, #60]	; 0x3c
      80:	e28f0048 	add	r0, pc, #72	; 0x48
      84:	e5810000 	str	r0, [r1]
      88:	e59f00f4 	ldr	r0, [pc, #244]	; 184 <DMA_CRCT+0x4>
      8c:	ee010f10 	mcr	15, 0, r0, cr1, cr0, {0}
      90:	e321f0d3 	msr	CPSR_c, #211	; 0xd3
      94:	e3a0d902 	mov	sp, #32768	; 0x8000
      98:	fa0000ab 	blx	34c <sark_config>
      9c:	e51fd054 	ldr	sp, [pc, #-84]	; 50 <stack_top>
      a0:	e15f26b2 	ldrh	r2, [pc, #-98]	; 46 <stack_size>
      a4:	e51f1058 	ldr	r1, [pc, #-88]	; 54 <stack_fill>
      a8:	e04d0002 	sub	r0, sp, r2
      ac:	eb000060 	bl	234 <sark_word_set>
      b0:	e1a0000d 	mov	r0, sp
      b4:	fa0006a5 	blx	1b50 <sark_init>
      b8:	e121f000 	msr	CPSR_c, r0
      bc:	fa000761 	blx	1e48 <sark_wait>
      c0:	fa000bed 	blx	307c <sark_pre_main>
      c4:	eb0003dd 	bl	1040 <c_main>
      c8:	fa000bf7 	blx	30ac <sark_post_main>
      cc:	eb00002a 	bl	17c <cpu_sleep>

000000d0 <reset_error>:
      d0:	e3a00001 	mov	r0, #1
      d4:	ea000014 	b	12c <rt_error>

000000d8 <undef_error>:
      d8:	e3a0b002 	mov	fp, #2
      dc:	ea00000c 	b	114 <exc_error>

000000e0 <svc_error>:
      e0:	e3a0b003 	mov	fp, #3
      e4:	ea00000a 	b	114 <exc_error>

000000e8 <pabt_error>:
      e8:	e3a0b004 	mov	fp, #4
      ec:	ea000008 	b	114 <exc_error>

000000f0 <dabt_error>:
      f0:	e3a0b005 	mov	fp, #5
      f4:	ea000006 	b	114 <exc_error>

000000f8 <irq_error>:
      f8:	e3a0b006 	mov	fp, #6
      fc:	ea000004 	b	114 <exc_error>

00000100 <fiq_error>:
     100:	e3a0b007 	mov	fp, #7
     104:	ea000002 	b	114 <exc_error>

00000108 <vic_error>:
     108:	e3a0b008 	mov	fp, #8
     10c:	e3a0042f 	mov	r0, #788529152	; 0x2f000000
     110:	e5900030 	ldr	r0, [r0, #48]	; 0x30

00000114 <exc_error>:
     114:	e1a0a00e 	mov	sl, lr
     118:	e14f8000 	mrs	r8, SPSR
     11c:	e38890c0 	orr	r9, r8, #192	; 0xc0
     120:	e3c99020 	bic	r9, r9, #32
     124:	e12ff009 	msr	CPSR_fsxc, r9
     128:	ea000002 	b	138 <cc_error>

0000012c <rt_error>:
     12c:	e1a0b000 	mov	fp, r0
     130:	e10f8000 	mrs	r8, CPSR
     134:	e1a0a00e 	mov	sl, lr

00000138 <cc_error>:
     138:	e59fc048 	ldr	ip, [pc, #72]	; 188 <DMA_CRCT+0x8>
     13c:	e59cc000 	ldr	ip, [ip]
     140:	e3a09080 	mov	r9, #128	; 0x80
     144:	e59fe040 	ldr	lr, [pc, #64]	; 18c <DMA_CRCT+0xc>
     148:	e02ee99c 	mla	lr, ip, r9, lr
     14c:	e1a0900d 	mov	r9, sp
     150:	e88e07ff 	stm	lr, {r0, r1, r2, r3, r4, r5, r6, r7, r8, r9, sl}
     154:	e5ceb02c 	strb	fp, [lr, #44]	; 0x2c
     158:	e3a08002 	mov	r8, #2
     15c:	e5ce802e 	strb	r8, [lr, #46]	; 0x2e
     160:	e1a0000b 	mov	r0, fp
     164:	e321f0d3 	msr	CPSR_c, #211	; 0xd3
     168:	fa000633 	blx	1a3c <rte_handler>

0000016c <cpu_shutdown>:
     16c:	e321f0d3 	msr	CPSR_c, #211	; 0xd3
     170:	e3a0042f 	mov	r0, #788529152	; 0x2f000000
     174:	e3e01000 	mvn	r1, #0
     178:	e5801014 	str	r1, [r0, #20]

0000017c <cpu_sleep>:
     17c:	ee070f90 	mcr	15, 0, r0, cr7, cr0, {4}
     180:	eafffffd 	b	17c <cpu_sleep>
     184:	00001f7e 	.word	0x00001f7e
     188:	00400724 	.word	0x00400724
     18c:	e5007000 	.word	0xe5007000

00000190 <cpu_init_mode>:
     190:	e10f3000 	mrs	r3, CPSR
     194:	e121f001 	msr	CPSR_c, r1
     198:	e1a0d000 	mov	sp, r0
     19c:	e12ff003 	msr	CPSR_fsxc, r3
     1a0:	e0400102 	sub	r0, r0, r2, lsl #2
     1a4:	e12fff1e 	bx	lr

000001a8 <cpu_irq_disable>:
     1a8:	e10f0000 	mrs	r0, CPSR
     1ac:	e3801080 	orr	r1, r0, #128	; 0x80
     1b0:	e121f001 	msr	CPSR_c, r1
     1b4:	e12fff1e 	bx	lr

000001b8 <cpu_int_enable>:
     1b8:	e10f0000 	mrs	r0, CPSR
     1bc:	e3c010c0 	bic	r1, r0, #192	; 0xc0
     1c0:	e121f001 	msr	CPSR_c, r1
     1c4:	e12fff1e 	bx	lr

000001c8 <cpu_int_disable>:
     1c8:	e10f0000 	mrs	r0, CPSR
     1cc:	e38010c0 	orr	r1, r0, #192	; 0xc0
     1d0:	e121f001 	msr	CPSR_c, r1
     1d4:	e12fff1e 	bx	lr

000001d8 <cpu_int_restore>:
     1d8:	e12ff000 	msr	CPSR_fsxc, r0
     1dc:	e12fff1e 	bx	lr

000001e0 <cpu_wfi>:
     1e0:	ee070f90 	mcr	15, 0, r0, cr7, cr0, {4}
     1e4:	e12fff1e 	bx	lr

000001e8 <sark_lock_get>:
     1e8:	e3a0c4e2 	mov	ip, #-503316480	; 0xe2000000
     1ec:	e08cc100 	add	ip, ip, r0, lsl #2
     1f0:	e10f0000 	mrs	r0, CPSR
     1f4:	e38010c0 	orr	r1, r0, #192	; 0xc0
     1f8:	e121f001 	msr	CPSR_c, r1

000001fc <lg1>:
     1fc:	e59c1100 	ldr	r1, [ip, #256]	; 0x100
     200:	e3110102 	tst	r1, #-2147483648	; 0x80000000
     204:	1afffffc 	bne	1fc <lg1>
     208:	e12fff1e 	bx	lr

0000020c <sark_lock_free>:
     20c:	e3a0c4e2 	mov	ip, #-503316480	; 0xe2000000
     210:	e08c1101 	add	r1, ip, r1, lsl #2
     214:	e5911180 	ldr	r1, [r1, #384]	; 0x180
     218:	e121f000 	msr	CPSR_c, r0
     21c:	e12fff1e 	bx	lr

00000220 <sark_str_cpy>:
     220:	e4d12001 	ldrb	r2, [r1], #1
     224:	e3520000 	cmp	r2, #0
     228:	e4c02001 	strb	r2, [r0], #1
     22c:	1afffffb 	bne	220 <sark_str_cpy>
     230:	e12fff1e 	bx	lr

00000234 <sark_word_set>:
     234:	e1a03001 	mov	r3, r1

00000238 <ws1>:
     238:	e2522010 	subs	r2, r2, #16
     23c:	28a0000a 	stmiacs	r0!, {r1, r3}
     240:	28a0000a 	stmiacs	r0!, {r1, r3}
     244:	2afffffb 	bcs	238 <ws1>
     248:	e1b02e82 	lsls	r2, r2, #29
     24c:	28a0000a 	stmiacs	r0!, {r1, r3}
     250:	48a00002 	stmiami	r0!, {r1}
     254:	e12fff1e 	bx	lr

00000258 <sark_msg_cpy>:
     258:	e2800004 	add	r0, r0, #4
     25c:	e2811004 	add	r1, r1, #4
     260:	e1d120b0 	ldrh	r2, [r1]
     264:	e2822004 	add	r2, r2, #4

00000268 <sark_word_cpy>:
     268:	e3120003 	tst	r2, #3
     26c:	13c22003 	bicne	r2, r2, #3
     270:	12822004 	addne	r2, r2, #4
     274:	e92d4010 	push	{r4, lr}
     278:	e2522020 	subs	r2, r2, #32
     27c:	3a000005 	bcc	298 <wc2>

00000280 <wc1>:
     280:	e8b15018 	ldm	r1!, {r3, r4, ip, lr}
     284:	e8a05018 	stmia	r0!, {r3, r4, ip, lr}
     288:	e8b15018 	ldm	r1!, {r3, r4, ip, lr}
     28c:	e8a05018 	stmia	r0!, {r3, r4, ip, lr}
     290:	e2522020 	subs	r2, r2, #32
     294:	2afffff9 	bcs	280 <wc1>

00000298 <wc2>:
     298:	e1b0ce02 	lsls	ip, r2, #28
     29c:	28b15018 	ldmcs	r1!, {r3, r4, ip, lr}
     2a0:	28a05018 	stmiacs	r0!, {r3, r4, ip, lr}
     2a4:	48b10018 	ldmmi	r1!, {r3, r4}
     2a8:	48a00018 	stmiami	r0!, {r3, r4}
     2ac:	e1b0cf02 	lsls	ip, r2, #30
     2b0:	24913004 	ldrcs	r3, [r1], #4
     2b4:	24803004 	strcs	r3, [r0], #4
     2b8:	e8bd8010 	pop	{r4, pc}

000002bc <sark_div10>:
     2bc:	e241200a 	sub	r2, r1, #10
     2c0:	e0411121 	sub	r1, r1, r1, lsr #2
     2c4:	e0811221 	add	r1, r1, r1, lsr #4
     2c8:	e0811421 	add	r1, r1, r1, lsr #8
     2cc:	e0811821 	add	r1, r1, r1, lsr #16
     2d0:	e1a011a1 	lsr	r1, r1, #3
     2d4:	e0813101 	add	r3, r1, r1, lsl #2
     2d8:	e0522083 	subs	r2, r2, r3, lsl #1
     2dc:	52811001 	addpl	r1, r1, #1
     2e0:	4282200a 	addmi	r2, r2, #10
     2e4:	e8800006 	stm	r0, {r1, r2}
     2e8:	e12fff1e 	bx	lr

000002ec <sark_int_han>:
     2ec:	e92d500f 	push	{r0, r1, r2, r3, ip, lr}
     2f0:	e24e0004 	sub	r0, lr, #4
     2f4:	e14fc000 	mrs	ip, SPSR
     2f8:	e321f01f 	msr	CPSR_c, #31
     2fc:	e92d5000 	push	{ip, lr}
     300:	fa0006d5 	blx	1e5c <sark_int>
     304:	e8bd5000 	pop	{ip, lr}
     308:	e321f092 	msr	CPSR_c, #146	; 0x92
     30c:	e16ff00c 	msr	SPSR_fsxc, ip
     310:	e3a0042f 	mov	r0, #788529152	; 0x2f000000
     314:	e5800030 	str	r0, [r0, #48]	; 0x30
     318:	e8bd500f 	pop	{r0, r1, r2, r3, ip, lr}

0000031c <null_int_han>:
     31c:	e25ef004 	subs	pc, lr, #4

00000320 <schedule>:
     320:	e92d5000 	push	{ip, lr}
     324:	e10fc000 	mrs	ip, CPSR
     328:	e3cce01f 	bic	lr, ip, #31
     32c:	e38ee01f 	orr	lr, lr, #31
     330:	e121f00e 	msr	CPSR_c, lr
     334:	e92d5000 	push	{ip, lr}
     338:	fa000b2c 	blx	2ff0 <schedule_sysmode>
     33c:	e8bd5000 	pop	{ip, lr}
     340:	e121f00c 	msr	CPSR_c, ip
     344:	e8bd5000 	pop	{ip, lr}
     348:	e12fff1e 	bx	lr

0000034c <sark_config>:
     34c:	4770      	bx	lr

0000034e <sark_bx>:
     34e:	4700      	bx	r0

00000350 <__gnu_thumb1_case_uqi>:
     350:	468c      	mov	ip, r1
     352:	4671      	mov	r1, lr
     354:	3901      	subs	r1, #1
     356:	5c09      	ldrb	r1, [r1, r0]
     358:	0049      	lsls	r1, r1, #1
     35a:	448e      	add	lr, r1
     35c:	4661      	mov	r1, ip
     35e:	4770      	bx	lr

00000360 <sark_aplx>:
     360:	b5f2      	push	{r1, r4, r5, r6, r7, lr}
     362:	4905      	ldr	r1, [pc, #20]	; (378 <aplx_buffer>)
     364:	a605      	add	r6, pc, #20	; (adr r6, 37c <aplx_loader>)
     366:	2740      	movs	r7, #64	; 0x40

00000368 <aplx_l0>:
     368:	ce3c      	ldmia	r6!, {r2, r3, r4, r5}
     36a:	c13c      	stmia	r1!, {r2, r3, r4, r5}
     36c:	3f10      	subs	r7, #16
     36e:	d1fb      	bne.n	368 <aplx_l0>
     370:	1c04      	adds	r4, r0, #0
     372:	393f      	subs	r1, #63	; 0x3f
     374:	4708      	bx	r1
	...

00000378 <aplx_buffer>:
     378:	00007fc0 	.word	0x00007fc0

0000037c <aplx_loader>:
     37c:	cc0f      	ldmia	r4!, {r0, r1, r2, r3}
     37e:	2801      	cmp	r0, #1
     380:	d008      	beq.n	394 <aplx_copy>
     382:	2802      	cmp	r0, #2
     384:	d004      	beq.n	390 <aplx_rcopy>
     386:	2803      	cmp	r0, #3
     388:	d00b      	beq.n	3a2 <aplx_fill>
     38a:	2804      	cmp	r0, #4
     38c:	d011      	beq.n	3b2 <aplx_exec>
     38e:	bdf2      	pop	{r1, r4, r5, r6, r7, pc}

00000390 <aplx_rcopy>:
     390:	1912      	adds	r2, r2, r4
     392:	3a10      	subs	r2, #16

00000394 <aplx_copy>:
     394:	cae1      	ldmia	r2!, {r0, r5, r6, r7}
     396:	c1e1      	stmia	r1!, {r0, r5, r6, r7}
     398:	cae1      	ldmia	r2!, {r0, r5, r6, r7}
     39a:	c1e1      	stmia	r1!, {r0, r5, r6, r7}
     39c:	3b20      	subs	r3, #32
     39e:	d8f9      	bhi.n	394 <aplx_copy>
     3a0:	e7ec      	b.n	37c <aplx_loader>

000003a2 <aplx_fill>:
     3a2:	1c1d      	adds	r5, r3, #0
     3a4:	1c1e      	adds	r6, r3, #0
     3a6:	1c1f      	adds	r7, r3, #0

000003a8 <aplx_l1>:
     3a8:	c1e8      	stmia	r1!, {r3, r5, r6, r7}
     3aa:	c1e8      	stmia	r1!, {r3, r5, r6, r7}
     3ac:	3a20      	subs	r2, #32
     3ae:	d8fb      	bhi.n	3a8 <aplx_l1>
     3b0:	e7e4      	b.n	37c <aplx_loader>

000003b2 <aplx_exec>:
     3b2:	9800      	ldr	r0, [sp, #0]
     3b4:	4788      	blx	r1
     3b6:	e7e1      	b.n	37c <aplx_loader>

000003b8 <data_read>:
     3b8:	e59f309c 	ldr	r3, [pc, #156]	; 45c <MC_TABLE_SIZE+0x5c>
     3bc:	e3a02421 	mov	r2, #553648128	; 0x21000000
     3c0:	e593c000 	ldr	ip, [r3]
     3c4:	e59f3094 	ldr	r3, [pc, #148]	; 460 <MC_TABLE_SIZE+0x60>
     3c8:	e5922024 	ldr	r2, [r2, #36]	; 0x24
     3cc:	e35c0001 	cmp	ip, #1
     3d0:	e92d4030 	push	{r4, r5, lr}
     3d4:	e1a04000 	mov	r4, r0
     3d8:	e24dd00c 	sub	sp, sp, #12
     3dc:	e5832000 	str	r2, [r3]
     3e0:	0a00000a 	beq	410 <MC_TABLE_SIZE+0x10>
     3e4:	e35400c5 	cmp	r4, #197	; 0xc5
     3e8:	8a000001 	bhi	3f4 <data_read+0x3c>
     3ec:	e28dd00c 	add	sp, sp, #12
     3f0:	e8bd8030 	pop	{r4, r5, pc}
     3f4:	e59f1068 	ldr	r1, [pc, #104]	; 464 <MC_TABLE_SIZE+0x64>
     3f8:	e3a00002 	mov	r0, #2
     3fc:	fa00085f 	blx	2580 <io_printf>
     400:	e3a00000 	mov	r0, #0
     404:	e28dd00c 	add	sp, sp, #12
     408:	e8bd4030 	pop	{r4, r5, lr}
     40c:	ea0010ad 	b	46c8 <__spin1_exit_from_arm>
     410:	e59fe050 	ldr	lr, [pc, #80]	; 468 <MC_TABLE_SIZE+0x68>
     414:	e59f1050 	ldr	r1, [pc, #80]	; 46c <MC_TABLE_SIZE+0x6c>
     418:	e59e3000 	ldr	r3, [lr]
     41c:	e5911000 	ldr	r1, [r1]
     420:	e3530000 	cmp	r3, #0
     424:	059f3044 	ldreq	r3, [pc, #68]	; 470 <MC_TABLE_SIZE+0x70>
     428:	159f3044 	ldrne	r3, [pc, #68]	; 474 <MC_TABLE_SIZE+0x74>
     42c:	e3a00e19 	mov	r0, #400	; 0x190
     430:	e5932000 	ldr	r2, [r3]
     434:	e59f303c 	ldr	r3, [pc, #60]	; 478 <MC_TABLE_SIZE+0x78>
     438:	13a0c000 	movne	ip, #0
     43c:	e5935000 	ldr	r5, [r3]
     440:	e3a03000 	mov	r3, #0
     444:	e58d0000 	str	r0, [sp]
     448:	e0211590 	mla	r1, r0, r5, r1
     44c:	e58ec000 	str	ip, [lr]
     450:	e1a00003 	mov	r0, r3
     454:	fa000a75 	blx	2e30 <spin1_dma_transfer>
     458:	eaffffe1 	b	3e4 <data_read+0x2c>
     45c:	0040063c 	.word	0x0040063c
     460:	0040066c 	.word	0x0040066c
     464:	000046d8 	.word	0x000046d8
     468:	00400528 	.word	0x00400528
     46c:	00400518 	.word	0x00400518
     470:	0040067c 	.word	0x0040067c
     474:	00400638 	.word	0x00400638
     478:	00400644 	.word	0x00400644

0000047c <generateStartupVars>:
     47c:	e59fc078 	ldr	ip, [pc, #120]	; 4fc <generateStartupVars+0x80>
     480:	e59f1078 	ldr	r1, [pc, #120]	; 500 <generateStartupVars+0x84>
     484:	e59f2078 	ldr	r2, [pc, #120]	; 504 <generateStartupVars+0x88>
     488:	e92d4030 	push	{r4, r5, lr}
     48c:	e580c000 	str	ip, [r0]
     490:	e59f5070 	ldr	r5, [pc, #112]	; 508 <generateStartupVars+0x8c>
     494:	e59f4070 	ldr	r4, [pc, #112]	; 50c <generateStartupVars+0x90>
     498:	e59fe070 	ldr	lr, [pc, #112]	; 510 <generateStartupVars+0x94>
     49c:	e59fc070 	ldr	ip, [pc, #112]	; 514 <generateStartupVars+0x98>
     4a0:	e5801004 	str	r1, [r0, #4]
     4a4:	e5802008 	str	r2, [r0, #8]
     4a8:	e59f1068 	ldr	r1, [pc, #104]	; 518 <generateStartupVars+0x9c>
     4ac:	e59f2068 	ldr	r2, [pc, #104]	; 51c <generateStartupVars+0xa0>
     4b0:	e580500c 	str	r5, [r0, #12]
     4b4:	e5804010 	str	r4, [r0, #16]
     4b8:	e3a05441 	mov	r5, #1090519040	; 0x41000000
     4bc:	e59f405c 	ldr	r4, [pc, #92]	; 520 <generateStartupVars+0xa4>
     4c0:	e580e014 	str	lr, [r0, #20]
     4c4:	e580c018 	str	ip, [r0, #24]
     4c8:	e59fe054 	ldr	lr, [pc, #84]	; 524 <generateStartupVars+0xa8>
     4cc:	e59fc054 	ldr	ip, [pc, #84]	; 528 <generateStartupVars+0xac>
     4d0:	e580101c 	str	r1, [r0, #28]
     4d4:	e5802020 	str	r2, [r0, #32]
     4d8:	e59f104c 	ldr	r1, [pc, #76]	; 52c <generateStartupVars+0xb0>
     4dc:	e59f204c 	ldr	r2, [pc, #76]	; 530 <generateStartupVars+0xb4>
     4e0:	e5805024 	str	r5, [r0, #36]	; 0x24
     4e4:	e5804028 	str	r4, [r0, #40]	; 0x28
     4e8:	e580e02c 	str	lr, [r0, #44]	; 0x2c
     4ec:	e580c030 	str	ip, [r0, #48]	; 0x30
     4f0:	e5801034 	str	r1, [r0, #52]	; 0x34
     4f4:	e5802038 	str	r2, [r0, #56]	; 0x38
     4f8:	e8bd8030 	pop	{r4, r5, pc}
     4fc:	3e063911 	.word	0x3e063911
     500:	a0a859a8 	.word	0xa0a859a8
     504:	a2134e73 	.word	0xa2134e73
     508:	a383860b 	.word	0xa383860b
     50c:	a0c25596 	.word	0xa0c25596
     510:	a50c340f 	.word	0xa50c340f
     514:	a8e419b9 	.word	0xa8e419b9
     518:	41500000 	.word	0x41500000
     51c:	41600000 	.word	0x41600000
     520:	a4a67fff 	.word	0xa4a67fff
     524:	a8f03e8a 	.word	0xa8f03e8a
     528:	acc36e0a 	.word	0xacc36e0a
     52c:	bd9ba5e3 	.word	0xbd9ba5e3
     530:	bd785f80 	.word	0xbd785f80

00000534 <app_init>:
     534:	e92d4ff0 	push	{r4, r5, r6, r7, r8, r9, sl, fp, lr}
     538:	e59f55f0 	ldr	r5, [pc, #1520]	; b30 <ZI_LENGTH+0x18c>
     53c:	e59f65f0 	ldr	r6, [pc, #1520]	; b34 <ZI_LENGTH+0x190>
     540:	e59f15f0 	ldr	r1, [pc, #1520]	; b38 <ZI_LENGTH+0x194>
     544:	e59f05f0 	ldr	r0, [pc, #1520]	; b3c <ZI_LENGTH+0x198>
     548:	e59f35f0 	ldr	r3, [pc, #1520]	; b40 <ZI_LENGTH+0x19c>
     54c:	e59f75f0 	ldr	r7, [pc, #1520]	; b44 <ZI_LENGTH+0x1a0>
     550:	e59fc5f0 	ldr	ip, [pc, #1520]	; b48 <ZI_LENGTH+0x1a4>
     554:	e59f45f0 	ldr	r4, [pc, #1520]	; b4c <ZI_LENGTH+0x1a8>
     558:	e59fe5f0 	ldr	lr, [pc, #1520]	; b50 <ZI_LENGTH+0x1ac>
     55c:	e5853000 	str	r3, [r5]
     560:	e3a03000 	mov	r3, #0
     564:	e24dd00c 	sub	sp, sp, #12
     568:	e5813000 	str	r3, [r1]
     56c:	e5803000 	str	r3, [r0]
     570:	e587e000 	str	lr, [r7]
     574:	e5962000 	ldr	r2, [r6]
     578:	e59fe5d4 	ldr	lr, [pc, #1492]	; b54 <ZI_LENGTH+0x1b0>
     57c:	e59f15d4 	ldr	r1, [pc, #1492]	; b58 <ZI_LENGTH+0x1b4>
     580:	e3a00002 	mov	r0, #2
     584:	e58ce000 	str	lr, [ip]
     588:	e5843000 	str	r3, [r4]
     58c:	fa0007fb 	blx	2580 <io_printf>
     590:	e5962000 	ldr	r2, [r6]
     594:	e59f15c0 	ldr	r1, [pc, #1472]	; b5c <ZI_LENGTH+0x1b8>
     598:	e3a00002 	mov	r0, #2
     59c:	fa0007f7 	blx	2580 <io_printf>
     5a0:	e5950000 	ldr	r0, [r5]
     5a4:	eb000fe2 	bl	4534 <__aeabi_f2uiz>
     5a8:	e5967000 	ldr	r7, [r6]
     5ac:	e59f45ac 	ldr	r4, [pc, #1452]	; b60 <ZI_LENGTH+0x1bc>
     5b0:	e3877020 	orr	r7, r7, #32
     5b4:	e3a03001 	mov	r3, #1
     5b8:	e1a02007 	mov	r2, r7
     5bc:	e59f95a0 	ldr	r9, [pc, #1440]	; b64 <ZI_LENGTH+0x1c0>
     5c0:	e59f85a0 	ldr	r8, [pc, #1440]	; b68 <ZI_LENGTH+0x1c4>
     5c4:	e59f75a0 	ldr	r7, [pc, #1440]	; b6c <ZI_LENGTH+0x1c8>
     5c8:	e0800100 	add	r0, r0, r0, lsl #2
     5cc:	e1a01180 	lsl	r1, r0, #3
     5d0:	e594004c 	ldr	r0, [r4, #76]	; 0x4c
     5d4:	fa00070a 	blx	2204 <sark_xalloc>
     5d8:	e5962000 	ldr	r2, [r6]
     5dc:	e382a040 	orr	sl, r2, #64	; 0x40
     5e0:	e5890000 	str	r0, [r9]
     5e4:	e5950000 	ldr	r0, [r5]
     5e8:	eb000fd1 	bl	4534 <__aeabi_f2uiz>
     5ec:	e59f157c 	ldr	r1, [pc, #1404]	; b70 <ZI_LENGTH+0x1cc>
     5f0:	e1a0200a 	mov	r2, sl
     5f4:	e0813190 	umull	r3, r1, r0, r1
     5f8:	e3a03001 	mov	r3, #1
     5fc:	e1a012a1 	lsr	r1, r1, #5
     600:	e0811081 	add	r1, r1, r1, lsl #1
     604:	e1a01101 	lsl	r1, r1, #2
     608:	e594004c 	ldr	r0, [r4, #76]	; 0x4c
     60c:	fa0006fc 	blx	2204 <sark_xalloc>
     610:	e59f355c 	ldr	r3, [pc, #1372]	; b74 <ZI_LENGTH+0x1d0>
     614:	e3a01004 	mov	r1, #4
     618:	e5830000 	str	r0, [r3]
     61c:	e3a00064 	mov	r0, #100	; 0x64
     620:	fa000729 	blx	22cc <sark_alloc>
     624:	e3a01004 	mov	r1, #4
     628:	e5880000 	str	r0, [r8]
     62c:	e3a00064 	mov	r0, #100	; 0x64
     630:	fa000725 	blx	22cc <sark_alloc>
     634:	e3a01004 	mov	r1, #4
     638:	e5870000 	str	r0, [r7]
     63c:	e59f0534 	ldr	r0, [pc, #1332]	; b78 <ZI_LENGTH+0x1d4>
     640:	fa000721 	blx	22cc <sark_alloc>
     644:	e5988000 	ldr	r8, [r8]
     648:	e59f352c 	ldr	r3, [pc, #1324]	; b7c <ZI_LENGTH+0x1d8>
     64c:	e3580000 	cmp	r8, #0
     650:	e5830000 	str	r0, [r3]
     654:	0a000047 	beq	778 <ETH_TX_SIZE+0x178>
     658:	e5972000 	ldr	r2, [r7]
     65c:	e3520000 	cmp	r2, #0
     660:	0a000044 	beq	778 <ETH_TX_SIZE+0x178>
     664:	e599a000 	ldr	sl, [r9]
     668:	e35a0000 	cmp	sl, #0
     66c:	0a000041 	beq	778 <ETH_TX_SIZE+0x178>
     670:	e59f34fc 	ldr	r3, [pc, #1276]	; b74 <ZI_LENGTH+0x1d0>
     674:	e1a04000 	mov	r4, r0
     678:	e5933000 	ldr	r3, [r3]
     67c:	e58d3004 	str	r3, [sp, #4]
     680:	e3530000 	cmp	r3, #0
     684:	13500000 	cmpne	r0, #0
     688:	0a00003a 	beq	778 <ETH_TX_SIZE+0x178>
     68c:	e59f04ec 	ldr	r0, [pc, #1260]	; b80 <ZI_LENGTH+0x1dc>
     690:	e3a0e001 	mov	lr, #1
     694:	e580e000 	str	lr, [r0]
     698:	e3a0c000 	mov	ip, #0
     69c:	e2422004 	sub	r2, r2, #4
     6a0:	e2483004 	sub	r3, r8, #4
     6a4:	e2880f63 	add	r0, r8, #396	; 0x18c
     6a8:	e5a3c004 	str	ip, [r3, #4]!
     6ac:	e1530000 	cmp	r3, r0
     6b0:	e5a2c004 	str	ip, [r2, #4]!
     6b4:	1afffffb 	bne	6a8 <ETH_TX_SIZE+0xa8>
     6b8:	e5950000 	ldr	r0, [r5]
     6bc:	eb000f9c 	bl	4534 <__aeabi_f2uiz>
     6c0:	e0800100 	add	r0, r0, r0, lsl #2
     6c4:	e1b03080 	lsls	r3, r0, #1
     6c8:	13a07000 	movne	r7, #0
     6cc:	124aa004 	subne	sl, sl, #4
     6d0:	13a0b000 	movne	fp, #0
     6d4:	0a000006 	beq	6f4 <ETH_TX_SIZE+0xf4>
     6d8:	e5aa7004 	str	r7, [sl, #4]!
     6dc:	e5950000 	ldr	r0, [r5]
     6e0:	eb000f93 	bl	4534 <__aeabi_f2uiz>
     6e4:	e28bb001 	add	fp, fp, #1
     6e8:	e0800100 	add	r0, r0, r0, lsl #2
     6ec:	e15b0080 	cmp	fp, r0, lsl #1
     6f0:	3afffff8 	bcc	6d8 <ETH_TX_SIZE+0xd8>
     6f4:	e59d3004 	ldr	r3, [sp, #4]
     6f8:	e2841e93 	add	r1, r4, #2352	; 0x930
     6fc:	e2432004 	sub	r2, r3, #4
     700:	e2811008 	add	r1, r1, #8
     704:	e2444004 	sub	r4, r4, #4
     708:	e3a03000 	mov	r3, #0
     70c:	e5a43004 	str	r3, [r4, #4]!
     710:	e1540001 	cmp	r4, r1
     714:	e5a23004 	str	r3, [r2, #4]!
     718:	1afffffb 	bne	70c <ETH_TX_SIZE+0x10c>
     71c:	e1a03008 	mov	r3, r8
     720:	e5962000 	ldr	r2, [r6]
     724:	e59f1458 	ldr	r1, [pc, #1112]	; b84 <ZI_LENGTH+0x1e0>
     728:	e3a00002 	mov	r0, #2
     72c:	fa000793 	blx	2580 <io_printf>
     730:	e59f3450 	ldr	r3, [pc, #1104]	; b88 <ZI_LENGTH+0x1e4>
     734:	e5962000 	ldr	r2, [r6]
     738:	e5933000 	ldr	r3, [r3]
     73c:	e59f1448 	ldr	r1, [pc, #1096]	; b8c <ZI_LENGTH+0x1e8>
     740:	e3a00002 	mov	r0, #2
     744:	fa00078d 	blx	2580 <io_printf>
     748:	e5993000 	ldr	r3, [r9]
     74c:	e5962000 	ldr	r2, [r6]
     750:	e59f1438 	ldr	r1, [pc, #1080]	; b90 <ZI_LENGTH+0x1ec>
     754:	e3a00002 	mov	r0, #2
     758:	fa000788 	blx	2580 <io_printf>
     75c:	e59f3410 	ldr	r3, [pc, #1040]	; b74 <ZI_LENGTH+0x1d0>
     760:	e5962000 	ldr	r2, [r6]
     764:	e5933000 	ldr	r3, [r3]
     768:	e59f1424 	ldr	r1, [pc, #1060]	; b94 <ZI_LENGTH+0x1f0>
     76c:	e3a00002 	mov	r0, #2
     770:	fa000782 	blx	2580 <io_printf>
     774:	ea000006 	b	794 <ETH_TX_SIZE+0x194>
     778:	e59f3400 	ldr	r3, [pc, #1024]	; b80 <ZI_LENGTH+0x1dc>
     77c:	e3a0c000 	mov	ip, #0
     780:	e5962000 	ldr	r2, [r6]
     784:	e59f140c 	ldr	r1, [pc, #1036]	; b98 <ZI_LENGTH+0x1f4>
     788:	e3a00002 	mov	r0, #2
     78c:	e583c000 	str	ip, [r3]
     790:	fa00077a 	blx	2580 <io_printf>
     794:	e59f4400 	ldr	r4, [pc, #1024]	; b9c <ZI_LENGTH+0x1f8>
     798:	e59f2400 	ldr	r2, [pc, #1024]	; ba0 <ZI_LENGTH+0x1fc>
     79c:	e59f3400 	ldr	r3, [pc, #1024]	; ba4 <ZI_LENGTH+0x200>
     7a0:	e59f8400 	ldr	r8, [pc, #1024]	; ba8 <ZI_LENGTH+0x204>
     7a4:	e59f7400 	ldr	r7, [pc, #1024]	; bac <ZI_LENGTH+0x208>
     7a8:	e59f6400 	ldr	r6, [pc, #1024]	; bb0 <ZI_LENGTH+0x20c>
     7ac:	e59fe400 	ldr	lr, [pc, #1024]	; bb4 <ZI_LENGTH+0x210>
     7b0:	e59fc400 	ldr	ip, [pc, #1024]	; bb8 <ZI_LENGTH+0x214>
     7b4:	e59f0400 	ldr	r0, [pc, #1024]	; bbc <ZI_LENGTH+0x218>
     7b8:	e59f1400 	ldr	r1, [pc, #1024]	; bc0 <ZI_LENGTH+0x21c>
     7bc:	e5842000 	str	r2, [r4]
     7c0:	e5843004 	str	r3, [r4, #4]
     7c4:	e59f23f8 	ldr	r2, [pc, #1016]	; bc4 <ZI_LENGTH+0x220>
     7c8:	e59f33f8 	ldr	r3, [pc, #1016]	; bc8 <ZI_LENGTH+0x224>
     7cc:	e5848008 	str	r8, [r4, #8]
     7d0:	e584700c 	str	r7, [r4, #12]
     7d4:	e59f83f0 	ldr	r8, [pc, #1008]	; bcc <ZI_LENGTH+0x228>
     7d8:	e59f73f0 	ldr	r7, [pc, #1008]	; bd0 <ZI_LENGTH+0x22c>
     7dc:	e5846010 	str	r6, [r4, #16]
     7e0:	e59f53ec 	ldr	r5, [pc, #1004]	; bd4 <ZI_LENGTH+0x230>
     7e4:	e3a06441 	mov	r6, #1090519040	; 0x41000000
     7e8:	e5845014 	str	r5, [r4, #20]
     7ec:	e584e018 	str	lr, [r4, #24]
     7f0:	e584c028 	str	ip, [r4, #40]	; 0x28
     7f4:	e584002c 	str	r0, [r4, #44]	; 0x2c
     7f8:	e5841030 	str	r1, [r4, #48]	; 0x30
     7fc:	e5842034 	str	r2, [r4, #52]	; 0x34
     800:	e5843038 	str	r3, [r4, #56]	; 0x38
     804:	e584801c 	str	r8, [r4, #28]
     808:	e5847020 	str	r7, [r4, #32]
     80c:	e5846024 	str	r6, [r4, #36]	; 0x24
     810:	eb00024a 	bl	1140 <init_WELL1024a_simp>
     814:	e59f3328 	ldr	r3, [pc, #808]	; b44 <ZI_LENGTH+0x1a0>
     818:	e59f53b8 	ldr	r5, [pc, #952]	; bd8 <ZI_LENGTH+0x234>
     81c:	e5939000 	ldr	r9, [r3]
     820:	e59f33b4 	ldr	r3, [pc, #948]	; bdc <ZI_LENGTH+0x238>
     824:	e5853000 	str	r3, [r5]
     828:	e59f23b0 	ldr	r2, [pc, #944]	; be0 <ZI_LENGTH+0x23c>
     82c:	e59f33b0 	ldr	r3, [pc, #944]	; be4 <ZI_LENGTH+0x240>
     830:	e59fe3b0 	ldr	lr, [pc, #944]	; be8 <ZI_LENGTH+0x244>
     834:	e59fc3b0 	ldr	ip, [pc, #944]	; bec <ZI_LENGTH+0x248>
     838:	e5852004 	str	r2, [r5, #4]
     83c:	e5853008 	str	r3, [r5, #8]
     840:	e59f23a8 	ldr	r2, [pc, #936]	; bf0 <ZI_LENGTH+0x24c>
     844:	e59f33a8 	ldr	r3, [pc, #936]	; bf4 <ZI_LENGTH+0x250>
     848:	e59f13a8 	ldr	r1, [pc, #936]	; bf8 <ZI_LENGTH+0x254>
     84c:	e585e00c 	str	lr, [r5, #12]
     850:	e585c010 	str	ip, [r5, #16]
     854:	e5852018 	str	r2, [r5, #24]
     858:	e585301c 	str	r3, [r5, #28]
     85c:	e1a00009 	mov	r0, r9
     860:	e5851014 	str	r1, [r5, #20]
     864:	eb000c08 	bl	388c <__aeabi_f2d>
     868:	e3a024a2 	mov	r2, #-1577058304	; 0xa2000000
     86c:	e59f3388 	ldr	r3, [pc, #904]	; bfc <ZI_LENGTH+0x258>
     870:	eb000c32 	bl	3940 <__aeabi_dmul>
     874:	eb000d58 	bl	3ddc <__aeabi_d2f>
     878:	e59fb380 	ldr	fp, [pc, #896]	; c00 <ETH_RX_SIZE>
     87c:	e585b024 	str	fp, [r5, #36]	; 0x24
     880:	e59fb37c 	ldr	fp, [pc, #892]	; c04 <ETH_RX_SIZE+0x4>
     884:	e585b028 	str	fp, [r5, #40]	; 0x28
     888:	e59fb378 	ldr	fp, [pc, #888]	; c08 <ETH_RX_SIZE+0x8>
     88c:	e585b02c 	str	fp, [r5, #44]	; 0x2c
     890:	e59fa374 	ldr	sl, [pc, #884]	; c0c <ETH_RX_SIZE+0xc>
     894:	e59fb374 	ldr	fp, [pc, #884]	; c10 <ETH_RX_SIZE+0x10>
     898:	e585b030 	str	fp, [r5, #48]	; 0x30
     89c:	e59fe370 	ldr	lr, [pc, #880]	; c14 <ETH_RX_SIZE+0x14>
     8a0:	e594b038 	ldr	fp, [r4, #56]	; 0x38
     8a4:	e58ab000 	str	fp, [sl]
     8a8:	e594a000 	ldr	sl, [r4]
     8ac:	e58ea000 	str	sl, [lr]
     8b0:	e59fa360 	ldr	sl, [pc, #864]	; c18 <ETH_RX_SIZE+0x18>
     8b4:	e594e004 	ldr	lr, [r4, #4]
     8b8:	e58ae000 	str	lr, [sl]
     8bc:	e59fa358 	ldr	sl, [pc, #856]	; c1c <ETH_RX_SIZE+0x1c>
     8c0:	e594e010 	ldr	lr, [r4, #16]
     8c4:	e58ae000 	str	lr, [sl]
     8c8:	e59fa350 	ldr	sl, [pc, #848]	; c20 <ETH_RX_SIZE+0x20>
     8cc:	e594e01c 	ldr	lr, [r4, #28]
     8d0:	e58ae000 	str	lr, [sl]
     8d4:	e59fc348 	ldr	ip, [pc, #840]	; c24 <ETH_RX_SIZE+0x24>
     8d8:	e59fa348 	ldr	sl, [pc, #840]	; c28 <ETH_RX_SIZE+0x28>
     8dc:	e594e028 	ldr	lr, [r4, #40]	; 0x28
     8e0:	e59f1344 	ldr	r1, [pc, #836]	; c2c <ETH_RX_SIZE+0x2c>
     8e4:	e59f2344 	ldr	r2, [pc, #836]	; c30 <ETH_RX_SIZE+0x30>
     8e8:	e59f3344 	ldr	r3, [pc, #836]	; c34 <ETH_RX_SIZE+0x34>
     8ec:	e58ae000 	str	lr, [sl]
     8f0:	e594e014 	ldr	lr, [r4, #20]
     8f4:	e5850020 	str	r0, [r5, #32]
     8f8:	e5945008 	ldr	r5, [r4, #8]
     8fc:	e58c5000 	str	r5, [ip]
     900:	e58c5004 	str	r5, [ip, #4]
     904:	e59fc32c 	ldr	ip, [pc, #812]	; c38 <ETH_RX_SIZE+0x38>
     908:	e594502c 	ldr	r5, [r4, #44]	; 0x2c
     90c:	e581e000 	str	lr, [r1]
     910:	e581e004 	str	lr, [r1, #4]
     914:	e1a00009 	mov	r0, r9
     918:	e59fe31c 	ldr	lr, [pc, #796]	; c3c <ETH_RX_SIZE+0x3c>
     91c:	e5949020 	ldr	r9, [r4, #32]
     920:	e3a01000 	mov	r1, #0
     924:	e5829000 	str	r9, [r2]
     928:	e5835000 	str	r5, [r3]
     92c:	e58c1000 	str	r1, [ip]
     930:	e5829004 	str	r9, [r2, #4]
     934:	e59fc304 	ldr	ip, [pc, #772]	; c40 <ETH_RX_SIZE+0x40>
     938:	e594a00c 	ldr	sl, [r4, #12]
     93c:	e59f1300 	ldr	r1, [pc, #768]	; c44 <ETH_RX_SIZE+0x44>
     940:	e58ea000 	str	sl, [lr]
     944:	e58ea004 	str	sl, [lr, #4]
     948:	e58ea008 	str	sl, [lr, #8]
     94c:	e58ea00c 	str	sl, [lr, #12]
     950:	e58ea010 	str	sl, [lr, #16]
     954:	e58ea014 	str	sl, [lr, #20]
     958:	e594e018 	ldr	lr, [r4, #24]
     95c:	e59f92e4 	ldr	r9, [pc, #740]	; c48 <ETH_RX_SIZE+0x48>
     960:	e59f22e4 	ldr	r2, [pc, #740]	; c4c <ETH_RX_SIZE+0x4c>
     964:	e5835004 	str	r5, [r3, #4]
     968:	e58ce000 	str	lr, [ip]
     96c:	e59f52dc 	ldr	r5, [pc, #732]	; c50 <ETH_RX_SIZE+0x50>
     970:	e59f32dc 	ldr	r3, [pc, #732]	; c54 <ETH_RX_SIZE+0x54>
     974:	e58ce004 	str	lr, [ip, #4]
     978:	e58ce008 	str	lr, [ip, #8]
     97c:	e58ce00c 	str	lr, [ip, #12]
     980:	e58ce010 	str	lr, [ip, #16]
     984:	e58ce014 	str	lr, [ip, #20]
     988:	e594e024 	ldr	lr, [r4, #36]	; 0x24
     98c:	e594c030 	ldr	ip, [r4, #48]	; 0x30
     990:	e3a0a000 	mov	sl, #0
     994:	e581e000 	str	lr, [r1]
     998:	e581e004 	str	lr, [r1, #4]
     99c:	e581e008 	str	lr, [r1, #8]
     9a0:	e581e00c 	str	lr, [r1, #12]
     9a4:	e581e010 	str	lr, [r1, #16]
     9a8:	e581e014 	str	lr, [r1, #20]
     9ac:	e59fb2a4 	ldr	fp, [pc, #676]	; c58 <ETH_RX_SIZE+0x58>
     9b0:	e59fe2a4 	ldr	lr, [pc, #676]	; c5c <ETH_RX_SIZE+0x5c>
     9b4:	e589c000 	str	ip, [r9]
     9b8:	e589c004 	str	ip, [r9, #4]
     9bc:	e589c008 	str	ip, [r9, #8]
     9c0:	e589c00c 	str	ip, [r9, #12]
     9c4:	e589c010 	str	ip, [r9, #16]
     9c8:	e589c014 	str	ip, [r9, #20]
     9cc:	e582a000 	str	sl, [r2]
     9d0:	e582a004 	str	sl, [r2, #4]
     9d4:	e583a000 	str	sl, [r3]
     9d8:	e59f1280 	ldr	r1, [pc, #640]	; c60 <ETH_RX_SIZE+0x60>
     9dc:	e583a004 	str	sl, [r3, #4]
     9e0:	e583a008 	str	sl, [r3, #8]
     9e4:	e583a00c 	str	sl, [r3, #12]
     9e8:	e583a010 	str	sl, [r3, #16]
     9ec:	e583a014 	str	sl, [r3, #20]
     9f0:	e585e008 	str	lr, [r5, #8]
     9f4:	e585b004 	str	fp, [r5, #4]
     9f8:	eb000dca 	bl	4128 <__aeabi_fmul>
     9fc:	e59fc260 	ldr	ip, [pc, #608]	; c64 <ETH_RX_SIZE+0x64>
     a00:	e59f2260 	ldr	r2, [pc, #608]	; c68 <ETH_RX_SIZE+0x68>
     a04:	e59f3260 	ldr	r3, [pc, #608]	; c6c <ETH_RX_SIZE+0x6c>
     a08:	e59f1260 	ldr	r1, [pc, #608]	; c70 <ETH_RX_SIZE+0x70>
     a0c:	e59f9260 	ldr	r9, [pc, #608]	; c74 <ETH_RX_SIZE+0x74>
     a10:	e59fe260 	ldr	lr, [pc, #608]	; c78 <ETH_RX_SIZE+0x78>
     a14:	e585c000 	str	ip, [r5]
     a18:	e5852018 	str	r2, [r5, #24]
     a1c:	e59fc258 	ldr	ip, [pc, #600]	; c7c <ETH_RX_SIZE+0x7c>
     a20:	e59f2258 	ldr	r2, [pc, #600]	; c80 <ETH_RX_SIZE+0x80>
     a24:	e59fa258 	ldr	sl, [pc, #600]	; c84 <ETH_RX_SIZE+0x84>
     a28:	e59f4258 	ldr	r4, [pc, #600]	; c88 <ETH_RX_SIZE+0x88>
     a2c:	e585a014 	str	sl, [r5, #20]
     a30:	e585901c 	str	r9, [r5, #28]
     a34:	e5859020 	str	r9, [r5, #32]
     a38:	e585e024 	str	lr, [r5, #36]	; 0x24
     a3c:	e585e028 	str	lr, [r5, #40]	; 0x28
     a40:	e585102c 	str	r1, [r5, #44]	; 0x2c
     a44:	e5851030 	str	r1, [r5, #48]	; 0x30
     a48:	e5851034 	str	r1, [r5, #52]	; 0x34
     a4c:	e5851038 	str	r1, [r5, #56]	; 0x38
     a50:	e585103c 	str	r1, [r5, #60]	; 0x3c
     a54:	e5851040 	str	r1, [r5, #64]	; 0x40
     a58:	e585c044 	str	ip, [r5, #68]	; 0x44
     a5c:	e585c048 	str	ip, [r5, #72]	; 0x48
     a60:	e5852054 	str	r2, [r5, #84]	; 0x54
     a64:	e5852058 	str	r2, [r5, #88]	; 0x58
     a68:	e585205c 	str	r2, [r5, #92]	; 0x5c
     a6c:	e5852060 	str	r2, [r5, #96]	; 0x60
     a70:	e5852064 	str	r2, [r5, #100]	; 0x64
     a74:	e5852068 	str	r2, [r5, #104]	; 0x68
     a78:	e585000c 	str	r0, [r5, #12]
     a7c:	e5850010 	str	r0, [r5, #16]
     a80:	e59f0204 	ldr	r0, [pc, #516]	; c8c <ETH_RX_SIZE+0x8c>
     a84:	e585004c 	str	r0, [r5, #76]	; 0x4c
     a88:	e5850050 	str	r0, [r5, #80]	; 0x50
     a8c:	e59fe1fc 	ldr	lr, [pc, #508]	; c90 <ETH_RX_SIZE+0x90>
     a90:	e59f11fc 	ldr	r1, [pc, #508]	; c94 <ETH_RX_SIZE+0x94>
     a94:	e59fc1fc 	ldr	ip, [pc, #508]	; c98 <ETH_RX_SIZE+0x98>
     a98:	e3a02c01 	mov	r2, #256	; 0x100
     a9c:	e59f91f8 	ldr	r9, [pc, #504]	; c9c <ETH_RX_SIZE+0x9c>
     aa0:	e59fa1f8 	ldr	sl, [pc, #504]	; ca0 <ETH_RX_SIZE+0xa0>
     aa4:	e3a00001 	mov	r0, #1
     aa8:	e5838020 	str	r8, [r3, #32]
     aac:	e5839018 	str	r9, [r3, #24]
     ab0:	e583e010 	str	lr, [r3, #16]
     ab4:	e5831014 	str	r1, [r3, #20]
     ab8:	e583c01c 	str	ip, [r3, #28]
     abc:	e583a004 	str	sl, [r3, #4]
     ac0:	e5838024 	str	r8, [r3, #36]	; 0x24
     ac4:	e5837028 	str	r7, [r3, #40]	; 0x28
     ac8:	e583702c 	str	r7, [r3, #44]	; 0x2c
     acc:	e5836030 	str	r6, [r3, #48]	; 0x30
     ad0:	e5836034 	str	r6, [r3, #52]	; 0x34
     ad4:	e5836038 	str	r6, [r3, #56]	; 0x38
     ad8:	e583603c 	str	r6, [r3, #60]	; 0x3c
     adc:	e5836040 	str	r6, [r3, #64]	; 0x40
     ae0:	e5836044 	str	r6, [r3, #68]	; 0x44
     ae4:	e5842000 	str	r2, [r4]
     ae8:	fa000625 	blx	2384 <rtr_alloc>
     aec:	e2505000 	subs	r5, r0, #0
     af0:	1a000001 	bne	afc <ZI_LENGTH+0x158>
     af4:	e3a00009 	mov	r0, #9
     af8:	ebfffd8b 	bl	12c <rt_error>
     afc:	e59f31a0 	ldr	r3, [pc, #416]	; ca4 <ETH_RX_SIZE+0xa4>
     b00:	e1a00005 	mov	r0, r5
     b04:	e5931000 	ldr	r1, [r3]
     b08:	e3e02000 	mvn	r2, #0
     b0c:	e5943000 	ldr	r3, [r4]
     b10:	fa000592 	blx	2160 <rtr_mc_set>
     b14:	e3a01000 	mov	r1, #0
     b18:	e3a03421 	mov	r3, #553648128	; 0x21000000
     b1c:	e3a02082 	mov	r2, #130	; 0x82
     b20:	e5841000 	str	r1, [r4]
     b24:	e5832028 	str	r2, [r3, #40]	; 0x28
     b28:	e28dd00c 	add	sp, sp, #12
     b2c:	e8bd8ff0 	pop	{r4, r5, r6, r7, r8, r9, sl, fp, pc}
     b30:	00400704 	.word	0x00400704
     b34:	00400670 	.word	0x00400670
     b38:	00400644 	.word	0x00400644
     b3c:	00400528 	.word	0x00400528
     b40:	472c4400 	.word	0x472c4400
     b44:	00400684 	.word	0x00400684
     b48:	00400590 	.word	0x00400590
     b4c:	00400648 	.word	0x00400648
     b50:	37be37c6 	.word	0x37be37c6
     b54:	4f800000 	.word	0x4f800000
     b58:	000046e4 	.word	0x000046e4
     b5c:	00004708 	.word	0x00004708
     b60:	e5007f00 	.word	0xe5007f00
     b64:	00400518 	.word	0x00400518
     b68:	0040067c 	.word	0x0040067c
     b6c:	00400638 	.word	0x00400638
     b70:	51eb851f 	.word	0x51eb851f
     b74:	00400578 	.word	0x00400578
     b78:	0000024f 	.word	0x0000024f
     b7c:	00400708 	.word	0x00400708
     b80:	0040063c 	.word	0x0040063c
     b84:	00004754 	.word	0x00004754
     b88:	004004dc 	.word	0x004004dc
     b8c:	00004778 	.word	0x00004778
     b90:	000047a0 	.word	0x000047a0
     b94:	000047c4 	.word	0x000047c4
     b98:	00004728 	.word	0x00004728
     b9c:	004005e0 	.word	0x004005e0
     ba0:	3e063911 	.word	0x3e063911
     ba4:	a0a859a8 	.word	0xa0a859a8
     ba8:	a2134e73 	.word	0xa2134e73
     bac:	a383860b 	.word	0xa383860b
     bb0:	a0c25596 	.word	0xa0c25596
     bb4:	a8e419b9 	.word	0xa8e419b9
     bb8:	a4a67fff 	.word	0xa4a67fff
     bbc:	a8f03e8a 	.word	0xa8f03e8a
     bc0:	acc36e0a 	.word	0xacc36e0a
     bc4:	bd9ba5e3 	.word	0xbd9ba5e3
     bc8:	bd785f80 	.word	0xbd785f80
     bcc:	41500000 	.word	0x41500000
     bd0:	41600000 	.word	0x41600000
     bd4:	a50c340f 	.word	0xa50c340f
     bd8:	004004e0 	.word	0x004004e0
     bdc:	305be6ff 	.word	0x305be6ff
     be0:	38fba882 	.word	0x38fba882
     be4:	3b83126f 	.word	0x3b83126f
     be8:	31abcc77 	.word	0x31abcc77
     bec:	4bfe502b 	.word	0x4bfe502b
     bf0:	4e6e6b28 	.word	0x4e6e6b28
     bf4:	31ce288f 	.word	0x31ce288f
     bf8:	3089705f 	.word	0x3089705f
     bfc:	424d1a94 	.word	0x424d1a94
     c00:	3dcccccd 	.word	0x3dcccccd
     c04:	32abcc77 	.word	0x32abcc77
     c08:	bda3d70a 	.word	0xbda3d70a
     c0c:	00400514 	.word	0x00400514
     c10:	3d23d70a 	.word	0x3d23d70a
     c14:	00400574 	.word	0x00400574
     c18:	00400650 	.word	0x00400650
     c1c:	0040051c 	.word	0x0040051c
     c20:	0040061c 	.word	0x0040061c
     c24:	00400584 	.word	0x00400584
     c28:	00400524 	.word	0x00400524
     c2c:	004004d4 	.word	0x004004d4
     c30:	004006fc 	.word	0x004006fc
     c34:	0040057c 	.word	0x0040057c
     c38:	00400674 	.word	0x00400674
     c3c:	0040070c 	.word	0x0040070c
     c40:	00400620 	.word	0x00400620
     c44:	00400594 	.word	0x00400594
     c48:	004005c8 	.word	0x004005c8
     c4c:	00400654 	.word	0x00400654
     c50:	00400688 	.word	0x00400688
     c54:	004005b0 	.word	0x004005b0
     c58:	3b23d70a 	.word	0x3b23d70a
     c5c:	43020000 	.word	0x43020000
     c60:	461c4000 	.word	0x461c4000
     c64:	3d872b02 	.word	0x3d872b02
     c68:	7e967699 	.word	0x7e967699
     c6c:	0040052c 	.word	0x0040052c
     c70:	3009705f 	.word	0x3009705f
     c74:	2d2febff 	.word	0x2d2febff
     c78:	2e99ee7f 	.word	0x2e99ee7f
     c7c:	000002ca 	.word	0x000002ca
     c80:	001fd780 	.word	0x001fd780
     c84:	40400000 	.word	0x40400000
     c88:	00400680 	.word	0x00400680
     c8c:	000ae398 	.word	0x000ae398
     c90:	41200000 	.word	0x41200000
     c94:	41f00000 	.word	0x41f00000
     c98:	45cda000 	.word	0x45cda000
     c9c:	45214000 	.word	0x45214000
     ca0:	3a449ba6 	.word	0x3a449ba6
     ca4:	0040064c 	.word	0x0040064c

00000ca8 <process_chan>:
     ca8:	e59f3230 	ldr	r3, [pc, #560]	; ee0 <process_chan+0x238>
     cac:	e3a02ffa 	mov	r2, #1000	; 0x3e8
     cb0:	e5933000 	ldr	r3, [r3]
     cb4:	e92d4ff0 	push	{r4, r5, r6, r7, r8, r9, sl, fp, lr}
     cb8:	e0030392 	mul	r3, r2, r3
     cbc:	e24dd00c 	sub	sp, sp, #12
     cc0:	e2433ffa 	sub	r3, r3, #1000	; 0x3e8
     cc4:	e59f7218 	ldr	r7, [pc, #536]	; ee4 <process_chan+0x23c>
     cc8:	e59f9218 	ldr	r9, [pc, #536]	; ee8 <process_chan+0x240>
     ccc:	e58d3004 	str	r3, [sp, #4]
     cd0:	e3a085fe 	mov	r8, #1065353216	; 0x3f800000
     cd4:	e2803f63 	add	r3, r0, #396	; 0x18c
     cd8:	e240a004 	sub	sl, r0, #4
     cdc:	e58d3000 	str	r3, [sp]
     ce0:	e5971008 	ldr	r1, [r7, #8]
     ce4:	e5ba0004 	ldr	r0, [sl, #4]!
     ce8:	eb000d0e 	bl	4128 <__aeabi_fmul>
     cec:	e5971014 	ldr	r1, [r7, #20]
     cf0:	e1a05000 	mov	r5, r0
     cf4:	eb000c62 	bl	3e84 <__aeabi_fsub>
     cf8:	e5971018 	ldr	r1, [r7, #24]
     cfc:	e2800102 	add	r0, r0, #-2147483648	; 0x80000000
     d00:	eb000d08 	bl	4128 <__aeabi_fmul>
     d04:	eb000e51 	bl	4650 <__gnu_fractsfsa>
     d08:	eb000233 	bl	15dc <expk>
     d0c:	e597100c 	ldr	r1, [r7, #12]
     d10:	e1a04000 	mov	r4, r0
     d14:	e1a00005 	mov	r0, r5
     d18:	eb000c59 	bl	3e84 <__aeabi_fsub>
     d1c:	e5971010 	ldr	r1, [r7, #16]
     d20:	e2800102 	add	r0, r0, #-2147483648	; 0x80000000
     d24:	eb000cff 	bl	4128 <__aeabi_fmul>
     d28:	eb000e48 	bl	4650 <__gnu_fractsfsa>
     d2c:	eb00022a 	bl	15dc <expk>
     d30:	e1a05000 	mov	r5, r0
     d34:	e1a00004 	mov	r0, r4
     d38:	eb000e3c 	bl	4630 <__gnu_fractsasf>
     d3c:	e1a01008 	mov	r1, r8
     d40:	eb000c50 	bl	3e88 <__addsf3>
     d44:	e1a04000 	mov	r4, r0
     d48:	e1a00005 	mov	r0, r5
     d4c:	eb000e37 	bl	4630 <__gnu_fractsasf>
     d50:	e1a01000 	mov	r1, r0
     d54:	e1a00004 	mov	r0, r4
     d58:	eb000cf2 	bl	4128 <__aeabi_fmul>
     d5c:	e1a01008 	mov	r1, r8
     d60:	eb000c48 	bl	3e88 <__addsf3>
     d64:	e1a01000 	mov	r1, r0
     d68:	e597001c 	ldr	r0, [r7, #28]
     d6c:	eb000d53 	bl	42c0 <__aeabi_fdiv>
     d70:	e5971000 	ldr	r1, [r7]
     d74:	eb000c43 	bl	3e88 <__addsf3>
     d78:	e59f316c 	ldr	r3, [pc, #364]	; eec <process_chan+0x244>
     d7c:	e5971024 	ldr	r1, [r7, #36]	; 0x24
     d80:	e5934000 	ldr	r4, [r3]
     d84:	e2805102 	add	r5, r0, #-2147483648	; 0x80000000
     d88:	e1a00004 	mov	r0, r4
     d8c:	eb000c3c 	bl	3e84 <__aeabi_fsub>
     d90:	e1a01000 	mov	r1, r0
     d94:	e1a00005 	mov	r0, r5
     d98:	eb000ce2 	bl	4128 <__aeabi_fmul>
     d9c:	e59f314c 	ldr	r3, [pc, #332]	; ef0 <process_chan+0x248>
     da0:	e1a01004 	mov	r1, r4
     da4:	e1a05000 	mov	r5, r0
     da8:	e5930034 	ldr	r0, [r3, #52]	; 0x34
     dac:	eb000c34 	bl	3e84 <__aeabi_fsub>
     db0:	e5971028 	ldr	r1, [r7, #40]	; 0x28
     db4:	eb000cdb 	bl	4128 <__aeabi_fmul>
     db8:	e1a01000 	mov	r1, r0
     dbc:	e1a00005 	mov	r0, r5
     dc0:	eb000c30 	bl	3e88 <__addsf3>
     dc4:	e5971020 	ldr	r1, [r7, #32]
     dc8:	eb000cd6 	bl	4128 <__aeabi_fmul>
     dcc:	e1a01004 	mov	r1, r4
     dd0:	eb000c2c 	bl	3e88 <__addsf3>
     dd4:	e59f3110 	ldr	r3, [pc, #272]	; eec <process_chan+0x244>
     dd8:	e1a04000 	mov	r4, r0
     ddc:	e5990008 	ldr	r0, [r9, #8]
     de0:	e5834000 	str	r4, [r3]
     de4:	e2800102 	add	r0, r0, #-2147483648	; 0x80000000
     de8:	eb000e18 	bl	4650 <__gnu_fractsfsa>
     dec:	eb000e0f 	bl	4630 <__gnu_fractsasf>
     df0:	e1a01004 	mov	r1, r4
     df4:	eb000ccb 	bl	4128 <__aeabi_fmul>
     df8:	eb000e14 	bl	4650 <__gnu_fractsfsa>
     dfc:	eb0001f6 	bl	15dc <expk>
     e00:	eb000e0a 	bl	4630 <__gnu_fractsasf>
     e04:	e5991004 	ldr	r1, [r9, #4]
     e08:	eb000cc6 	bl	4128 <__aeabi_fmul>
     e0c:	e1a01008 	mov	r1, r8
     e10:	eb000c1c 	bl	3e88 <__addsf3>
     e14:	e59f30d8 	ldr	r3, [pc, #216]	; ef4 <process_chan+0x24c>
     e18:	e5934000 	ldr	r4, [r3]
     e1c:	e1a01000 	mov	r1, r0
     e20:	e1a00008 	mov	r0, r8
     e24:	eb000d25 	bl	42c0 <__aeabi_fdiv>
     e28:	e1a01004 	mov	r1, r4
     e2c:	eb000c14 	bl	3e84 <__aeabi_fsub>
     e30:	e599100c 	ldr	r1, [r9, #12]
     e34:	eb000cbb 	bl	4128 <__aeabi_fmul>
     e38:	e1a01004 	mov	r1, r4
     e3c:	eb000c11 	bl	3e88 <__addsf3>
     e40:	e59f30ac 	ldr	r3, [pc, #172]	; ef4 <process_chan+0x24c>
     e44:	e5994014 	ldr	r4, [r9, #20]
     e48:	e1a01008 	mov	r1, r8
     e4c:	e5830000 	str	r0, [r3]
     e50:	e1a05000 	mov	r5, r0
     e54:	e1a00004 	mov	r0, r4
     e58:	eb000c09 	bl	3e84 <__aeabi_fsub>
     e5c:	e1a01008 	mov	r1, r8
     e60:	e1a0b005 	mov	fp, r5
     e64:	e1a06000 	mov	r6, r0
     e68:	e1a00004 	mov	r0, r4
     e6c:	eb000daa 	bl	451c <__aeabi_fcmpgt>
     e70:	e3500000 	cmp	r0, #0
     e74:	0a00000c 	beq	eac <process_chan+0x204>
     e78:	e3a04000 	mov	r4, #0
     e7c:	e1a01005 	mov	r1, r5
     e80:	e1a0000b 	mov	r0, fp
     e84:	eb000ca7 	bl	4128 <__aeabi_fmul>
     e88:	e2844001 	add	r4, r4, #1
     e8c:	e1a0b000 	mov	fp, r0
     e90:	e1a00004 	mov	r0, r4
     e94:	eb000c6a 	bl	4044 <__aeabi_ui2f>
     e98:	e1a01000 	mov	r1, r0
     e9c:	e1a00006 	mov	r0, r6
     ea0:	eb000d9d 	bl	451c <__aeabi_fcmpgt>
     ea4:	e3500000 	cmp	r0, #0
     ea8:	1afffff3 	bne	e7c <process_chan+0x1d4>
     eac:	e1a0000b 	mov	r0, fp
     eb0:	eb000d9f 	bl	4534 <__aeabi_f2uiz>
     eb4:	e59f303c 	ldr	r3, [pc, #60]	; ef8 <process_chan+0x250>
     eb8:	e3a02001 	mov	r2, #1
     ebc:	e1a01000 	mov	r1, r0
     ec0:	e5930000 	ldr	r0, [r3]
     ec4:	fa00083f 	blx	2fc8 <spin1_send_mc_packet>
     ec8:	e59d3000 	ldr	r3, [sp]
     ecc:	e153000a 	cmp	r3, sl
     ed0:	1affff82 	bne	ce0 <process_chan+0x38>
     ed4:	e59d0004 	ldr	r0, [sp, #4]
     ed8:	e28dd00c 	add	sp, sp, #12
     edc:	e8bd8ff0 	pop	{r4, r5, r6, r7, r8, r9, sl, fp, pc}
     ee0:	00400644 	.word	0x00400644
     ee4:	004004e0 	.word	0x004004e0
     ee8:	00400688 	.word	0x00400688
     eec:	00400514 	.word	0x00400514
     ef0:	004005e0 	.word	0x004005e0
     ef4:	00400574 	.word	0x00400574
     ef8:	0040064c 	.word	0x0040064c

00000efc <transfer_handler>:
     efc:	e3510000 	cmp	r1, #0
     f00:	112fff1e 	bxne	lr
     f04:	e59f2080 	ldr	r2, [pc, #128]	; f8c <RTR_TST2+0x88>
     f08:	e3a03421 	mov	r3, #553648128	; 0x21000000
     f0c:	e5933024 	ldr	r3, [r3, #36]	; 0x24
     f10:	e5920000 	ldr	r0, [r2]
     f14:	e59f1074 	ldr	r1, [pc, #116]	; f90 <RTR_TST2+0x8c>
     f18:	e59f2074 	ldr	r2, [pc, #116]	; f94 <RTR_TST2+0x90>
     f1c:	e92d41f0 	push	{r4, r5, r6, r7, r8, lr}
     f20:	e0400003 	sub	r0, r0, r3
     f24:	e5813000 	str	r3, [r1]
     f28:	e5927000 	ldr	r7, [r2]
     f2c:	eb000c46 	bl	404c <__aeabi_i2f>
     f30:	e59f6060 	ldr	r6, [pc, #96]	; f98 <RTR_TST2+0x94>
     f34:	e59f3060 	ldr	r3, [pc, #96]	; f9c <RTR_TST2+0x98>
     f38:	e5964000 	ldr	r4, [r6]
     f3c:	e5933000 	ldr	r3, [r3]
     f40:	e0845084 	add	r5, r4, r4, lsl #1
     f44:	e1a05105 	lsl	r5, r5, #2
     f48:	e2844001 	add	r4, r4, #1
     f4c:	e3530000 	cmp	r3, #0
     f50:	e7870005 	str	r0, [r7, r5]
     f54:	e5864000 	str	r4, [r6]
     f58:	0a000005 	beq	f74 <RTR_TST2+0x70>
     f5c:	e59f303c 	ldr	r3, [pc, #60]	; fa0 <RTR_TST2+0x9c>
     f60:	e5930000 	ldr	r0, [r3]
     f64:	ebffff4f 	bl	ca8 <process_chan>
     f68:	e59f3034 	ldr	r3, [pc, #52]	; fa4 <RTR_TST2+0xa0>
     f6c:	e5830000 	str	r0, [r3]
     f70:	e8bd81f0 	pop	{r4, r5, r6, r7, r8, pc}
     f74:	e59f302c 	ldr	r3, [pc, #44]	; fa8 <RTR_TST2+0xa4>
     f78:	e5930000 	ldr	r0, [r3]
     f7c:	ebffff49 	bl	ca8 <process_chan>
     f80:	e59f3024 	ldr	r3, [pc, #36]	; fac <RTR_TST2+0xa8>
     f84:	e5830000 	str	r0, [r3]
     f88:	e8bd81f0 	pop	{r4, r5, r6, r7, r8, pc}
     f8c:	0040066c 	.word	0x0040066c
     f90:	004006f8 	.word	0x004006f8
     f94:	00400708 	.word	0x00400708
     f98:	00400644 	.word	0x00400644
     f9c:	00400528 	.word	0x00400528
     fa0:	0040067c 	.word	0x0040067c
     fa4:	004006f4 	.word	0x004006f4
     fa8:	00400638 	.word	0x00400638
     fac:	00400640 	.word	0x00400640

00000fb0 <app_done>:
     fb0:	e92d4070 	push	{r4, r5, r6, lr}
     fb4:	e59f406c 	ldr	r4, [pc, #108]	; 1028 <SV_SIZE+0x28>
     fb8:	e5945000 	ldr	r5, [r4]
     fbc:	fa000703 	blx	2bd0 <spin1_get_simulation_time>
     fc0:	e1a02005 	mov	r2, r5
     fc4:	e59f1060 	ldr	r1, [pc, #96]	; 102c <SV_SIZE+0x2c>
     fc8:	e1a03000 	mov	r3, r0
     fcc:	e3a00002 	mov	r0, #2
     fd0:	fa00056a 	blx	2580 <io_printf>
     fd4:	e59f3054 	ldr	r3, [pc, #84]	; 1030 <SV_SIZE+0x30>
     fd8:	e59f2054 	ldr	r2, [pc, #84]	; 1034 <SV_SIZE+0x34>
     fdc:	e5933000 	ldr	r3, [r3]
     fe0:	e5922000 	ldr	r2, [r2]
     fe4:	e2830e93 	add	r0, r3, #2352	; 0x930
     fe8:	e2800008 	add	r0, r0, #8
     fec:	e2433004 	sub	r3, r3, #4
     ff0:	e2422004 	sub	r2, r2, #4
     ff4:	e5b31004 	ldr	r1, [r3, #4]!
     ff8:	e5a21004 	str	r1, [r2, #4]!
     ffc:	e1530000 	cmp	r3, r0
    1000:	1afffffb 	bne	ff4 <app_done+0x44>
    1004:	e5942000 	ldr	r2, [r4]
    1008:	e59f1028 	ldr	r1, [pc, #40]	; 1038 <SV_SIZE+0x38>
    100c:	e3a00002 	mov	r0, #2
    1010:	fa00055a 	blx	2580 <io_printf>
    1014:	e5942000 	ldr	r2, [r4]
    1018:	e59f101c 	ldr	r1, [pc, #28]	; 103c <SV_SIZE+0x3c>
    101c:	e3a00002 	mov	r0, #2
    1020:	e8bd4070 	pop	{r4, r5, r6, lr}
    1024:	ea000da9 	b	46d0 <__io_printf_from_arm>
    1028:	00400670 	.word	0x00400670
    102c:	000047e8 	.word	0x000047e8
    1030:	00400708 	.word	0x00400708
    1034:	00400578 	.word	0x00400578
    1038:	00004810 	.word	0x00004810
    103c:	00004830 	.word	0x00004830

00001040 <c_main>:
    1040:	e92d4070 	push	{r4, r5, r6, lr}
    1044:	fa0007e3 	blx	2fd8 <spin1_get_core_id>
    1048:	e59f40c4 	ldr	r4, [pc, #196]	; 1114 <c_main+0xd4>
    104c:	e5840000 	str	r0, [r4]
    1050:	fa0007e3 	blx	2fe4 <spin1_get_chip_id>
    1054:	e5943000 	ldr	r3, [r4]
    1058:	e59fc0b8 	ldr	ip, [pc, #184]	; 1118 <c_main+0xd8>
    105c:	e59f10b8 	ldr	r1, [pc, #184]	; 111c <c_main+0xdc>
    1060:	e0833400 	add	r3, r3, r0, lsl #8
    1064:	e1a02000 	mov	r2, r0
    1068:	e59f00b0 	ldr	r0, [pc, #176]	; 1120 <c_main+0xe0>
    106c:	e58c3000 	str	r3, [ip]
    1070:	e5812000 	str	r2, [r1]
    1074:	fa0006e1 	blx	2c00 <spin1_set_timer_tick>
    1078:	e3a02000 	mov	r2, #0
    107c:	e59f10a0 	ldr	r1, [pc, #160]	; 1124 <c_main+0xe4>
    1080:	e3a00001 	mov	r0, #1
    1084:	fa0006ae 	blx	2b44 <spin1_callback_on>
    1088:	e3e02000 	mvn	r2, #0
    108c:	e59f1094 	ldr	r1, [pc, #148]	; 1128 <c_main+0xe8>
    1090:	e3a00002 	mov	r0, #2
    1094:	fa0006aa 	blx	2b44 <spin1_callback_on>
    1098:	ebfffd25 	bl	534 <app_init>
    109c:	e3a00001 	mov	r0, #1
    10a0:	fa00075f 	blx	2e24 <spin1_start>
    10a4:	e5945000 	ldr	r5, [r4]
    10a8:	fa0006c8 	blx	2bd0 <spin1_get_simulation_time>
    10ac:	e1a02005 	mov	r2, r5
    10b0:	e59f1074 	ldr	r1, [pc, #116]	; 112c <c_main+0xec>
    10b4:	e1a03000 	mov	r3, r0
    10b8:	e3a00002 	mov	r0, #2
    10bc:	fa00052f 	blx	2580 <io_printf>
    10c0:	e59f3068 	ldr	r3, [pc, #104]	; 1130 <c_main+0xf0>
    10c4:	e59f2068 	ldr	r2, [pc, #104]	; 1134 <c_main+0xf4>
    10c8:	e5933000 	ldr	r3, [r3]
    10cc:	e5922000 	ldr	r2, [r2]
    10d0:	e2830e93 	add	r0, r3, #2352	; 0x930
    10d4:	e2800008 	add	r0, r0, #8
    10d8:	e2433004 	sub	r3, r3, #4
    10dc:	e2422004 	sub	r2, r2, #4
    10e0:	e5b31004 	ldr	r1, [r3, #4]!
    10e4:	e5a21004 	str	r1, [r2, #4]!
    10e8:	e1530000 	cmp	r3, r0
    10ec:	1afffffb 	bne	10e0 <c_main+0xa0>
    10f0:	e5942000 	ldr	r2, [r4]
    10f4:	e59f103c 	ldr	r1, [pc, #60]	; 1138 <c_main+0xf8>
    10f8:	e3a00002 	mov	r0, #2
    10fc:	fa00051f 	blx	2580 <io_printf>
    1100:	e5942000 	ldr	r2, [r4]
    1104:	e59f1030 	ldr	r1, [pc, #48]	; 113c <c_main+0xfc>
    1108:	e3a00002 	mov	r0, #2
    110c:	e8bd4070 	pop	{r4, r5, r6, lr}
    1110:	ea000d6e 	b	46d0 <__io_printf_from_arm>
    1114:	00400670 	.word	0x00400670
    1118:	0040064c 	.word	0x0040064c
    111c:	00400678 	.word	0x00400678
    1120:	00000bb8 	.word	0x00000bb8
    1124:	00000efc 	.word	0x00000efc
    1128:	000003b8 	.word	0x000003b8
    112c:	000047e8 	.word	0x000047e8
    1130:	00400708 	.word	0x00400708
    1134:	00400578 	.word	0x00400578
    1138:	00004810 	.word	0x00004810
    113c:	00004830 	.word	0x00004830

00001140 <init_WELL1024a_simp>:
    1140:	e92d41f0 	push	{r4, r5, r6, r7, r8, lr}
    1144:	e59f7060 	ldr	r7, [pc, #96]	; 11ac <init_WELL1024a_simp+0x6c>
    1148:	e59fe060 	ldr	lr, [pc, #96]	; 11b0 <init_WELL1024a_simp+0x70>
    114c:	e897110c 	ldm	r7, {r2, r3, r8, ip}
    1150:	e59f605c 	ldr	r6, [pc, #92]	; 11b4 <init_WELL1024a_simp+0x74>
    1154:	e59f505c 	ldr	r5, [pc, #92]	; 11b8 <init_WELL1024a_simp+0x78>
    1158:	e28e4080 	add	r4, lr, #128	; 0x80
    115c:	e1a0000c 	mov	r0, ip
    1160:	e3a01000 	mov	r1, #0
    1164:	e00c0296 	mul	ip, r6, r2
    1168:	e0a10895 	umlal	r0, r1, r5, r8
    116c:	e59f2048 	ldr	r2, [pc, #72]	; 11bc <init_WELL1024a_simp+0x7c>
    1170:	e0233283 	eor	r3, r3, r3, lsl #5
    1174:	e02333a3 	eor	r3, r3, r3, lsr #7
    1178:	e08c2002 	add	r2, ip, r2
    117c:	e0233b03 	eor	r3, r3, r3, lsl #22
    1180:	e082c000 	add	ip, r2, r0
    1184:	e08cc003 	add	ip, ip, r3
    1188:	e5aec004 	str	ip, [lr, #4]!
    118c:	e15e0004 	cmp	lr, r4
    1190:	e1a0c001 	mov	ip, r1
    1194:	e1a08000 	mov	r8, r0
    1198:	1affffef 	bne	115c <init_WELL1024a_simp+0x1c>
    119c:	e887000c 	stm	r7, {r2, r3}
    11a0:	e587100c 	str	r1, [r7, #12]
    11a4:	e5870008 	str	r0, [r7, #8]
    11a8:	e8bd81f0 	pop	{r4, r5, r6, r7, r8, pc}
    11ac:	00400000 	.word	0x00400000
    11b0:	00400104 	.word	0x00400104
    11b4:	12bf507d 	.word	0x12bf507d
    11b8:	fffa2849 	.word	0xfffa2849
    11bc:	0012d687 	.word	0x0012d687

000011c0 <WELL1024a_simp>:
    11c0:	e59f1078 	ldr	r1, [pc, #120]	; 1240 <WELL1024a_simp+0x80>
    11c4:	e92d4030 	push	{r4, r5, lr}
    11c8:	e591e080 	ldr	lr, [r1, #128]	; 0x80
    11cc:	e28e4003 	add	r4, lr, #3
    11d0:	e28e3018 	add	r3, lr, #24
    11d4:	e28e200a 	add	r2, lr, #10
    11d8:	e204401f 	and	r4, r4, #31
    11dc:	e7914104 	ldr	r4, [r1, r4, lsl #2]
    11e0:	e791010e 	ldr	r0, [r1, lr, lsl #2]
    11e4:	e202201f 	and	r2, r2, #31
    11e8:	e28ec01f 	add	ip, lr, #31
    11ec:	e203301f 	and	r3, r3, #31
    11f0:	e7915102 	ldr	r5, [r1, r2, lsl #2]
    11f4:	e7913103 	ldr	r3, [r1, r3, lsl #2]
    11f8:	e20cc01f 	and	ip, ip, #31
    11fc:	e791210c 	ldr	r2, [r1, ip, lsl #2]
    1200:	e0200004 	eor	r0, r0, r4
    1204:	e0200424 	eor	r0, r0, r4, lsr #8
    1208:	e0234005 	eor	r4, r3, r5
    120c:	e0243983 	eor	r3, r4, r3, lsl #19
    1210:	e0222582 	eor	r2, r2, r2, lsl #11
    1214:	e0233705 	eor	r3, r3, r5, lsl #14
    1218:	e0222000 	eor	r2, r2, r0
    121c:	e0222003 	eor	r2, r2, r3
    1220:	e0222380 	eor	r2, r2, r0, lsl #7
    1224:	e0200003 	eor	r0, r0, r3
    1228:	e0223683 	eor	r3, r2, r3, lsl #13
    122c:	e781010e 	str	r0, [r1, lr, lsl #2]
    1230:	e581c080 	str	ip, [r1, #128]	; 0x80
    1234:	e1a00003 	mov	r0, r3
    1238:	e781310c 	str	r3, [r1, ip, lsl #2]
    123c:	e8bd8030 	pop	{r4, r5, pc}
    1240:	00400108 	.word	0x00400108

00001244 <validate_WELL1024a_seed>:
    1244:	e3a03000 	mov	r3, #0
    1248:	e5803084 	str	r3, [r0, #132]	; 0x84
    124c:	e12fff1e 	bx	lr

00001250 <WELL1024a_seed>:
    1250:	e92d4070 	push	{r4, r5, r6, lr}
    1254:	e590e084 	ldr	lr, [r0, #132]	; 0x84
    1258:	e28e3018 	add	r3, lr, #24
    125c:	e28ec00a 	add	ip, lr, #10
    1260:	e28e4003 	add	r4, lr, #3
    1264:	e203301f 	and	r3, r3, #31
    1268:	e20cc01f 	and	ip, ip, #31
    126c:	e7901103 	ldr	r1, [r0, r3, lsl #2]
    1270:	e790510c 	ldr	r5, [r0, ip, lsl #2]
    1274:	e204401f 	and	r4, r4, #31
    1278:	e7906104 	ldr	r6, [r0, r4, lsl #2]
    127c:	e790c10e 	ldr	ip, [r0, lr, lsl #2]
    1280:	e28e401f 	add	r4, lr, #31
    1284:	e0212005 	eor	r2, r1, r5
    1288:	e204401f 	and	r4, r4, #31
    128c:	e7903104 	ldr	r3, [r0, r4, lsl #2]
    1290:	e02cc006 	eor	ip, ip, r6
    1294:	e0222981 	eor	r2, r2, r1, lsl #19
    1298:	e0221705 	eor	r1, r2, r5, lsl #14
    129c:	e02cc426 	eor	ip, ip, r6, lsr #8
    12a0:	e02c4001 	eor	r4, ip, r1
    12a4:	e0232583 	eor	r2, r3, r3, lsl #11
    12a8:	e780410e 	str	r4, [r0, lr, lsl #2]
    12ac:	e022200c 	eor	r2, r2, ip
    12b0:	e590e084 	ldr	lr, [r0, #132]	; 0x84
    12b4:	e0222001 	eor	r2, r2, r1
    12b8:	e022338c 	eor	r3, r2, ip, lsl #7
    12bc:	e28e201f 	add	r2, lr, #31
    12c0:	e0233681 	eor	r3, r3, r1, lsl #13
    12c4:	e202201f 	and	r2, r2, #31
    12c8:	e7803102 	str	r3, [r0, r2, lsl #2]
    12cc:	e5903084 	ldr	r3, [r0, #132]	; 0x84
    12d0:	e283301f 	add	r3, r3, #31
    12d4:	e203301f 	and	r3, r3, #31
    12d8:	e5803084 	str	r3, [r0, #132]	; 0x84
    12dc:	e7900103 	ldr	r0, [r0, r3, lsl #2]
    12e0:	e8bd8070 	pop	{r4, r5, r6, pc}

000012e4 <mars_kiss32>:
    12e4:	e59f205c 	ldr	r2, [pc, #92]	; 1348 <mars_kiss32+0x64>
    12e8:	e92d4030 	push	{r4, r5, lr}
    12ec:	e59f4058 	ldr	r4, [pc, #88]	; 134c <mars_kiss32+0x68>
    12f0:	e5925014 	ldr	r5, [r2, #20]
    12f4:	e5921018 	ldr	r1, [r2, #24]
    12f8:	e594e084 	ldr	lr, [r4, #132]	; 0x84
    12fc:	e5923010 	ldr	r3, [r2, #16]
    1300:	e592001c 	ldr	r0, [r2, #28]
    1304:	e0851001 	add	r1, r5, r1
    1308:	e59fc040 	ldr	ip, [pc, #64]	; 1350 <mars_kiss32+0x6c>
    130c:	e081100e 	add	r1, r1, lr
    1310:	e0233283 	eor	r3, r3, r3, lsl #5
    1314:	e3c1e102 	bic	lr, r1, #-2147483648	; 0x80000000
    1318:	e080c00c 	add	ip, r0, ip
    131c:	e02333a3 	eor	r3, r3, r3, lsr #7
    1320:	e0233b03 	eor	r3, r3, r3, lsl #22
    1324:	e1a01fa1 	lsr	r1, r1, #31
    1328:	e08e000c 	add	r0, lr, ip
    132c:	e5825018 	str	r5, [r2, #24]
    1330:	e5841084 	str	r1, [r4, #132]	; 0x84
    1334:	e582e014 	str	lr, [r2, #20]
    1338:	e582c01c 	str	ip, [r2, #28]
    133c:	e0800003 	add	r0, r0, r3
    1340:	e5823010 	str	r3, [r2, #16]
    1344:	e8bd8030 	pop	{r4, r5, pc}
    1348:	00400000 	.word	0x00400000
    134c:	00400108 	.word	0x00400108
    1350:	542023ab 	.word	0x542023ab

00001354 <mars_kiss64_simp>:
    1354:	e59f2050 	ldr	r2, [pc, #80]	; 13ac <mars_kiss64_simp+0x58>
    1358:	e92d4030 	push	{r4, r5, lr}
    135c:	e59f304c 	ldr	r3, [pc, #76]	; 13b0 <mars_kiss64_simp+0x5c>
    1360:	e592400c 	ldr	r4, [r2, #12]
    1364:	e592e008 	ldr	lr, [r2, #8]
    1368:	e592c000 	ldr	ip, [r2]
    136c:	e59f0040 	ldr	r0, [pc, #64]	; 13b4 <mars_kiss64_simp+0x60>
    1370:	e3a05000 	mov	r5, #0
    1374:	e59f103c 	ldr	r1, [pc, #60]	; 13b8 <mars_kiss64_simp+0x64>
    1378:	e0a54e93 	umlal	r4, r5, r3, lr
    137c:	e5923004 	ldr	r3, [r2, #4]
    1380:	e0211c90 	mla	r1, r0, ip, r1
    1384:	e0233283 	eor	r3, r3, r3, lsl #5
    1388:	e02333a3 	eor	r3, r3, r3, lsr #7
    138c:	e0233b03 	eor	r3, r3, r3, lsl #22
    1390:	e0810004 	add	r0, r1, r4
    1394:	e582500c 	str	r5, [r2, #12]
    1398:	e5824008 	str	r4, [r2, #8]
    139c:	e5821000 	str	r1, [r2]
    13a0:	e0800003 	add	r0, r0, r3
    13a4:	e5823004 	str	r3, [r2, #4]
    13a8:	e8bd8030 	pop	{r4, r5, pc}
    13ac:	00400000 	.word	0x00400000
    13b0:	fffa2849 	.word	0xfffa2849
    13b4:	12bf507d 	.word	0x12bf507d
    13b8:	0012d687 	.word	0x0012d687

000013bc <mars_kiss64_seed>:
    13bc:	e92d4030 	push	{r4, r5, lr}
    13c0:	e59f304c 	ldr	r3, [pc, #76]	; 1414 <mars_kiss64_seed+0x58>
    13c4:	e590400c 	ldr	r4, [r0, #12]
    13c8:	e590e008 	ldr	lr, [r0, #8]
    13cc:	e1a02000 	mov	r2, r0
    13d0:	e590c000 	ldr	ip, [r0]
    13d4:	e3a05000 	mov	r5, #0
    13d8:	e59f0038 	ldr	r0, [pc, #56]	; 1418 <mars_kiss64_seed+0x5c>
    13dc:	e59f1038 	ldr	r1, [pc, #56]	; 141c <mars_kiss64_seed+0x60>
    13e0:	e0a54e93 	umlal	r4, r5, r3, lr
    13e4:	e5923004 	ldr	r3, [r2, #4]
    13e8:	e0211c90 	mla	r1, r0, ip, r1
    13ec:	e0233283 	eor	r3, r3, r3, lsl #5
    13f0:	e02333a3 	eor	r3, r3, r3, lsr #7
    13f4:	e0233b03 	eor	r3, r3, r3, lsl #22
    13f8:	e0810004 	add	r0, r1, r4
    13fc:	e582500c 	str	r5, [r2, #12]
    1400:	e5824008 	str	r4, [r2, #8]
    1404:	e5821000 	str	r1, [r2]
    1408:	e0800003 	add	r0, r0, r3
    140c:	e5823004 	str	r3, [r2, #4]
    1410:	e8bd8030 	pop	{r4, r5, pc}
    1414:	fffa2849 	.word	0xfffa2849
    1418:	12bf507d 	.word	0x12bf507d
    141c:	0012d687 	.word	0x0012d687

00001420 <validate_mars_kiss64_seed>:
    1420:	e5903004 	ldr	r3, [r0, #4]
    1424:	e59f2030 	ldr	r2, [pc, #48]	; 145c <validate_mars_kiss64_seed+0x3c>
    1428:	e3530000 	cmp	r3, #0
    142c:	059f302c 	ldreq	r3, [pc, #44]	; 1460 <validate_mars_kiss64_seed+0x40>
    1430:	05803004 	streq	r3, [r0, #4]
    1434:	e590300c 	ldr	r3, [r0, #12]
    1438:	e1a01123 	lsr	r1, r3, #2
    143c:	e082c291 	umull	ip, r2, r1, r2
    1440:	e59f101c 	ldr	r1, [pc, #28]	; 1464 <validate_mars_kiss64_seed+0x44>
    1444:	e1a02d22 	lsr	r2, r2, #26
    1448:	e0020291 	mul	r2, r1, r2
    144c:	e0623003 	rsb	r3, r2, r3
    1450:	e2833001 	add	r3, r3, #1
    1454:	e580300c 	str	r3, [r0, #12]
    1458:	e12fff1e 	bx	lr
    145c:	6257f735 	.word	0x6257f735
    1460:	00c6d785 	.word	0x00c6d785
    1464:	29a65eac 	.word	0x29a65eac

00001468 <exponential_dist_variate>:
    1468:	e92d47f0 	push	{r4, r5, r6, r7, r8, r9, sl, lr}
    146c:	e1a07000 	mov	r7, r0
    1470:	e1a06001 	mov	r6, r1
    1474:	e3a08000 	mov	r8, #0
    1478:	e1a00006 	mov	r0, r6
    147c:	e12fff37 	blx	r7
    1480:	e1a09000 	mov	r9, r0
    1484:	e1a04000 	mov	r4, r0
    1488:	ea000003 	b	149c <exponential_dist_variate+0x34>
    148c:	e12fff37 	blx	r7
    1490:	e1550000 	cmp	r5, r0
    1494:	e1a04000 	mov	r4, r0
    1498:	9a000009 	bls	14c4 <exponential_dist_variate+0x5c>
    149c:	e1a00006 	mov	r0, r6
    14a0:	e12fff37 	blx	r7
    14a4:	e1a05000 	mov	r5, r0
    14a8:	e1540005 	cmp	r4, r5
    14ac:	e1a00006 	mov	r0, r6
    14b0:	2afffff5 	bcs	148c <exponential_dist_variate+0x24>
    14b4:	e1a00009 	mov	r0, r9
    14b8:	eb000c62 	bl	4648 <__gnu_fractusqsa>
    14bc:	e0800008 	add	r0, r0, r8
    14c0:	e8bd87f0 	pop	{r4, r5, r6, r7, r8, r9, sl, pc}
    14c4:	e3a03902 	mov	r3, #32768	; 0x8000
    14c8:	e0888003 	add	r8, r8, r3
    14cc:	eaffffe9 	b	1478 <exponential_dist_variate+0x10>

000014d0 <gaussian_dist_variate>:
    14d0:	e1a03000 	mov	r3, r0
    14d4:	e92d4010 	push	{r4, lr}
    14d8:	e1a00001 	mov	r0, r1
    14dc:	e12fff33 	blx	r3
    14e0:	e1a00840 	asr	r0, r0, #16
    14e4:	eb0000f2 	bl	18b4 <__norminv_rbits>
    14e8:	e8bd8010 	pop	{r4, pc}

000014ec <poisson_dist_variate>:
    14ec:	e3a03000 	mov	r3, #0
    14f0:	e92d41f0 	push	{r4, r5, r6, r7, r8, lr}
    14f4:	e1a08000 	mov	r8, r0
    14f8:	e0430002 	sub	r0, r3, r2
    14fc:	e1a07001 	mov	r7, r1
    1500:	eb000035 	bl	15dc <expk>
    1504:	eb000c47 	bl	4628 <__gnu_fractsausq>
    1508:	e3a04000 	mov	r4, #0
    150c:	e3e05000 	mvn	r5, #0
    1510:	e1a06000 	mov	r6, r0
    1514:	ea000000 	b	151c <poisson_dist_variate+0x30>
    1518:	e1a04003 	mov	r4, r3
    151c:	e1a00007 	mov	r0, r7
    1520:	e12fff38 	blx	r8
    1524:	e1a01000 	mov	r1, r0
    1528:	e1a00005 	mov	r0, r5
    152c:	eb000c15 	bl	4588 <__gnu_mulusq3>
    1530:	e1a01000 	mov	r1, r0
    1534:	e1a05000 	mov	r5, r0
    1538:	e1a00006 	mov	r0, r6
    153c:	eb000c27 	bl	45e0 <__gnu_cmpusq2>
    1540:	e2843001 	add	r3, r4, #1
    1544:	e3500001 	cmp	r0, #1
    1548:	3afffff2 	bcc	1518 <poisson_dist_variate+0x2c>
    154c:	e1a00004 	mov	r0, r4
    1550:	e8bd81f0 	pop	{r4, r5, r6, r7, r8, pc}

00001554 <poisson_dist_variate_exp_minus_lambda>:
    1554:	e92d41f0 	push	{r4, r5, r6, r7, r8, lr}
    1558:	e1a08000 	mov	r8, r0
    155c:	e1a07001 	mov	r7, r1
    1560:	e1a06002 	mov	r6, r2
    1564:	e3a04000 	mov	r4, #0
    1568:	e3e05000 	mvn	r5, #0
    156c:	ea000000 	b	1574 <poisson_dist_variate_exp_minus_lambda+0x20>
    1570:	e1a04003 	mov	r4, r3
    1574:	e1a00007 	mov	r0, r7
    1578:	e12fff38 	blx	r8
    157c:	e1a01000 	mov	r1, r0
    1580:	e1a00005 	mov	r0, r5
    1584:	eb000bff 	bl	4588 <__gnu_mulusq3>
    1588:	e1a01006 	mov	r1, r6
    158c:	e1a05000 	mov	r5, r0
    1590:	eb000c12 	bl	45e0 <__gnu_cmpusq2>
    1594:	e2843001 	add	r3, r4, #1
    1598:	e3500001 	cmp	r0, #1
    159c:	8afffff3 	bhi	1570 <poisson_dist_variate_exp_minus_lambda+0x1c>
    15a0:	e1a00004 	mov	r0, r4
    15a4:	e8bd81f0 	pop	{r4, r5, r6, r7, r8, pc}

000015a8 <exp_series>:
    15a8:	e59f1028 	ldr	r1, [pc, #40]	; 15d8 <exp_series+0x30>
    15ac:	e92d0030 	push	{r4, r5}
    15b0:	e0832190 	umull	r2, r3, r0, r1
    15b4:	e26334ff 	rsb	r3, r3, #-16777216	; 0xff000000
    15b8:	e283373a 	add	r3, r3, #15204352	; 0xe80000
    15bc:	e2833c9d 	add	r3, r3, #40192	; 0x9d00
    15c0:	e2833060 	add	r3, r3, #96	; 0x60
    15c4:	e0854093 	umull	r4, r5, r3, r0
    15c8:	e2850d52 	add	r0, r5, #5248	; 0x1480
    15cc:	e280002e 	add	r0, r0, #46	; 0x2e
    15d0:	e8bd0030 	pop	{r4, r5}
    15d4:	e12fff1e 	bx	lr
    15d8:	7c130fe0 	.word	0x7c130fe0

000015dc <expk>:
    15dc:	e59f3124 	ldr	r3, [pc, #292]	; 1708 <expk+0x12c>
    15e0:	e1500003 	cmp	r0, r3
    15e4:	ca00003f 	bgt	16e8 <expk+0x10c>
    15e8:	e59f311c 	ldr	r3, [pc, #284]	; 170c <expk+0x130>
    15ec:	e1500003 	cmp	r0, r3
    15f0:	ba00003a 	blt	16e0 <expk+0x104>
    15f4:	e1a027c0 	asr	r2, r0, #15
    15f8:	e0400782 	sub	r0, r0, r2, lsl #15
    15fc:	e3500000 	cmp	r0, #0
    1600:	da00003a 	ble	16f0 <expk+0x114>
    1604:	e59f3104 	ldr	r3, [pc, #260]	; 1710 <expk+0x134>
    1608:	e2600902 	rsb	r0, r0, #32768	; 0x8000
    160c:	e1a015c0 	asr	r1, r0, #11
    1610:	e0831101 	add	r1, r3, r1, lsl #2
    1614:	e0833182 	add	r3, r3, r2, lsl #3
    1618:	e92d43f0 	push	{r4, r5, r6, r7, r8, r9, lr}
    161c:	e591c0d0 	ldr	ip, [r1, #208]	; 0xd0
    1620:	e1c347d0 	ldrd	r4, [r3, #112]	; 0x70
    1624:	e3a07000 	mov	r7, #0
    1628:	e0898c94 	umull	r8, r9, r4, ip
    162c:	e1a06009 	mov	r6, r9
    1630:	e3a09000 	mov	r9, #0
    1634:	e1a02008 	mov	r2, r8
    1638:	e1570009 	cmp	r7, r9
    163c:	e3e08106 	mvn	r8, #-2147483647	; 0x80000001
    1640:	01520008 	cmpeq	r2, r8
    1644:	9a000001 	bls	1650 <expk+0x74>
    1648:	e2966001 	adds	r6, r6, #1
    164c:	e2a77000 	adc	r7, r7, #0
    1650:	e59fe0bc 	ldr	lr, [pc, #188]	; 1714 <expk+0x138>
    1654:	e1a00880 	lsl	r0, r0, #17
    1658:	e59f10b8 	ldr	r1, [pc, #184]	; 1718 <expk+0x13c>
    165c:	e00ee000 	and	lr, lr, r0
    1660:	e083219e 	umull	r2, r3, lr, r1
    1664:	e0810c95 	umull	r0, r1, r5, ip
    1668:	e26334ff 	rsb	r3, r3, #-16777216	; 0xff000000
    166c:	e283373a 	add	r3, r3, #15204352	; 0xe80000
    1670:	e2833c9d 	add	r3, r3, #40192	; 0x9d00
    1674:	e2833060 	add	r3, r3, #96	; 0x60
    1678:	e089839e 	umull	r8, r9, lr, r3
    167c:	e0544000 	subs	r4, r4, r0
    1680:	e2893d52 	add	r3, r9, #5248	; 0x1480
    1684:	e0c55001 	sbc	r5, r5, r1
    1688:	e283302e 	add	r3, r3, #46	; 0x2e
    168c:	e0540006 	subs	r0, r4, r6
    1690:	e0898390 	umull	r8, r9, r0, r3
    1694:	e0c51007 	sbc	r1, r5, r7
    1698:	e1a04009 	mov	r4, r9
    169c:	e3a05000 	mov	r5, #0
    16a0:	e3a09000 	mov	r9, #0
    16a4:	e1a06008 	mov	r6, r8
    16a8:	e1550009 	cmp	r5, r9
    16ac:	e3e08106 	mvn	r8, #-2147483647	; 0x80000001
    16b0:	01560008 	cmpeq	r6, r8
    16b4:	9a000001 	bls	16c0 <expk+0xe4>
    16b8:	e2944001 	adds	r4, r4, #1
    16bc:	e2a55000 	adc	r5, r5, #0
    16c0:	e0876391 	umull	r6, r7, r1, r3
    16c4:	e0500006 	subs	r0, r0, r6
    16c8:	e0c11007 	sbc	r1, r1, r7
    16cc:	e0502004 	subs	r2, r0, r4
    16d0:	e0c13005 	sbc	r3, r1, r5
    16d4:	e1a008a2 	lsr	r0, r2, #17
    16d8:	e1800783 	orr	r0, r0, r3, lsl #15
    16dc:	e8bd83f0 	pop	{r4, r5, r6, r7, r8, r9, pc}
    16e0:	e3a00000 	mov	r0, #0
    16e4:	e12fff1e 	bx	lr
    16e8:	e3e00102 	mvn	r0, #-2147483648	; 0x80000000
    16ec:	e12fff1e 	bx	lr
    16f0:	e59f3018 	ldr	r3, [pc, #24]	; 1710 <expk+0x134>
    16f4:	e0833182 	add	r3, r3, r2, lsl #3
    16f8:	e1c326d8 	ldrd	r2, [r3, #104]	; 0x68
    16fc:	e1a008a2 	lsr	r0, r2, #17
    1700:	e1800783 	orr	r0, r0, r3, lsl #15
    1704:	e12fff1e 	bx	lr
    1708:	00058b90 	.word	0x00058b90
    170c:	fffacd29 	.word	0xfffacd29
    1710:	00004860 	.word	0x00004860
    1714:	0ffe0000 	.word	0x0ffe0000
    1718:	7c130fe0 	.word	0x7c130fe0

0000171c <lo_approx>:
    171c:	e59fc04c 	ldr	ip, [pc, #76]	; 1770 <lo_approx+0x54>
    1720:	e0803100 	add	r3, r0, r0, lsl #2
    1724:	e1a03103 	lsl	r3, r3, #2
    1728:	e08c2003 	add	r2, ip, r3
    172c:	e79c3003 	ldr	r3, [ip, r3]
    1730:	e592c004 	ldr	ip, [r2, #4]
    1734:	e123c183 	smlawb	r3, r3, r1, ip
    1738:	e592c008 	ldr	ip, [r2, #8]
    173c:	e123c183 	smlawb	r3, r3, r1, ip
    1740:	e592c00c 	ldr	ip, [r2, #12]
    1744:	e123c183 	smlawb	r3, r3, r1, ip
    1748:	e5922010 	ldr	r2, [r2, #16]
    174c:	e1212183 	smlawb	r1, r3, r1, r2
    1750:	e59f201c 	ldr	r2, [pc, #28]	; 1774 <lo_approx+0x58>
    1754:	e1a03741 	asr	r3, r1, #14
    1758:	e2033001 	and	r3, r3, #1
    175c:	e7920100 	ldr	r0, [r2, r0, lsl #2]
    1760:	e08317c1 	add	r1, r3, r1, asr #15
    1764:	e1a01781 	lsl	r1, r1, #15
    1768:	e0800841 	add	r0, r0, r1, asr #16
    176c:	e12fff1e 	bx	lr
    1770:	00400020 	.word	0x00400020
    1774:	00004970 	.word	0x00004970

00001778 <mid_approx>:
    1778:	e2800005 	add	r0, r0, #5
    177c:	e59fc034 	ldr	ip, [pc, #52]	; 17b8 <mid_approx+0x40>
    1780:	e0800100 	add	r0, r0, r0, lsl #2
    1784:	e1a03100 	lsl	r3, r0, #2
    1788:	e08c2003 	add	r2, ip, r3
    178c:	e5920004 	ldr	r0, [r2, #4]
    1790:	e79c3003 	ldr	r3, [ip, r3]
    1794:	e1230183 	smlawb	r3, r3, r1, r0
    1798:	e5920008 	ldr	r0, [r2, #8]
    179c:	e1230183 	smlawb	r3, r3, r1, r0
    17a0:	e592000c 	ldr	r0, [r2, #12]
    17a4:	e1230183 	smlawb	r3, r3, r1, r0
    17a8:	e5920010 	ldr	r0, [r2, #16]
    17ac:	e1200183 	smlawb	r0, r3, r1, r0
    17b0:	e0800701 	add	r0, r0, r1, lsl #14
    17b4:	e12fff1e 	bx	lr
    17b8:	00400020 	.word	0x00400020

000017bc <tail_approx>:
    17bc:	e2602009 	rsb	r2, r0, #9
    17c0:	e92d4010 	push	{r4, lr}
    17c4:	e260c00e 	rsb	ip, r0, #14
    17c8:	e59f405c 	ldr	r4, [pc, #92]	; 182c <tail_approx+0x70>
    17cc:	e3a03001 	mov	r3, #1
    17d0:	e082e102 	add	lr, r2, r2, lsl #2
    17d4:	e0411c13 	sub	r1, r1, r3, lsl ip
    17d8:	e1a0e10e 	lsl	lr, lr, #2
    17dc:	e084c00e 	add	ip, r4, lr
    17e0:	e0800003 	add	r0, r0, r3
    17e4:	e1a00011 	lsl	r0, r1, r0
    17e8:	e794300e 	ldr	r3, [r4, lr]
    17ec:	e59ce004 	ldr	lr, [ip, #4]
    17f0:	e123e083 	smlawb	r3, r3, r0, lr
    17f4:	e59c1008 	ldr	r1, [ip, #8]
    17f8:	e1231083 	smlawb	r3, r3, r0, r1
    17fc:	e59c100c 	ldr	r1, [ip, #12]
    1800:	e1231083 	smlawb	r3, r3, r0, r1
    1804:	e59c1010 	ldr	r1, [ip, #16]
    1808:	e1211083 	smlawb	r1, r3, r0, r1
    180c:	e59f001c 	ldr	r0, [pc, #28]	; 1830 <tail_approx+0x74>
    1810:	e1a03741 	asr	r3, r1, #14
    1814:	e2033001 	and	r3, r3, #1
    1818:	e7900102 	ldr	r0, [r0, r2, lsl #2]
    181c:	e08317c1 	add	r1, r3, r1, asr #15
    1820:	e1a01781 	lsl	r1, r1, #15
    1824:	e0800841 	add	r0, r0, r1, asr #16
    1828:	e8bd8010 	pop	{r4, pc}
    182c:	00400020 	.word	0x00400020
    1830:	00004970 	.word	0x00004970

00001834 <central_approx>:
    1834:	e92d40f0 	push	{r4, r5, r6, r7, lr}
    1838:	e1630181 	smulbb	r3, r1, r1
    183c:	e59f7068 	ldr	r7, [pc, #104]	; 18ac <central_approx+0x78>
    1840:	e2602005 	rsb	r2, r0, #5
    1844:	e0872102 	add	r2, r7, r2, lsl #2
    1848:	e592c02c 	ldr	ip, [r2, #44]	; 0x2c
    184c:	e5922044 	ldr	r2, [r2, #68]	; 0x44
    1850:	e06c38c3 	rsb	r3, ip, r3, asr #17
    1854:	e260e00a 	rsb	lr, r0, #10
    1858:	e0040392 	mul	r4, r2, r3
    185c:	e59f204c 	ldr	r2, [pc, #76]	; 18b0 <central_approx+0x7c>
    1860:	e08e310e 	add	r3, lr, lr, lsl #2
    1864:	e1a03103 	lsl	r3, r3, #2
    1868:	e0826003 	add	r6, r2, r3
    186c:	e792c003 	ldr	ip, [r2, r3]
    1870:	e1a05084 	lsl	r5, r4, #1
    1874:	e5962004 	ldr	r2, [r6, #4]
    1878:	e12c258c 	smlawb	ip, ip, r5, r2
    187c:	e5962008 	ldr	r2, [r6, #8]
    1880:	e12c258c 	smlawb	ip, ip, r5, r2
    1884:	e596200c 	ldr	r2, [r6, #12]
    1888:	e12c258c 	smlawb	ip, ip, r5, r2
    188c:	e5963010 	ldr	r3, [r6, #16]
    1890:	e122358c 	smlawb	r2, ip, r5, r3
    1894:	e797010e 	ldr	r0, [r7, lr, lsl #2]
    1898:	e0823784 	add	r3, r2, r4, lsl #15
    189c:	e1a00680 	lsl	r0, r0, #13
    18a0:	e0803843 	add	r3, r0, r3, asr #16
    18a4:	e12001a3 	smulwb	r0, r3, r1
    18a8:	e8bd80f0 	pop	{r4, r5, r6, r7, pc}
    18ac:	00004970 	.word	0x00004970
    18b0:	00400020 	.word	0x00400020

000018b4 <__norminv_rbits>:
    18b4:	e59f2148 	ldr	r2, [pc, #328]	; 1a04 <__norminv_rbits+0x150>
    18b8:	e1a03000 	mov	r3, r0
    18bc:	e1500002 	cmp	r0, r2
    18c0:	aa000005 	bge	18dc <__norminv_rbits+0x28>
    18c4:	e59f213c 	ldr	r2, [pc, #316]	; 1a08 <__norminv_rbits+0x154>
    18c8:	e2803902 	add	r3, r0, #32768	; 0x8000
    18cc:	e0823103 	add	r3, r2, r3, lsl #2
    18d0:	e593005c 	ldr	r0, [r3, #92]	; 0x5c
    18d4:	e2600000 	rsb	r0, r0, #0
    18d8:	e12fff1e 	bx	lr
    18dc:	e2602902 	rsb	r2, r0, #32768	; 0x8000
    18e0:	e352001f 	cmp	r2, #31
    18e4:	e92d41f0 	push	{r4, r5, r6, r7, r8, lr}
    18e8:	ca000005 	bgt	1904 <__norminv_rbits+0x50>
    18ec:	e59f1114 	ldr	r1, [pc, #276]	; 1a08 <__norminv_rbits+0x154>
    18f0:	e0812102 	add	r2, r1, r2, lsl #2
    18f4:	e592005c 	ldr	r0, [r2, #92]	; 0x5c
    18f8:	e3530000 	cmp	r3, #0
    18fc:	b2600000 	rsblt	r0, r0, #0
    1900:	e8bd81f0 	pop	{r4, r5, r6, r7, r8, pc}
    1904:	e0204fc0 	eor	r4, r0, r0, asr #31
    1908:	e0444fc0 	sub	r4, r4, r0, asr #31
    190c:	e2641902 	rsb	r1, r4, #32768	; 0x8000
    1910:	e16fcf11 	clz	ip, r1
    1914:	e24c2011 	sub	r2, ip, #17
    1918:	e3520004 	cmp	r2, #4
    191c:	da00001a 	ble	198c <__norminv_rbits+0xd8>
    1920:	e262e009 	rsb	lr, r2, #9
    1924:	e59f50e0 	ldr	r5, [pc, #224]	; 1a0c <__norminv_rbits+0x158>
    1928:	e262200e 	rsb	r2, r2, #14
    192c:	e3a00001 	mov	r0, #1
    1930:	e08e410e 	add	r4, lr, lr, lsl #2
    1934:	e0411210 	sub	r1, r1, r0, lsl r2
    1938:	e1a04104 	lsl	r4, r4, #2
    193c:	e24c2010 	sub	r2, ip, #16
    1940:	e0850004 	add	r0, r5, r4
    1944:	e1a02211 	lsl	r2, r1, r2
    1948:	e590c004 	ldr	ip, [r0, #4]
    194c:	e7951004 	ldr	r1, [r5, r4]
    1950:	e121c281 	smlawb	r1, r1, r2, ip
    1954:	e590c008 	ldr	ip, [r0, #8]
    1958:	e121c281 	smlawb	r1, r1, r2, ip
    195c:	e590c00c 	ldr	ip, [r0, #12]
    1960:	e121c281 	smlawb	r1, r1, r2, ip
    1964:	e5900010 	ldr	r0, [r0, #16]
    1968:	e1210281 	smlawb	r1, r1, r2, r0
    196c:	e59f2094 	ldr	r2, [pc, #148]	; 1a08 <__norminv_rbits+0x154>
    1970:	e1a00741 	asr	r0, r1, #14
    1974:	e2000001 	and	r0, r0, #1
    1978:	e792210e 	ldr	r2, [r2, lr, lsl #2]
    197c:	e08007c1 	add	r0, r0, r1, asr #15
    1980:	e1a00780 	lsl	r0, r0, #15
    1984:	e0820840 	add	r0, r2, r0, asr #16
    1988:	eaffffda 	b	18f8 <__norminv_rbits+0x44>
    198c:	e24cc010 	sub	ip, ip, #16
    1990:	e1650484 	smulbb	r5, r4, r4
    1994:	e59f806c 	ldr	r8, [pc, #108]	; 1a08 <__norminv_rbits+0x154>
    1998:	e26c1005 	rsb	r1, ip, #5
    199c:	e0881101 	add	r1, r8, r1, lsl #2
    19a0:	e591602c 	ldr	r6, [r1, #44]	; 0x2c
    19a4:	e5910044 	ldr	r0, [r1, #68]	; 0x44
    19a8:	e26ce00a 	rsb	lr, ip, #10
    19ac:	e06628c5 	rsb	r2, r6, r5, asr #17
    19b0:	e0050290 	mul	r5, r0, r2
    19b4:	e59f1050 	ldr	r1, [pc, #80]	; 1a0c <__norminv_rbits+0x158>
    19b8:	e08e210e 	add	r2, lr, lr, lsl #2
    19bc:	e1a02102 	lsl	r2, r2, #2
    19c0:	e0817002 	add	r7, r1, r2
    19c4:	e791c002 	ldr	ip, [r1, r2]
    19c8:	e1a06085 	lsl	r6, r5, #1
    19cc:	e5971004 	ldr	r1, [r7, #4]
    19d0:	e12c168c 	smlawb	ip, ip, r6, r1
    19d4:	e5971008 	ldr	r1, [r7, #8]
    19d8:	e12c168c 	smlawb	ip, ip, r6, r1
    19dc:	e597100c 	ldr	r1, [r7, #12]
    19e0:	e12c168c 	smlawb	ip, ip, r6, r1
    19e4:	e5970010 	ldr	r0, [r7, #16]
    19e8:	e121068c 	smlawb	r1, ip, r6, r0
    19ec:	e798210e 	ldr	r2, [r8, lr, lsl #2]
    19f0:	e0810785 	add	r0, r1, r5, lsl #15
    19f4:	e1a02682 	lsl	r2, r2, #13
    19f8:	e0822840 	add	r2, r2, r0, asr #16
    19fc:	e12004a2 	smulwb	r0, r2, r4
    1a00:	eaffffbc 	b	18f8 <__norminv_rbits+0x44>
    1a04:	ffff8020 	.word	0xffff8020
    1a08:	00004970 	.word	0x00004970
    1a0c:	00400020 	.word	0x00400020

00001a10 <__norminv_ulrbits>:
    1a10:	e92d4010 	push	{r4, lr}
    1a14:	e3a030f3 	mov	r3, #243	; 0xf3
    1a18:	e1a04000 	mov	r4, r0
    1a1c:	e59f2010 	ldr	r2, [pc, #16]	; 1a34 <__norminv_ulrbits+0x24>
    1a20:	e59f1010 	ldr	r1, [pc, #16]	; 1a38 <__norminv_ulrbits+0x28>
    1a24:	e3a00002 	mov	r0, #2
    1a28:	fa0002d4 	blx	2580 <io_printf>
    1a2c:	e1a00004 	mov	r0, r4
    1a30:	e8bd8010 	pop	{r4, pc}
    1a34:	00004a50 	.word	0x00004a50
    1a38:	00004a60 	.word	0x00004a60

00001a3c <rte_handler>:
    1a3c:	4b01      	ldr	r3, [pc, #4]	; (1a44 <rte_handler+0x8>)
    1a3e:	2208      	movs	r2, #8
    1a40:	701a      	strb	r2, [r3, #0]
    1a42:	4770      	bx	lr
    1a44:	e5007f2b 	.word	0xe5007f2b

00001a48 <sark_cpu_state>:
    1a48:	4b02      	ldr	r3, [pc, #8]	; (1a54 <sark_cpu_state+0xc>)
    1a4a:	69db      	ldr	r3, [r3, #28]
    1a4c:	332e      	adds	r3, #46	; 0x2e
    1a4e:	7018      	strb	r0, [r3, #0]
    1a50:	4770      	bx	lr
    1a52:	46c0      	nop			; (mov r8, r8)
    1a54:	00400724 	.word	0x00400724

00001a58 <sark_app_lead>:
    1a58:	235c      	movs	r3, #92	; 0x5c
    1a5a:	4a03      	ldr	r2, [pc, #12]	; (1a68 <sark_app_lead+0x10>)
    1a5c:	781b      	ldrb	r3, [r3, #0]
    1a5e:	6812      	ldr	r2, [r2, #0]
    1a60:	00db      	lsls	r3, r3, #3
    1a62:	18d3      	adds	r3, r2, r3
    1a64:	78d8      	ldrb	r0, [r3, #3]
    1a66:	4770      	bx	lr
    1a68:	e5007fe4 	.word	0xe5007fe4

00001a6c <sark_block_init>:
    1a6c:	b530      	push	{r4, r5, lr}
    1a6e:	000b      	movs	r3, r1
    1a70:	0004      	movs	r4, r0
    1a72:	3b01      	subs	r3, #1
    1a74:	2b00      	cmp	r3, #0
    1a76:	d003      	beq.n	1a80 <sark_block_init+0x14>
    1a78:	18a5      	adds	r5, r4, r2
    1a7a:	6025      	str	r5, [r4, #0]
    1a7c:	002c      	movs	r4, r5
    1a7e:	e7f8      	b.n	1a72 <sark_block_init+0x6>
    1a80:	3901      	subs	r1, #1
    1a82:	4351      	muls	r1, r2
    1a84:	1840      	adds	r0, r0, r1
    1a86:	6003      	str	r3, [r0, #0]
    1a88:	bd30      	pop	{r4, r5, pc}
	...

00001a8c <sark_msg_get>:
    1a8c:	b510      	push	{r4, lr}
    1a8e:	f7fe eb9c 	blx	1c8 <cpu_int_disable>
    1a92:	4a09      	ldr	r2, [pc, #36]	; (1ab8 <sark_msg_get+0x2c>)
    1a94:	6a14      	ldr	r4, [r2, #32]
    1a96:	2c00      	cmp	r4, #0
    1a98:	d00a      	beq.n	1ab0 <sark_msg_get+0x24>
    1a9a:	6823      	ldr	r3, [r4, #0]
    1a9c:	6213      	str	r3, [r2, #32]
    1a9e:	8c93      	ldrh	r3, [r2, #36]	; 0x24
    1aa0:	8cd1      	ldrh	r1, [r2, #38]	; 0x26
    1aa2:	3301      	adds	r3, #1
    1aa4:	041b      	lsls	r3, r3, #16
    1aa6:	0c1b      	lsrs	r3, r3, #16
    1aa8:	8493      	strh	r3, [r2, #36]	; 0x24
    1aaa:	4299      	cmp	r1, r3
    1aac:	d200      	bcs.n	1ab0 <sark_msg_get+0x24>
    1aae:	84d3      	strh	r3, [r2, #38]	; 0x26
    1ab0:	f7fe eb92 	blx	1d8 <cpu_int_restore>
    1ab4:	0020      	movs	r0, r4
    1ab6:	bd10      	pop	{r4, pc}
    1ab8:	00400724 	.word	0x00400724

00001abc <sark_msg_free>:
    1abc:	b510      	push	{r4, lr}
    1abe:	0004      	movs	r4, r0
    1ac0:	f7fe eb82 	blx	1c8 <cpu_int_disable>
    1ac4:	4b04      	ldr	r3, [pc, #16]	; (1ad8 <sark_msg_free+0x1c>)
    1ac6:	6a1a      	ldr	r2, [r3, #32]
    1ac8:	6022      	str	r2, [r4, #0]
    1aca:	8c9a      	ldrh	r2, [r3, #36]	; 0x24
    1acc:	621c      	str	r4, [r3, #32]
    1ace:	3a01      	subs	r2, #1
    1ad0:	849a      	strh	r2, [r3, #36]	; 0x24
    1ad2:	f7fe eb82 	blx	1d8 <cpu_int_restore>
    1ad6:	bd10      	pop	{r4, pc}
    1ad8:	00400724 	.word	0x00400724

00001adc <sark_shmsg_get>:
    1adc:	b510      	push	{r4, lr}
    1ade:	2000      	movs	r0, #0
    1ae0:	f7fe eb82 	blx	1e8 <sark_lock_get>
    1ae4:	4a09      	ldr	r2, [pc, #36]	; (1b0c <sark_shmsg_get+0x30>)
    1ae6:	6814      	ldr	r4, [r2, #0]
    1ae8:	2c00      	cmp	r4, #0
    1aea:	d00a      	beq.n	1b02 <sark_shmsg_get+0x26>
    1aec:	6823      	ldr	r3, [r4, #0]
    1aee:	6013      	str	r3, [r2, #0]
    1af0:	8893      	ldrh	r3, [r2, #4]
    1af2:	88d1      	ldrh	r1, [r2, #6]
    1af4:	3301      	adds	r3, #1
    1af6:	041b      	lsls	r3, r3, #16
    1af8:	0c1b      	lsrs	r3, r3, #16
    1afa:	8093      	strh	r3, [r2, #4]
    1afc:	4299      	cmp	r1, r3
    1afe:	d200      	bcs.n	1b02 <sark_shmsg_get+0x26>
    1b00:	80d3      	strh	r3, [r2, #6]
    1b02:	2100      	movs	r1, #0
    1b04:	f7fe eb82 	blx	20c <sark_lock_free>
    1b08:	0020      	movs	r0, r4
    1b0a:	bd10      	pop	{r4, pc}
    1b0c:	e5007f68 	.word	0xe5007f68

00001b10 <sark_shmsg_free>:
    1b10:	b510      	push	{r4, lr}
    1b12:	0004      	movs	r4, r0
    1b14:	2000      	movs	r0, #0
    1b16:	f7fe eb68 	blx	1e8 <sark_lock_get>
    1b1a:	4b05      	ldr	r3, [pc, #20]	; (1b30 <sark_shmsg_free+0x20>)
    1b1c:	2100      	movs	r1, #0
    1b1e:	681a      	ldr	r2, [r3, #0]
    1b20:	6022      	str	r2, [r4, #0]
    1b22:	889a      	ldrh	r2, [r3, #4]
    1b24:	601c      	str	r4, [r3, #0]
    1b26:	3a01      	subs	r2, #1
    1b28:	809a      	strh	r2, [r3, #4]
    1b2a:	f7fe eb70 	blx	20c <sark_lock_free>
    1b2e:	bd10      	pop	{r4, pc}
    1b30:	e5007f68 	.word	0xe5007f68

00001b34 <sark_call_cpp_constructors>:
    1b34:	b510      	push	{r4, lr}
    1b36:	4c04      	ldr	r4, [pc, #16]	; (1b48 <sark_call_cpp_constructors+0x14>)
    1b38:	4b04      	ldr	r3, [pc, #16]	; (1b4c <sark_call_cpp_constructors+0x18>)
    1b3a:	429c      	cmp	r4, r3
    1b3c:	d202      	bcs.n	1b44 <sark_call_cpp_constructors+0x10>
    1b3e:	cc08      	ldmia	r4!, {r3}
    1b40:	4798      	blx	r3
    1b42:	e7f9      	b.n	1b38 <sark_call_cpp_constructors+0x4>
    1b44:	bd10      	pop	{r4, pc}
    1b46:	46c0      	nop			; (mov r8, r8)
    1b48:	000046d8 	.word	0x000046d8
    1b4c:	000046d8 	.word	0x000046d8

00001b50 <sark_init>:
    1b50:	b570      	push	{r4, r5, r6, lr}
    1b52:	2520      	movs	r5, #32
    1b54:	0004      	movs	r4, r0
    1b56:	8c28      	ldrh	r0, [r5, #32]
    1b58:	8c6a      	ldrh	r2, [r5, #34]	; 0x22
    1b5a:	0080      	lsls	r0, r0, #2
    1b5c:	1a20      	subs	r0, r4, r0
    1b5e:	21d2      	movs	r1, #210	; 0xd2
    1b60:	f7fe eb16 	blx	190 <cpu_init_mode>
    1b64:	8caa      	ldrh	r2, [r5, #36]	; 0x24
    1b66:	21d1      	movs	r1, #209	; 0xd1
    1b68:	f7fe eb12 	blx	190 <cpu_init_mode>
    1b6c:	2200      	movs	r2, #0
    1b6e:	21df      	movs	r1, #223	; 0xdf
    1b70:	f7fe eb0e 	blx	190 <cpu_init_mode>
    1b74:	8ce9      	ldrh	r1, [r5, #38]	; 0x26
    1b76:	2658      	movs	r6, #88	; 0x58
    1b78:	0889      	lsrs	r1, r1, #2
    1b7a:	0089      	lsls	r1, r1, #2
    1b7c:	1a61      	subs	r1, r4, r1
    1b7e:	4c35      	ldr	r4, [pc, #212]	; (1c54 <sark_init+0x104>)
    1b80:	6121      	str	r1, [r4, #16]
    1b82:	6ae8      	ldr	r0, [r5, #44]	; 0x2c
    1b84:	6160      	str	r0, [r4, #20]
    1b86:	f000 fbad 	bl	22e4 <sark_heap_init>
    1b8a:	4b33      	ldr	r3, [pc, #204]	; (1c58 <sark_init+0x108>)
    1b8c:	4a33      	ldr	r2, [pc, #204]	; (1c5c <sark_init+0x10c>)
    1b8e:	681b      	ldr	r3, [r3, #0]
    1b90:	4d33      	ldr	r5, [pc, #204]	; (1c60 <sark_init+0x110>)
    1b92:	0e1b      	lsrs	r3, r3, #24
    1b94:	6063      	str	r3, [r4, #4]
    1b96:	189b      	adds	r3, r3, r2
    1b98:	2192      	movs	r1, #146	; 0x92
    1b9a:	0049      	lsls	r1, r1, #1
    1b9c:	61a0      	str	r0, [r4, #24]
    1b9e:	781b      	ldrb	r3, [r3, #0]
    1ba0:	6023      	str	r3, [r4, #0]
    1ba2:	8cab      	ldrh	r3, [r5, #36]	; 0x24
    1ba4:	8623      	strh	r3, [r4, #48]	; 0x30
    1ba6:	4b2f      	ldr	r3, [pc, #188]	; (1c64 <sark_init+0x114>)
    1ba8:	60a3      	str	r3, [r4, #8]
    1baa:	7830      	ldrb	r0, [r6, #0]
    1bac:	f000 fb8e 	bl	22cc <sark_alloc>
    1bb0:	2292      	movs	r2, #146	; 0x92
    1bb2:	0052      	lsls	r2, r2, #1
    1bb4:	6220      	str	r0, [r4, #32]
    1bb6:	7831      	ldrb	r1, [r6, #0]
    1bb8:	f7ff ff58 	bl	1a6c <sark_block_init>
    1bbc:	4b2a      	ldr	r3, [pc, #168]	; (1c68 <sark_init+0x118>)
    1bbe:	681a      	ldr	r2, [r3, #0]
    1bc0:	231f      	movs	r3, #31
    1bc2:	4013      	ands	r3, r2
    1bc4:	6862      	ldr	r2, [r4, #4]
    1bc6:	429a      	cmp	r2, r3
    1bc8:	d02f      	beq.n	1c2a <sark_init+0xda>
    1bca:	6823      	ldr	r3, [r4, #0]
    1bcc:	4a27      	ldr	r2, [pc, #156]	; (1c6c <sark_init+0x11c>)
    1bce:	01d8      	lsls	r0, r3, #7
    1bd0:	1880      	adds	r0, r0, r2
    1bd2:	6daa      	ldr	r2, [r5, #88]	; 0x58
    1bd4:	61e0      	str	r0, [r4, #28]
    1bd6:	435a      	muls	r2, r3
    1bd8:	0093      	lsls	r3, r2, #2
    1bda:	6d6a      	ldr	r2, [r5, #84]	; 0x54
    1bdc:	2100      	movs	r1, #0
    1bde:	18d3      	adds	r3, r2, r3
    1be0:	2270      	movs	r2, #112	; 0x70
    1be2:	6363      	str	r3, [r4, #52]	; 0x34
    1be4:	f7fe eb26 	blx	234 <sark_word_set>
    1be8:	69e0      	ldr	r0, [r4, #28]
    1bea:	2205      	movs	r2, #5
    1bec:	0003      	movs	r3, r0
    1bee:	332e      	adds	r3, #46	; 0x2e
    1bf0:	701a      	strb	r2, [r3, #0]
    1bf2:	6862      	ldr	r2, [r4, #4]
    1bf4:	3b01      	subs	r3, #1
    1bf6:	701a      	strb	r2, [r3, #0]
    1bf8:	235c      	movs	r3, #92	; 0x5c
    1bfa:	781a      	ldrb	r2, [r3, #0]
    1bfc:	0003      	movs	r3, r0
    1bfe:	332f      	adds	r3, #47	; 0x2f
    1c00:	701a      	strb	r2, [r3, #0]
    1c02:	69eb      	ldr	r3, [r5, #28]
    1c04:	6443      	str	r3, [r0, #68]	; 0x44
    1c06:	4b1a      	ldr	r3, [pc, #104]	; (1c70 <sark_init+0x120>)
    1c08:	65c3      	str	r3, [r0, #92]	; 0x5c
    1c0a:	491a      	ldr	r1, [pc, #104]	; (1c74 <sark_init+0x124>)
    1c0c:	3048      	adds	r0, #72	; 0x48
    1c0e:	f7fe eb08 	blx	220 <sark_str_cpy>
    1c12:	4b19      	ldr	r3, [pc, #100]	; (1c78 <sark_init+0x128>)
    1c14:	681a      	ldr	r2, [r3, #0]
    1c16:	23ff      	movs	r3, #255	; 0xff
    1c18:	041b      	lsls	r3, r3, #16
    1c1a:	4013      	ands	r3, r2
    1c1c:	22c0      	movs	r2, #192	; 0xc0
    1c1e:	0292      	lsls	r2, r2, #10
    1c20:	4293      	cmp	r3, r2
    1c22:	d002      	beq.n	1c2a <sark_init+0xda>
    1c24:	2014      	movs	r0, #20
    1c26:	f7fe ea82 	blx	12c <rt_error>
    1c2a:	f000 fa3b 	bl	20a4 <sark_vic_init>
    1c2e:	2359      	movs	r3, #89	; 0x59
    1c30:	7818      	ldrb	r0, [r3, #0]
    1c32:	2201      	movs	r2, #1
    1c34:	4b11      	ldr	r3, [pc, #68]	; (1c7c <sark_init+0x12c>)
    1c36:	2112      	movs	r1, #18
    1c38:	f000 fa5c 	bl	20f4 <sark_vic_set>
    1c3c:	2201      	movs	r2, #1
    1c3e:	2106      	movs	r1, #6
    1c40:	4b0f      	ldr	r3, [pc, #60]	; (1c80 <sark_init+0x130>)
    1c42:	2010      	movs	r0, #16
    1c44:	f000 fa56 	bl	20f4 <sark_vic_set>
    1c48:	235a      	movs	r3, #90	; 0x5a
    1c4a:	7818      	ldrb	r0, [r3, #0]
    1c4c:	f000 fa0c 	bl	2068 <event_alloc>
    1c50:	201f      	movs	r0, #31
    1c52:	bd70      	pop	{r4, r5, r6, pc}
    1c54:	00400724 	.word	0x00400724
    1c58:	40000014 	.word	0x40000014
    1c5c:	e5007f94 	.word	0xe5007f94
    1c60:	e5007f00 	.word	0xe5007f00
    1c64:	deaddead 	.word	0xdeaddead
    1c68:	e2000034 	.word	0xe2000034
    1c6c:	e5007000 	.word	0xe5007000
    1c70:	00030001 	.word	0x00030001
    1c74:	00004850 	.word	0x00004850
    1c78:	e5007ffc 	.word	0xe5007ffc
    1c7c:	000002ec 	.word	0x000002ec
    1c80:	000021dc 	.word	0x000021dc

00001c84 <sark_msg_send>:
    1c84:	b5f8      	push	{r3, r4, r5, r6, r7, lr}
    1c86:	0004      	movs	r4, r0
    1c88:	000f      	movs	r7, r1
    1c8a:	f7ff ff27 	bl	1adc <sark_shmsg_get>
    1c8e:	1e06      	subs	r6, r0, #0
    1c90:	d038      	beq.n	1d04 <sark_msg_send+0x80>
    1c92:	0021      	movs	r1, r4
    1c94:	f7fe eae0 	blx	258 <sark_msg_cpy>
    1c98:	4d1b      	ldr	r5, [pc, #108]	; (1d08 <sark_msg_send+0x84>)
    1c9a:	2401      	movs	r4, #1
    1c9c:	69eb      	ldr	r3, [r5, #28]
    1c9e:	0020      	movs	r0, r4
    1ca0:	635e      	str	r6, [r3, #52]	; 0x34
    1ca2:	3339      	adds	r3, #57	; 0x39
    1ca4:	701c      	strb	r4, [r3, #0]
    1ca6:	f7fe eaa0 	blx	1e8 <sark_lock_get>
    1caa:	4b18      	ldr	r3, [pc, #96]	; (1d0c <sark_msg_send+0x88>)
    1cac:	6829      	ldr	r1, [r5, #0]
    1cae:	681a      	ldr	r2, [r3, #0]
    1cb0:	469c      	mov	ip, r3
    1cb2:	0023      	movs	r3, r4
    1cb4:	408b      	lsls	r3, r1
    1cb6:	4313      	orrs	r3, r2
    1cb8:	4661      	mov	r1, ip
    1cba:	600b      	str	r3, [r1, #0]
    1cbc:	2a00      	cmp	r2, #0
    1cbe:	d106      	bne.n	1cce <sark_msg_send+0x4a>
    1cc0:	4b13      	ldr	r3, [pc, #76]	; (1d10 <sark_msg_send+0x8c>)
    1cc2:	781b      	ldrb	r3, [r3, #0]
    1cc4:	409c      	lsls	r4, r3
    1cc6:	4b13      	ldr	r3, [pc, #76]	; (1d14 <sark_msg_send+0x90>)
    1cc8:	18e4      	adds	r4, r4, r3
    1cca:	4b13      	ldr	r3, [pc, #76]	; (1d18 <sark_msg_send+0x94>)
    1ccc:	601c      	str	r4, [r3, #0]
    1cce:	2101      	movs	r1, #1
    1cd0:	f7fe ea9c 	blx	20c <sark_lock_free>
    1cd4:	4b11      	ldr	r3, [pc, #68]	; (1d1c <sark_msg_send+0x98>)
    1cd6:	6818      	ldr	r0, [r3, #0]
    1cd8:	001a      	movs	r2, r3
    1cda:	69eb      	ldr	r3, [r5, #28]
    1cdc:	3339      	adds	r3, #57	; 0x39
    1cde:	7819      	ldrb	r1, [r3, #0]
    1ce0:	2900      	cmp	r1, #0
    1ce2:	d003      	beq.n	1cec <sark_msg_send+0x68>
    1ce4:	6811      	ldr	r1, [r2, #0]
    1ce6:	1a09      	subs	r1, r1, r0
    1ce8:	42b9      	cmp	r1, r7
    1cea:	d9f8      	bls.n	1cde <sark_msg_send+0x5a>
    1cec:	781b      	ldrb	r3, [r3, #0]
    1cee:	2b00      	cmp	r3, #0
    1cf0:	d004      	beq.n	1cfc <sark_msg_send+0x78>
    1cf2:	0030      	movs	r0, r6
    1cf4:	f7ff ff0c 	bl	1b10 <sark_shmsg_free>
    1cf8:	2000      	movs	r0, #0
    1cfa:	e003      	b.n	1d04 <sark_msg_send+0x80>
    1cfc:	6aeb      	ldr	r3, [r5, #44]	; 0x2c
    1cfe:	2001      	movs	r0, #1
    1d00:	3301      	adds	r3, #1
    1d02:	62eb      	str	r3, [r5, #44]	; 0x2c
    1d04:	bdf8      	pop	{r3, r4, r5, r6, r7, pc}
    1d06:	46c0      	nop			; (mov r8, r8)
    1d08:	00400724 	.word	0x00400724
    1d0c:	e5007fec 	.word	0xe5007fec
    1d10:	e5007fa8 	.word	0xe5007fa8
    1d14:	5ec00000 	.word	0x5ec00000
    1d18:	e2000008 	.word	0xe2000008
    1d1c:	e5007f10 	.word	0xe5007f10

00001d20 <sark_cmd_ver>:
    1d20:	4b0d      	ldr	r3, [pc, #52]	; (1d58 <sark_cmd_ver+0x38>)
    1d22:	b510      	push	{r4, lr}
    1d24:	685a      	ldr	r2, [r3, #4]
    1d26:	681b      	ldr	r3, [r3, #0]
    1d28:	0212      	lsls	r2, r2, #8
    1d2a:	18d3      	adds	r3, r2, r3
    1d2c:	4a0b      	ldr	r2, [pc, #44]	; (1d5c <sark_cmd_ver+0x3c>)
    1d2e:	0004      	movs	r4, r0
    1d30:	8812      	ldrh	r2, [r2, #0]
    1d32:	490b      	ldr	r1, [pc, #44]	; (1d60 <sark_cmd_ver+0x40>)
    1d34:	0412      	lsls	r2, r2, #16
    1d36:	189b      	adds	r3, r3, r2
    1d38:	6143      	str	r3, [r0, #20]
    1d3a:	4b0a      	ldr	r3, [pc, #40]	; (1d64 <sark_cmd_ver+0x44>)
    1d3c:	6183      	str	r3, [r0, #24]
    1d3e:	4b0a      	ldr	r3, [pc, #40]	; (1d68 <sark_cmd_ver+0x48>)
    1d40:	681b      	ldr	r3, [r3, #0]
    1d42:	61c3      	str	r3, [r0, #28]
    1d44:	3020      	adds	r0, #32
    1d46:	f7fe ea6c 	blx	220 <sark_str_cpy>
    1d4a:	0020      	movs	r0, r4
    1d4c:	302f      	adds	r0, #47	; 0x2f
    1d4e:	4907      	ldr	r1, [pc, #28]	; (1d6c <sark_cmd_ver+0x4c>)
    1d50:	f7fe ea66 	blx	220 <sark_str_cpy>
    1d54:	2021      	movs	r0, #33	; 0x21
    1d56:	bd10      	pop	{r4, pc}
    1d58:	00400724 	.word	0x00400724
    1d5c:	e5007f00 	.word	0xe5007f00
    1d60:	00004a9c 	.word	0x00004a9c
    1d64:	ffff0100 	.word	0xffff0100
    1d68:	0000485c 	.word	0x0000485c
    1d6c:	00004aab 	.word	0x00004aab

00001d70 <sark_cmd_read>:
    1d70:	6982      	ldr	r2, [r0, #24]
    1d72:	2180      	movs	r1, #128	; 0x80
    1d74:	b530      	push	{r4, r5, lr}
    1d76:	0003      	movs	r3, r0
    1d78:	0049      	lsls	r1, r1, #1
    1d7a:	428a      	cmp	r2, r1
    1d7c:	d802      	bhi.n	1d84 <sark_cmd_read+0x14>
    1d7e:	69c0      	ldr	r0, [r0, #28]
    1d80:	2802      	cmp	r0, #2
    1d82:	d903      	bls.n	1d8c <sark_cmd_read+0x1c>
    1d84:	2284      	movs	r2, #132	; 0x84
    1d86:	821a      	strh	r2, [r3, #16]
    1d88:	2000      	movs	r0, #0
    1d8a:	e021      	b.n	1dd0 <sark_cmd_read+0x60>
    1d8c:	695c      	ldr	r4, [r3, #20]
    1d8e:	3314      	adds	r3, #20
    1d90:	2800      	cmp	r0, #0
    1d92:	d105      	bne.n	1da0 <sark_cmd_read+0x30>
    1d94:	4290      	cmp	r0, r2
    1d96:	d01b      	beq.n	1dd0 <sark_cmd_read+0x60>
    1d98:	5d01      	ldrb	r1, [r0, r4]
    1d9a:	5419      	strb	r1, [r3, r0]
    1d9c:	3001      	adds	r0, #1
    1d9e:	e7f9      	b.n	1d94 <sark_cmd_read+0x24>
    1da0:	2801      	cmp	r0, #1
    1da2:	d10a      	bne.n	1dba <sark_cmd_read+0x4a>
    1da4:	0851      	lsrs	r1, r2, #1
    1da6:	0049      	lsls	r1, r1, #1
    1da8:	1859      	adds	r1, r3, r1
    1daa:	0018      	movs	r0, r3
    1dac:	4288      	cmp	r0, r1
    1dae:	d00e      	beq.n	1dce <sark_cmd_read+0x5e>
    1db0:	1ac5      	subs	r5, r0, r3
    1db2:	5b2d      	ldrh	r5, [r5, r4]
    1db4:	8005      	strh	r5, [r0, #0]
    1db6:	3002      	adds	r0, #2
    1db8:	e7f8      	b.n	1dac <sark_cmd_read+0x3c>
    1dba:	0891      	lsrs	r1, r2, #2
    1dbc:	0089      	lsls	r1, r1, #2
    1dbe:	1859      	adds	r1, r3, r1
    1dc0:	0018      	movs	r0, r3
    1dc2:	4288      	cmp	r0, r1
    1dc4:	d003      	beq.n	1dce <sark_cmd_read+0x5e>
    1dc6:	1ac5      	subs	r5, r0, r3
    1dc8:	592d      	ldr	r5, [r5, r4]
    1dca:	c020      	stmia	r0!, {r5}
    1dcc:	e7f9      	b.n	1dc2 <sark_cmd_read+0x52>
    1dce:	0010      	movs	r0, r2
    1dd0:	bd30      	pop	{r4, r5, pc}

00001dd2 <sark_cmd_write>:
    1dd2:	6983      	ldr	r3, [r0, #24]
    1dd4:	2280      	movs	r2, #128	; 0x80
    1dd6:	b530      	push	{r4, r5, lr}
    1dd8:	0052      	lsls	r2, r2, #1
    1dda:	4293      	cmp	r3, r2
    1ddc:	d802      	bhi.n	1de4 <sark_cmd_write+0x12>
    1dde:	69c1      	ldr	r1, [r0, #28]
    1de0:	2902      	cmp	r1, #2
    1de2:	d902      	bls.n	1dea <sark_cmd_write+0x18>
    1de4:	2384      	movs	r3, #132	; 0x84
    1de6:	8203      	strh	r3, [r0, #16]
    1de8:	e024      	b.n	1e34 <sark_cmd_write+0x62>
    1dea:	6942      	ldr	r2, [r0, #20]
    1dec:	3020      	adds	r0, #32
    1dee:	2900      	cmp	r1, #0
    1df0:	d108      	bne.n	1e04 <sark_cmd_write+0x32>
    1df2:	18c3      	adds	r3, r0, r3
    1df4:	0001      	movs	r1, r0
    1df6:	4299      	cmp	r1, r3
    1df8:	d01c      	beq.n	1e34 <sark_cmd_write+0x62>
    1dfa:	780d      	ldrb	r5, [r1, #0]
    1dfc:	1a0c      	subs	r4, r1, r0
    1dfe:	54a5      	strb	r5, [r4, r2]
    1e00:	3101      	adds	r1, #1
    1e02:	e7f8      	b.n	1df6 <sark_cmd_write+0x24>
    1e04:	2901      	cmp	r1, #1
    1e06:	d10a      	bne.n	1e1e <sark_cmd_write+0x4c>
    1e08:	085b      	lsrs	r3, r3, #1
    1e0a:	005b      	lsls	r3, r3, #1
    1e0c:	18c3      	adds	r3, r0, r3
    1e0e:	0001      	movs	r1, r0
    1e10:	4299      	cmp	r1, r3
    1e12:	d00f      	beq.n	1e34 <sark_cmd_write+0x62>
    1e14:	880d      	ldrh	r5, [r1, #0]
    1e16:	1a0c      	subs	r4, r1, r0
    1e18:	52a5      	strh	r5, [r4, r2]
    1e1a:	3102      	adds	r1, #2
    1e1c:	e7f8      	b.n	1e10 <sark_cmd_write+0x3e>
    1e1e:	089b      	lsrs	r3, r3, #2
    1e20:	009b      	lsls	r3, r3, #2
    1e22:	18c3      	adds	r3, r0, r3
    1e24:	0001      	movs	r1, r0
    1e26:	4299      	cmp	r1, r3
    1e28:	d004      	beq.n	1e34 <sark_cmd_write+0x62>
    1e2a:	1a0c      	subs	r4, r1, r0
    1e2c:	680d      	ldr	r5, [r1, #0]
    1e2e:	50a5      	str	r5, [r4, r2]
    1e30:	3104      	adds	r1, #4
    1e32:	e7f8      	b.n	1e26 <sark_cmd_write+0x54>
    1e34:	2000      	movs	r0, #0
    1e36:	bd30      	pop	{r4, r5, pc}

00001e38 <sark_cmd_fill>:
    1e38:	b510      	push	{r4, lr}
    1e3a:	69c2      	ldr	r2, [r0, #28]
    1e3c:	6981      	ldr	r1, [r0, #24]
    1e3e:	6940      	ldr	r0, [r0, #20]
    1e40:	f7fe e9f8 	blx	234 <sark_word_set>
    1e44:	2000      	movs	r0, #0
    1e46:	bd10      	pop	{r4, pc}

00001e48 <sark_wait>:
    1e48:	b570      	push	{r4, r5, r6, lr}
    1e4a:	255d      	movs	r5, #93	; 0x5d
    1e4c:	2401      	movs	r4, #1
    1e4e:	782b      	ldrb	r3, [r5, #0]
    1e50:	4223      	tst	r3, r4
    1e52:	d002      	beq.n	1e5a <sark_wait+0x12>
    1e54:	f7fe e9c4 	blx	1e0 <cpu_wfi>
    1e58:	e7f9      	b.n	1e4e <sark_wait+0x6>
    1e5a:	bd70      	pop	{r4, r5, r6, pc}

00001e5c <sark_int>:
    1e5c:	b570      	push	{r4, r5, r6, lr}
    1e5e:	4d54      	ldr	r5, [pc, #336]	; (1fb0 <sark_int+0x154>)
    1e60:	2301      	movs	r3, #1
    1e62:	686a      	ldr	r2, [r5, #4]
    1e64:	4093      	lsls	r3, r2
    1e66:	4a53      	ldr	r2, [pc, #332]	; (1fb4 <sark_int+0x158>)
    1e68:	189b      	adds	r3, r3, r2
    1e6a:	4a53      	ldr	r2, [pc, #332]	; (1fb8 <sark_int+0x15c>)
    1e6c:	6013      	str	r3, [r2, #0]
    1e6e:	69ea      	ldr	r2, [r5, #28]
    1e70:	0011      	movs	r1, r2
    1e72:	3138      	adds	r1, #56	; 0x38
    1e74:	780b      	ldrb	r3, [r1, #0]
    1e76:	2b00      	cmp	r3, #0
    1e78:	d100      	bne.n	1e7c <sark_int+0x20>
    1e7a:	e097      	b.n	1fac <sark_int+0x150>
    1e7c:	6b16      	ldr	r6, [r2, #48]	; 0x30
    1e7e:	2b02      	cmp	r3, #2
    1e80:	d100      	bne.n	1e84 <sark_int+0x28>
    1e82:	6310      	str	r0, [r2, #48]	; 0x30
    1e84:	2200      	movs	r2, #0
    1e86:	700a      	strb	r2, [r1, #0]
    1e88:	2b03      	cmp	r3, #3
    1e8a:	d124      	bne.n	1ed6 <sark_int+0x7a>
    1e8c:	1ef0      	subs	r0, r6, #3
    1e8e:	280a      	cmp	r0, #10
    1e90:	d900      	bls.n	1e94 <sark_int+0x38>
    1e92:	e08b      	b.n	1fac <sark_int+0x150>
    1e94:	f7fe fa5c 	bl	350 <__gnu_thumb1_case_uqi>
    1e98:	068a8a10 	.word	0x068a8a10
    1e9c:	161b0c08 	.word	0x161b0c08
    1ea0:	1616      	.short	0x1616
    1ea2:	16          	.byte	0x16
    1ea3:	00          	.byte	0x00
    1ea4:	2001      	movs	r0, #1
    1ea6:	e000      	b.n	1eaa <sark_int+0x4e>
    1ea8:	2000      	movs	r0, #0
    1eaa:	f000 f8bb 	bl	2024 <event_pause>
    1eae:	e07d      	b.n	1fac <sark_int+0x150>
    1eb0:	20ff      	movs	r0, #255	; 0xff
    1eb2:	f000 f8cd 	bl	2050 <event_stop>
    1eb6:	e079      	b.n	1fac <sark_int+0x150>
    1eb8:	225d      	movs	r2, #93	; 0x5d
    1eba:	7813      	ldrb	r3, [r2, #0]
    1ebc:	2101      	movs	r1, #1
    1ebe:	438b      	bics	r3, r1
    1ec0:	7013      	strb	r3, [r2, #0]
    1ec2:	e073      	b.n	1fac <sark_int+0x150>
    1ec4:	4b3d      	ldr	r3, [pc, #244]	; (1fbc <sark_int+0x160>)
    1ec6:	2280      	movs	r2, #128	; 0x80
    1ec8:	62de      	str	r6, [r3, #44]	; 0x2c
    1eca:	0592      	lsls	r2, r2, #22
    1ecc:	e000      	b.n	1ed0 <sark_int+0x74>
    1ece:	2210      	movs	r2, #16
    1ed0:	4b3b      	ldr	r3, [pc, #236]	; (1fc0 <sark_int+0x164>)
    1ed2:	601a      	str	r2, [r3, #0]
    1ed4:	e06a      	b.n	1fac <sark_int+0x150>
    1ed6:	2b01      	cmp	r3, #1
    1ed8:	d168      	bne.n	1fac <sark_int+0x150>
    1eda:	f7ff fdd7 	bl	1a8c <sark_msg_get>
    1ede:	1e04      	subs	r4, r0, #0
    1ee0:	d061      	beq.n	1fa6 <sark_int+0x14a>
    1ee2:	0031      	movs	r1, r6
    1ee4:	f7fe e9b8 	blx	258 <sark_msg_cpy>
    1ee8:	0030      	movs	r0, r6
    1eea:	f7ff fe11 	bl	1b10 <sark_shmsg_free>
    1eee:	6aab      	ldr	r3, [r5, #40]	; 0x28
    1ef0:	3301      	adds	r3, #1
    1ef2:	62ab      	str	r3, [r5, #40]	; 0x28
    1ef4:	7aa5      	ldrb	r5, [r4, #10]
    1ef6:	231f      	movs	r3, #31
    1ef8:	0028      	movs	r0, r5
    1efa:	4398      	bics	r0, r3
    1efc:	d130      	bne.n	1f60 <sark_int+0x104>
    1efe:	88a3      	ldrh	r3, [r4, #4]
    1f00:	2b17      	cmp	r3, #23
    1f02:	d801      	bhi.n	1f08 <sark_int+0xac>
    1f04:	2381      	movs	r3, #129	; 0x81
    1f06:	e01b      	b.n	1f40 <sark_int+0xe4>
    1f08:	8a23      	ldrh	r3, [r4, #16]
    1f0a:	2280      	movs	r2, #128	; 0x80
    1f0c:	8222      	strh	r2, [r4, #16]
    1f0e:	2b00      	cmp	r3, #0
    1f10:	d103      	bne.n	1f1a <sark_int+0xbe>
    1f12:	0020      	movs	r0, r4
    1f14:	f7ff ff04 	bl	1d20 <sark_cmd_ver>
    1f18:	e013      	b.n	1f42 <sark_int+0xe6>
    1f1a:	2b02      	cmp	r3, #2
    1f1c:	d103      	bne.n	1f26 <sark_int+0xca>
    1f1e:	0020      	movs	r0, r4
    1f20:	f7ff ff26 	bl	1d70 <sark_cmd_read>
    1f24:	e00d      	b.n	1f42 <sark_int+0xe6>
    1f26:	2b03      	cmp	r3, #3
    1f28:	d103      	bne.n	1f32 <sark_int+0xd6>
    1f2a:	0020      	movs	r0, r4
    1f2c:	f7ff ff51 	bl	1dd2 <sark_cmd_write>
    1f30:	e007      	b.n	1f42 <sark_int+0xe6>
    1f32:	2b05      	cmp	r3, #5
    1f34:	d103      	bne.n	1f3e <sark_int+0xe2>
    1f36:	0020      	movs	r0, r4
    1f38:	f7ff ff7e 	bl	1e38 <sark_cmd_fill>
    1f3c:	e001      	b.n	1f42 <sark_int+0xe6>
    1f3e:	2383      	movs	r3, #131	; 0x83
    1f40:	8223      	strh	r3, [r4, #16]
    1f42:	7aa2      	ldrb	r2, [r4, #10]
    1f44:	7ae1      	ldrb	r1, [r4, #11]
    1f46:	89a3      	ldrh	r3, [r4, #12]
    1f48:	300c      	adds	r0, #12
    1f4a:	72e2      	strb	r2, [r4, #11]
    1f4c:	89e2      	ldrh	r2, [r4, #14]
    1f4e:	80a0      	strh	r0, [r4, #4]
    1f50:	72a1      	strb	r1, [r4, #10]
    1f52:	81a2      	strh	r2, [r4, #12]
    1f54:	81e3      	strh	r3, [r4, #14]
    1f56:	210a      	movs	r1, #10
    1f58:	0020      	movs	r0, r4
    1f5a:	f7ff fe93 	bl	1c84 <sark_msg_send>
    1f5e:	e01e      	b.n	1f9e <sark_int+0x142>
    1f60:	235b      	movs	r3, #91	; 0x5b
    1f62:	781b      	ldrb	r3, [r3, #0]
    1f64:	2b00      	cmp	r3, #0
    1f66:	d00f      	beq.n	1f88 <sark_int+0x12c>
    1f68:	4b16      	ldr	r3, [pc, #88]	; (1fc4 <sark_int+0x168>)
    1f6a:	699b      	ldr	r3, [r3, #24]
    1f6c:	2b00      	cmp	r3, #0
    1f6e:	d016      	beq.n	1f9e <sark_int+0x142>
    1f70:	f7fe e92a 	blx	1c8 <cpu_int_disable>
    1f74:	096a      	lsrs	r2, r5, #5
    1f76:	0021      	movs	r1, r4
    1f78:	0006      	movs	r6, r0
    1f7a:	2003      	movs	r0, #3
    1f7c:	f001 f838 	bl	2ff0 <schedule_sysmode>
    1f80:	0030      	movs	r0, r6
    1f82:	f7fe e92a 	blx	1d8 <cpu_int_restore>
    1f86:	e011      	b.n	1fac <sark_int+0x150>
    1f88:	4b0f      	ldr	r3, [pc, #60]	; (1fc8 <sark_int+0x16c>)
    1f8a:	681a      	ldr	r2, [r3, #0]
    1f8c:	2380      	movs	r3, #128	; 0x80
    1f8e:	055b      	lsls	r3, r3, #21
    1f90:	421a      	tst	r2, r3
    1f92:	d004      	beq.n	1f9e <sark_int+0x142>
    1f94:	4a09      	ldr	r2, [pc, #36]	; (1fbc <sark_int+0x160>)
    1f96:	6294      	str	r4, [r2, #40]	; 0x28
    1f98:	4a09      	ldr	r2, [pc, #36]	; (1fc0 <sark_int+0x164>)
    1f9a:	6013      	str	r3, [r2, #0]
    1f9c:	e006      	b.n	1fac <sark_int+0x150>
    1f9e:	0020      	movs	r0, r4
    1fa0:	f7ff fd8c 	bl	1abc <sark_msg_free>
    1fa4:	e002      	b.n	1fac <sark_int+0x150>
    1fa6:	0030      	movs	r0, r6
    1fa8:	f7ff fdb2 	bl	1b10 <sark_shmsg_free>
    1fac:	bd70      	pop	{r4, r5, r6, pc}
    1fae:	46c0      	nop			; (mov r8, r8)
    1fb0:	00400724 	.word	0x00400724
    1fb4:	5ec00000 	.word	0x5ec00000
    1fb8:	e200000c 	.word	0xe200000c
    1fbc:	00400760 	.word	0x00400760
    1fc0:	1f000018 	.word	0x1f000018
    1fc4:	004009a4 	.word	0x004009a4
    1fc8:	1f000010 	.word	0x1f000010

00001fcc <event_wait>:
    1fcc:	4b12      	ldr	r3, [pc, #72]	; (2018 <P2P_TABLE_SIZE+0x18>)
    1fce:	b570      	push	{r4, r5, r6, lr}
    1fd0:	681b      	ldr	r3, [r3, #0]
    1fd2:	4c12      	ldr	r4, [pc, #72]	; (201c <P2P_TABLE_SIZE+0x1c>)
    1fd4:	2501      	movs	r5, #1
    1fd6:	409d      	lsls	r5, r3
    1fd8:	7ea3      	ldrb	r3, [r4, #26]
    1fda:	4e11      	ldr	r6, [pc, #68]	; (2020 <P2P_TABLE_SIZE+0x20>)
    1fdc:	2b00      	cmp	r3, #0
    1fde:	d011      	beq.n	2004 <P2P_TABLE_SIZE+0x4>
    1fe0:	2009      	movs	r0, #9
    1fe2:	f7ff fd31 	bl	1a48 <sark_cpu_state>
    1fe6:	6833      	ldr	r3, [r6, #0]
    1fe8:	002a      	movs	r2, r5
    1fea:	439a      	bics	r2, r3
    1fec:	d002      	beq.n	1ff4 <event_wait+0x28>
    1fee:	f7fe e8f8 	blx	1e0 <cpu_wfi>
    1ff2:	e7f8      	b.n	1fe6 <event_wait+0x1a>
    1ff4:	7ea3      	ldrb	r3, [r4, #26]
    1ff6:	2201      	movs	r2, #1
    1ff8:	4053      	eors	r3, r2
    1ffa:	2007      	movs	r0, #7
    1ffc:	76a3      	strb	r3, [r4, #26]
    1ffe:	f7ff fd23 	bl	1a48 <sark_cpu_state>
    2002:	bd70      	pop	{r4, r5, r6, pc}
    2004:	2008      	movs	r0, #8
    2006:	f7ff fd1f 	bl	1a48 <sark_cpu_state>
    200a:	6833      	ldr	r3, [r6, #0]
    200c:	422b      	tst	r3, r5
    200e:	d0f1      	beq.n	1ff4 <event_wait+0x28>
    2010:	f7fe e8e6 	blx	1e0 <cpu_wfi>
    2014:	e7f9      	b.n	200a <P2P_TABLE_SIZE+0xa>
    2016:	46c0      	nop			; (mov r8, r8)
    2018:	00400724 	.word	0x00400724
    201c:	00400760 	.word	0x00400760
    2020:	e2000058 	.word	0xe2000058

00002024 <event_pause>:
    2024:	b570      	push	{r4, r5, r6, lr}
    2026:	1e05      	subs	r5, r0, #0
    2028:	4c08      	ldr	r4, [pc, #32]	; (204c <event_pause+0x28>)
    202a:	d003      	beq.n	2034 <event_pause+0x10>
    202c:	2301      	movs	r3, #1
    202e:	7623      	strb	r3, [r4, #24]
    2030:	200a      	movs	r0, #10
    2032:	e001      	b.n	2038 <event_pause+0x14>
    2034:	7620      	strb	r0, [r4, #24]
    2036:	2007      	movs	r0, #7
    2038:	f7ff fd06 	bl	1a48 <sark_cpu_state>
    203c:	6b23      	ldr	r3, [r4, #48]	; 0x30
    203e:	2b00      	cmp	r3, #0
    2040:	d002      	beq.n	2048 <event_pause+0x24>
    2042:	6b61      	ldr	r1, [r4, #52]	; 0x34
    2044:	0028      	movs	r0, r5
    2046:	4798      	blx	r3
    2048:	bd70      	pop	{r4, r5, r6, pc}
    204a:	46c0      	nop			; (mov r8, r8)
    204c:	00400760 	.word	0x00400760

00002050 <event_stop>:
    2050:	4b03      	ldr	r3, [pc, #12]	; (2060 <event_stop+0x10>)
    2052:	2202      	movs	r2, #2
    2054:	761a      	strb	r2, [r3, #24]
    2056:	4a03      	ldr	r2, [pc, #12]	; (2064 <event_stop+0x14>)
    2058:	6cd9      	ldr	r1, [r3, #76]	; 0x4c
    205a:	6011      	str	r1, [r2, #0]
    205c:	6398      	str	r0, [r3, #56]	; 0x38
    205e:	4770      	bx	lr
    2060:	00400760 	.word	0x00400760
    2064:	1f000014 	.word	0x1f000014

00002068 <event_alloc>:
    2068:	b570      	push	{r4, r5, r6, lr}
    206a:	2118      	movs	r1, #24
    206c:	0006      	movs	r6, r0
    206e:	f000 f92d 	bl	22cc <sark_alloc>
    2072:	4d0b      	ldr	r5, [pc, #44]	; (20a0 <event_alloc+0x38>)
    2074:	1e04      	subs	r4, r0, #0
    2076:	d00d      	beq.n	2094 <event_alloc+0x2c>
    2078:	0031      	movs	r1, r6
    207a:	2218      	movs	r2, #24
    207c:	f7ff fcf6 	bl	1a6c <sark_block_init>
    2080:	0006      	movs	r6, r0
    2082:	f7fe e8a2 	blx	1c8 <cpu_int_disable>
    2086:	682b      	ldr	r3, [r5, #0]
    2088:	6033      	str	r3, [r6, #0]
    208a:	602c      	str	r4, [r5, #0]
    208c:	f7fe e8a4 	blx	1d8 <cpu_int_restore>
    2090:	2001      	movs	r0, #1
    2092:	e003      	b.n	209c <event_alloc+0x34>
    2094:	696a      	ldr	r2, [r5, #20]
    2096:	2308      	movs	r3, #8
    2098:	4313      	orrs	r3, r2
    209a:	616b      	str	r3, [r5, #20]
    209c:	bd70      	pop	{r4, r5, r6, pc}
    209e:	46c0      	nop			; (mov r8, r8)
    20a0:	00400760 	.word	0x00400760

000020a4 <sark_vic_init>:
    20a4:	4b0b      	ldr	r3, [pc, #44]	; (20d4 <sark_vic_init+0x30>)
    20a6:	2201      	movs	r2, #1
    20a8:	4252      	negs	r2, r2
    20aa:	b510      	push	{r4, lr}
    20ac:	601a      	str	r2, [r3, #0]
    20ae:	4b0a      	ldr	r3, [pc, #40]	; (20d8 <sark_vic_init+0x34>)
    20b0:	2200      	movs	r2, #0
    20b2:	601a      	str	r2, [r3, #0]
    20b4:	4b09      	ldr	r3, [pc, #36]	; (20dc <sark_vic_init+0x38>)
    20b6:	4c0a      	ldr	r4, [pc, #40]	; (20e0 <sark_vic_init+0x3c>)
    20b8:	601a      	str	r2, [r3, #0]
    20ba:	490a      	ldr	r1, [pc, #40]	; (20e4 <sark_vic_init+0x40>)
    20bc:	4b0a      	ldr	r3, [pc, #40]	; (20e8 <sark_vic_init+0x44>)
    20be:	1e58      	subs	r0, r3, #1
    20c0:	601a      	str	r2, [r3, #0]
    20c2:	38ff      	subs	r0, #255	; 0xff
    20c4:	3304      	adds	r3, #4
    20c6:	6004      	str	r4, [r0, #0]
    20c8:	428b      	cmp	r3, r1
    20ca:	d1f8      	bne.n	20be <sark_vic_init+0x1a>
    20cc:	4b07      	ldr	r3, [pc, #28]	; (20ec <sark_vic_init+0x48>)
    20ce:	4a08      	ldr	r2, [pc, #32]	; (20f0 <sark_vic_init+0x4c>)
    20d0:	601a      	str	r2, [r3, #0]
    20d2:	bd10      	pop	{r4, pc}
    20d4:	1f000014 	.word	0x1f000014
    20d8:	1f00000c 	.word	0x1f00000c
    20dc:	1f000030 	.word	0x1f000030
    20e0:	00000108 	.word	0x00000108
    20e4:	1f000240 	.word	0x1f000240
    20e8:	1f000200 	.word	0x1f000200
    20ec:	1f000034 	.word	0x1f000034
    20f0:	0000031c 	.word	0x0000031c

000020f4 <sark_vic_set>:
    20f4:	b510      	push	{r4, lr}
    20f6:	2810      	cmp	r0, #16
    20f8:	d104      	bne.n	2104 <sark_vic_set+0x10>
    20fa:	62c3      	str	r3, [r0, #44]	; 0x2c
    20fc:	2301      	movs	r3, #1
    20fe:	408b      	lsls	r3, r1
    2100:	4809      	ldr	r0, [pc, #36]	; (2128 <sark_vic_set+0x34>)
    2102:	e009      	b.n	2118 <sark_vic_set+0x24>
    2104:	3040      	adds	r0, #64	; 0x40
    2106:	24f8      	movs	r4, #248	; 0xf8
    2108:	0080      	lsls	r0, r0, #2
    210a:	0564      	lsls	r4, r4, #21
    210c:	1904      	adds	r4, r0, r4
    210e:	6023      	str	r3, [r4, #0]
    2110:	4b06      	ldr	r3, [pc, #24]	; (212c <sark_vic_set+0x38>)
    2112:	18c0      	adds	r0, r0, r3
    2114:	2320      	movs	r3, #32
    2116:	430b      	orrs	r3, r1
    2118:	6003      	str	r3, [r0, #0]
    211a:	2a00      	cmp	r2, #0
    211c:	d003      	beq.n	2126 <sark_vic_set+0x32>
    211e:	2301      	movs	r3, #1
    2120:	4a03      	ldr	r2, [pc, #12]	; (2130 <sark_vic_set+0x3c>)
    2122:	408b      	lsls	r3, r1
    2124:	6013      	str	r3, [r2, #0]
    2126:	bd10      	pop	{r4, pc}
    2128:	1f00000c 	.word	0x1f00000c
    212c:	1f000100 	.word	0x1f000100
    2130:	1f000010 	.word	0x1f000010

00002134 <v2p_mask>:
    2134:	2300      	movs	r3, #0
    2136:	001a      	movs	r2, r3
    2138:	2101      	movs	r1, #1
    213a:	b530      	push	{r4, r5, lr}
    213c:	000c      	movs	r4, r1
    213e:	409c      	lsls	r4, r3
    2140:	4220      	tst	r0, r4
    2142:	d005      	beq.n	2150 <v2p_mask+0x1c>
    2144:	4c05      	ldr	r4, [pc, #20]	; (215c <v2p_mask+0x28>)
    2146:	000d      	movs	r5, r1
    2148:	191c      	adds	r4, r3, r4
    214a:	7824      	ldrb	r4, [r4, #0]
    214c:	40a5      	lsls	r5, r4
    214e:	432a      	orrs	r2, r5
    2150:	3301      	adds	r3, #1
    2152:	2b12      	cmp	r3, #18
    2154:	d1f2      	bne.n	213c <v2p_mask+0x8>
    2156:	0010      	movs	r0, r2
    2158:	bd30      	pop	{r4, r5, pc}
    215a:	46c0      	nop			; (mov r8, r8)
    215c:	e5007fa8 	.word	0xe5007fa8

00002160 <rtr_mc_set>:
    2160:	b5f7      	push	{r0, r1, r2, r4, r5, r6, r7, lr}
    2162:	001e      	movs	r6, r3
    2164:	4b16      	ldr	r3, [pc, #88]	; (21c0 <rtr_mc_set+0x60>)
    2166:	0005      	movs	r5, r0
    2168:	000f      	movs	r7, r1
    216a:	9201      	str	r2, [sp, #4]
    216c:	2000      	movs	r0, #0
    216e:	429d      	cmp	r5, r3
    2170:	d824      	bhi.n	21bc <rtr_mc_set+0x5c>
    2172:	4a14      	ldr	r2, [pc, #80]	; (21c4 <rtr_mc_set+0x64>)
    2174:	012b      	lsls	r3, r5, #4
    2176:	6814      	ldr	r4, [r2, #0]
    2178:	18e4      	adds	r4, r4, r3
    217a:	0e33      	lsrs	r3, r6, #24
    217c:	4283      	cmp	r3, r0
    217e:	d101      	bne.n	2184 <rtr_mc_set+0x24>
    2180:	235c      	movs	r3, #92	; 0x5c
    2182:	781b      	ldrb	r3, [r3, #0]
    2184:	0230      	lsls	r0, r6, #8
    2186:	0a02      	lsrs	r2, r0, #8
    2188:	6062      	str	r2, [r4, #4]
    218a:	4a0f      	ldr	r2, [pc, #60]	; (21c8 <rtr_mc_set+0x68>)
    218c:	490f      	ldr	r1, [pc, #60]	; (21cc <rtr_mc_set+0x6c>)
    218e:	6812      	ldr	r2, [r2, #0]
    2190:	0b80      	lsrs	r0, r0, #14
    2192:	0212      	lsls	r2, r2, #8
    2194:	1852      	adds	r2, r2, r1
    2196:	18d3      	adds	r3, r2, r3
    2198:	8063      	strh	r3, [r4, #2]
    219a:	f7ff ffcb 	bl	2134 <v2p_mask>
    219e:	233f      	movs	r3, #63	; 0x3f
    21a0:	401e      	ands	r6, r3
    21a2:	4b0b      	ldr	r3, [pc, #44]	; (21d0 <rtr_mc_set+0x70>)
    21a4:	00ad      	lsls	r5, r5, #2
    21a6:	9a01      	ldr	r2, [sp, #4]
    21a8:	0180      	lsls	r0, r0, #6
    21aa:	4306      	orrs	r6, r0
    21ac:	50ee      	str	r6, [r5, r3]
    21ae:	4b09      	ldr	r3, [pc, #36]	; (21d4 <rtr_mc_set+0x74>)
    21b0:	2001      	movs	r0, #1
    21b2:	50ef      	str	r7, [r5, r3]
    21b4:	4b08      	ldr	r3, [pc, #32]	; (21d8 <rtr_mc_set+0x78>)
    21b6:	60a7      	str	r7, [r4, #8]
    21b8:	50ea      	str	r2, [r5, r3]
    21ba:	60e2      	str	r2, [r4, #12]
    21bc:	bdfe      	pop	{r1, r2, r3, r4, r5, r6, r7, pc}
    21be:	46c0      	nop			; (mov r8, r8)
    21c0:	000003ff 	.word	0x000003ff
    21c4:	e5007fd4 	.word	0xe5007fd4
    21c8:	00400724 	.word	0x00400724
    21cc:	ffff8000 	.word	0xffff8000
    21d0:	e1004000 	.word	0xe1004000
    21d4:	e1008000 	.word	0xe1008000
    21d8:	e100c000 	.word	0xe100c000

000021dc <sark_fiq_han>:
    21dc:	e92d000c 	push	{r2, r3}
    21e0:	e59f2018 	ldr	r2, [pc, #24]	; 2200 <sark_fiq_han+0x24>
    21e4:	e3a03202 	mov	r3, #536870912	; 0x20000000
    21e8:	e5933014 	ldr	r3, [r3, #20]
    21ec:	e5923038 	ldr	r3, [r2, #56]	; 0x38
    21f0:	e2833001 	add	r3, r3, #1
    21f4:	e5823038 	str	r3, [r2, #56]	; 0x38
    21f8:	e8bd000c 	pop	{r2, r3}
    21fc:	e25ef004 	subs	pc, lr, #4
    2200:	00400724 	.word	0x00400724

00002204 <sark_xalloc>:
    2204:	b5f7      	push	{r0, r1, r2, r4, r5, r6, r7, lr}
    2206:	0006      	movs	r6, r0
    2208:	0017      	movs	r7, r2
    220a:	2900      	cmp	r1, #0
    220c:	d058      	beq.n	22c0 <sark_xalloc+0xbc>
    220e:	2aff      	cmp	r2, #255	; 0xff
    2210:	d856      	bhi.n	22c0 <sark_xalloc+0xbc>
    2212:	0a1d      	lsrs	r5, r3, #8
    2214:	079a      	lsls	r2, r3, #30
    2216:	d401      	bmi.n	221c <sark_xalloc+0x18>
    2218:	225c      	movs	r2, #92	; 0x5c
    221a:	7815      	ldrb	r5, [r2, #0]
    221c:	022d      	lsls	r5, r5, #8
    221e:	19ed      	adds	r5, r5, r7
    2220:	2f00      	cmp	r7, #0
    2222:	d005      	beq.n	2230 <sark_xalloc+0x2c>
    2224:	4a27      	ldr	r2, [pc, #156]	; (22c4 <sark_xalloc+0xc0>)
    2226:	00a8      	lsls	r0, r5, #2
    2228:	6812      	ldr	r2, [r2, #0]
    222a:	5882      	ldr	r2, [r0, r2]
    222c:	2a00      	cmp	r2, #0
    222e:	d147      	bne.n	22c0 <sark_xalloc+0xbc>
    2230:	2203      	movs	r2, #3
    2232:	3103      	adds	r1, #3
    2234:	4391      	bics	r1, r2
    2236:	3a02      	subs	r2, #2
    2238:	3108      	adds	r1, #8
    223a:	4013      	ands	r3, r2
    223c:	9101      	str	r1, [sp, #4]
    223e:	9300      	str	r3, [sp, #0]
    2240:	d003      	beq.n	224a <sark_xalloc+0x46>
    2242:	2006      	movs	r0, #6
    2244:	f7fd efd0 	blx	1e8 <sark_lock_get>
    2248:	4684      	mov	ip, r0
    224a:	6834      	ldr	r4, [r6, #0]
    224c:	2200      	movs	r2, #0
    224e:	2c00      	cmp	r4, #0
    2250:	d02f      	beq.n	22b2 <sark_xalloc+0xae>
    2252:	9b01      	ldr	r3, [sp, #4]
    2254:	6821      	ldr	r1, [r4, #0]
    2256:	18e3      	adds	r3, r4, r3
    2258:	429c      	cmp	r4, r3
    225a:	d22a      	bcs.n	22b2 <sark_xalloc+0xae>
    225c:	4299      	cmp	r1, r3
    225e:	d202      	bcs.n	2266 <sark_xalloc+0x62>
    2260:	0022      	movs	r2, r4
    2262:	6864      	ldr	r4, [r4, #4]
    2264:	e7f3      	b.n	224e <sark_xalloc+0x4a>
    2266:	0018      	movs	r0, r3
    2268:	3008      	adds	r0, #8
    226a:	4281      	cmp	r1, r0
    226c:	d904      	bls.n	2278 <sark_xalloc+0x74>
    226e:	6019      	str	r1, [r3, #0]
    2270:	6861      	ldr	r1, [r4, #4]
    2272:	6023      	str	r3, [r4, #0]
    2274:	6059      	str	r1, [r3, #4]
    2276:	6063      	str	r3, [r4, #4]
    2278:	6863      	ldr	r3, [r4, #4]
    227a:	2a00      	cmp	r2, #0
    227c:	d001      	beq.n	2282 <sark_xalloc+0x7e>
    227e:	6053      	str	r3, [r2, #4]
    2280:	e000      	b.n	2284 <sark_xalloc+0x80>
    2282:	6033      	str	r3, [r6, #0]
    2284:	68f3      	ldr	r3, [r6, #12]
    2286:	9a01      	ldr	r2, [sp, #4]
    2288:	1a99      	subs	r1, r3, r2
    228a:	9b00      	ldr	r3, [sp, #0]
    228c:	60f1      	str	r1, [r6, #12]
    228e:	2b00      	cmp	r3, #0
    2290:	d003      	beq.n	229a <sark_xalloc+0x96>
    2292:	2106      	movs	r1, #6
    2294:	4660      	mov	r0, ip
    2296:	f7fd efba 	blx	20c <sark_lock_free>
    229a:	4b0b      	ldr	r3, [pc, #44]	; (22c8 <sark_xalloc+0xc4>)
    229c:	0020      	movs	r0, r4
    229e:	18eb      	adds	r3, r5, r3
    22a0:	6063      	str	r3, [r4, #4]
    22a2:	3008      	adds	r0, #8
    22a4:	2f00      	cmp	r7, #0
    22a6:	d00c      	beq.n	22c2 <sark_xalloc+0xbe>
    22a8:	4b06      	ldr	r3, [pc, #24]	; (22c4 <sark_xalloc+0xc0>)
    22aa:	00ad      	lsls	r5, r5, #2
    22ac:	681b      	ldr	r3, [r3, #0]
    22ae:	50e8      	str	r0, [r5, r3]
    22b0:	e007      	b.n	22c2 <sark_xalloc+0xbe>
    22b2:	9b00      	ldr	r3, [sp, #0]
    22b4:	2b00      	cmp	r3, #0
    22b6:	d003      	beq.n	22c0 <sark_xalloc+0xbc>
    22b8:	2106      	movs	r1, #6
    22ba:	4660      	mov	r0, ip
    22bc:	f7fd efa6 	blx	20c <sark_lock_free>
    22c0:	2000      	movs	r0, #0
    22c2:	bdfe      	pop	{r1, r2, r3, r4, r5, r6, r7, pc}
    22c4:	e5007fdc 	.word	0xe5007fdc
    22c8:	ffff0000 	.word	0xffff0000

000022cc <sark_alloc>:
    22cc:	4341      	muls	r1, r0
    22ce:	4804      	ldr	r0, [pc, #16]	; (22e0 <sark_alloc+0x14>)
    22d0:	2300      	movs	r3, #0
    22d2:	b510      	push	{r4, lr}
    22d4:	001a      	movs	r2, r3
    22d6:	6980      	ldr	r0, [r0, #24]
    22d8:	f7ff ff94 	bl	2204 <sark_xalloc>
    22dc:	bd10      	pop	{r4, pc}
    22de:	46c0      	nop			; (mov r8, r8)
    22e0:	00400724 	.word	0x00400724

000022e4 <sark_heap_init>:
    22e4:	0003      	movs	r3, r0
    22e6:	3908      	subs	r1, #8
    22e8:	3310      	adds	r3, #16
    22ea:	6043      	str	r3, [r0, #4]
    22ec:	6003      	str	r3, [r0, #0]
    22ee:	1acb      	subs	r3, r1, r3
    22f0:	3b08      	subs	r3, #8
    22f2:	60c3      	str	r3, [r0, #12]
    22f4:	2300      	movs	r3, #0
    22f6:	6101      	str	r1, [r0, #16]
    22f8:	6081      	str	r1, [r0, #8]
    22fa:	600b      	str	r3, [r1, #0]
    22fc:	6143      	str	r3, [r0, #20]
    22fe:	604b      	str	r3, [r1, #4]
    2300:	4770      	bx	lr
	...

00002304 <rtr_alloc_id>:
    2304:	b5f7      	push	{r0, r1, r2, r4, r5, r6, r7, lr}
    2306:	2400      	movs	r4, #0
    2308:	0007      	movs	r7, r0
    230a:	9100      	str	r1, [sp, #0]
    230c:	42a0      	cmp	r0, r4
    230e:	d030      	beq.n	2372 <rtr_alloc_id+0x6e>
    2310:	4b19      	ldr	r3, [pc, #100]	; (2378 <rtr_alloc_id+0x74>)
    2312:	2007      	movs	r0, #7
    2314:	681e      	ldr	r6, [r3, #0]
    2316:	f7fd ef68 	blx	1e8 <sark_lock_get>
    231a:	4918      	ldr	r1, [pc, #96]	; (237c <rtr_alloc_id+0x78>)
    231c:	880d      	ldrh	r5, [r1, #0]
    231e:	9101      	str	r1, [sp, #4]
    2320:	2d00      	cmp	r5, #0
    2322:	d022      	beq.n	236a <rtr_alloc_id+0x66>
    2324:	012b      	lsls	r3, r5, #4
    2326:	18f3      	adds	r3, r6, r3
    2328:	881a      	ldrh	r2, [r3, #0]
    232a:	4694      	mov	ip, r2
    232c:	197a      	adds	r2, r7, r5
    232e:	4594      	cmp	ip, r2
    2330:	d202      	bcs.n	2338 <rtr_alloc_id+0x34>
    2332:	002c      	movs	r4, r5
    2334:	885d      	ldrh	r5, [r3, #2]
    2336:	e7f3      	b.n	2320 <rtr_alloc_id+0x1c>
    2338:	4594      	cmp	ip, r2
    233a:	d909      	bls.n	2350 <rtr_alloc_id+0x4c>
    233c:	0117      	lsls	r7, r2, #4
    233e:	19f7      	adds	r7, r6, r7
    2340:	4661      	mov	r1, ip
    2342:	0412      	lsls	r2, r2, #16
    2344:	8039      	strh	r1, [r7, #0]
    2346:	0c12      	lsrs	r2, r2, #16
    2348:	8859      	ldrh	r1, [r3, #2]
    234a:	801a      	strh	r2, [r3, #0]
    234c:	8079      	strh	r1, [r7, #2]
    234e:	805a      	strh	r2, [r3, #2]
    2350:	885a      	ldrh	r2, [r3, #2]
    2352:	2c00      	cmp	r4, #0
    2354:	d003      	beq.n	235e <rtr_alloc_id+0x5a>
    2356:	0124      	lsls	r4, r4, #4
    2358:	1936      	adds	r6, r6, r4
    235a:	8072      	strh	r2, [r6, #2]
    235c:	e001      	b.n	2362 <rtr_alloc_id+0x5e>
    235e:	9901      	ldr	r1, [sp, #4]
    2360:	800a      	strh	r2, [r1, #0]
    2362:	4a07      	ldr	r2, [pc, #28]	; (2380 <rtr_alloc_id+0x7c>)
    2364:	9900      	ldr	r1, [sp, #0]
    2366:	430a      	orrs	r2, r1
    2368:	805a      	strh	r2, [r3, #2]
    236a:	2107      	movs	r1, #7
    236c:	f7fd ef4e 	blx	20c <sark_lock_free>
    2370:	002c      	movs	r4, r5
    2372:	0020      	movs	r0, r4
    2374:	bdfe      	pop	{r1, r2, r3, r4, r5, r6, r7, pc}
    2376:	46c0      	nop			; (mov r8, r8)
    2378:	e5007fd4 	.word	0xe5007fd4
    237c:	e5007fe0 	.word	0xe5007fe0
    2380:	ffff8000 	.word	0xffff8000

00002384 <rtr_alloc>:
    2384:	235c      	movs	r3, #92	; 0x5c
    2386:	b510      	push	{r4, lr}
    2388:	7819      	ldrb	r1, [r3, #0]
    238a:	f7ff ffbb 	bl	2304 <rtr_alloc_id>
    238e:	bd10      	pop	{r4, pc}

00002390 <io_buf_init>:
    2390:	b570      	push	{r4, r5, r6, lr}
    2392:	4d0c      	ldr	r5, [pc, #48]	; (23c4 <io_buf_init+0x34>)
    2394:	480c      	ldr	r0, [pc, #48]	; (23c8 <io_buf_init+0x38>)
    2396:	6d29      	ldr	r1, [r5, #80]	; 0x50
    2398:	2301      	movs	r3, #1
    239a:	3110      	adds	r1, #16
    239c:	2200      	movs	r2, #0
    239e:	6800      	ldr	r0, [r0, #0]
    23a0:	f7ff ff30 	bl	2204 <sark_xalloc>
    23a4:	1e04      	subs	r4, r0, #0
    23a6:	d102      	bne.n	23ae <io_buf_init+0x1e>
    23a8:	200e      	movs	r0, #14
    23aa:	f7fd eec0 	blx	12c <rt_error>
    23ae:	69eb      	ldr	r3, [r5, #28]
    23b0:	6063      	str	r3, [r4, #4]
    23b2:	4a06      	ldr	r2, [pc, #24]	; (23cc <io_buf_init+0x3c>)
    23b4:	8b2b      	ldrh	r3, [r5, #24]
    23b6:	60a3      	str	r3, [r4, #8]
    23b8:	2300      	movs	r3, #0
    23ba:	0020      	movs	r0, r4
    23bc:	6023      	str	r3, [r4, #0]
    23be:	6013      	str	r3, [r2, #0]
    23c0:	60e3      	str	r3, [r4, #12]
    23c2:	bd70      	pop	{r4, r5, r6, pc}
    23c4:	e5007f00 	.word	0xe5007f00
    23c8:	e5007fd0 	.word	0xe5007fd0
    23cc:	00400198 	.word	0x00400198

000023d0 <io_put_char>:
    23d0:	b570      	push	{r4, r5, r6, lr}
    23d2:	000d      	movs	r5, r1
    23d4:	2803      	cmp	r0, #3
    23d6:	d907      	bls.n	23e8 <io_put_char+0x18>
    23d8:	4932      	ldr	r1, [pc, #200]	; (24a4 <io_put_char+0xd4>)
    23da:	680a      	ldr	r2, [r1, #0]
    23dc:	1c53      	adds	r3, r2, #1
    23de:	5485      	strb	r5, [r0, r2]
    23e0:	2200      	movs	r2, #0
    23e2:	600b      	str	r3, [r1, #0]
    23e4:	54c2      	strb	r2, [r0, r3]
    23e6:	e05c      	b.n	24a2 <io_put_char+0xd2>
    23e8:	2800      	cmp	r0, #0
    23ea:	d136      	bne.n	245a <io_put_char+0x8a>
    23ec:	4e2e      	ldr	r6, [pc, #184]	; (24a8 <io_put_char+0xd8>)
    23ee:	6833      	ldr	r3, [r6, #0]
    23f0:	2b00      	cmp	r3, #0
    23f2:	d11c      	bne.n	242e <io_put_char+0x5e>
    23f4:	2192      	movs	r1, #146	; 0x92
    23f6:	0049      	lsls	r1, r1, #1
    23f8:	3001      	adds	r0, #1
    23fa:	f7ff ff67 	bl	22cc <sark_alloc>
    23fe:	1e04      	subs	r4, r0, #0
    2400:	d102      	bne.n	2408 <io_put_char+0x38>
    2402:	200e      	movs	r0, #14
    2404:	f7fd ee92 	blx	12c <rt_error>
    2408:	2307      	movs	r3, #7
    240a:	7223      	strb	r3, [r4, #8]
    240c:	2300      	movs	r3, #0
    240e:	7263      	strb	r3, [r4, #9]
    2410:	33ff      	adds	r3, #255	; 0xff
    2412:	72a3      	strb	r3, [r4, #10]
    2414:	4b25      	ldr	r3, [pc, #148]	; (24ac <io_put_char+0xdc>)
    2416:	889a      	ldrh	r2, [r3, #4]
    2418:	81a2      	strh	r2, [r4, #12]
    241a:	4a25      	ldr	r2, [pc, #148]	; (24b0 <io_put_char+0xe0>)
    241c:	6812      	ldr	r2, [r2, #0]
    241e:	72e2      	strb	r2, [r4, #11]
    2420:	881b      	ldrh	r3, [r3, #0]
    2422:	81e3      	strh	r3, [r4, #14]
    2424:	2340      	movs	r3, #64	; 0x40
    2426:	8223      	strh	r3, [r4, #16]
    2428:	3b34      	subs	r3, #52	; 0x34
    242a:	80a3      	strh	r3, [r4, #4]
    242c:	6034      	str	r4, [r6, #0]
    242e:	6830      	ldr	r0, [r6, #0]
    2430:	8883      	ldrh	r3, [r0, #4]
    2432:	1c5a      	adds	r2, r3, #1
    2434:	18c3      	adds	r3, r0, r3
    2436:	8082      	strh	r2, [r0, #4]
    2438:	721d      	strb	r5, [r3, #8]
    243a:	2d0a      	cmp	r5, #10
    243c:	d006      	beq.n	244c <io_put_char+0x7c>
    243e:	2d00      	cmp	r5, #0
    2440:	d004      	beq.n	244c <io_put_char+0x7c>
    2442:	8882      	ldrh	r2, [r0, #4]
    2444:	2386      	movs	r3, #134	; 0x86
    2446:	005b      	lsls	r3, r3, #1
    2448:	429a      	cmp	r2, r3
    244a:	d12a      	bne.n	24a2 <io_put_char+0xd2>
    244c:	210a      	movs	r1, #10
    244e:	f7ff fc19 	bl	1c84 <sark_msg_send>
    2452:	6833      	ldr	r3, [r6, #0]
    2454:	220c      	movs	r2, #12
    2456:	809a      	strh	r2, [r3, #4]
    2458:	e023      	b.n	24a2 <io_put_char+0xd2>
    245a:	2802      	cmp	r0, #2
    245c:	d121      	bne.n	24a2 <io_put_char+0xd2>
    245e:	4c15      	ldr	r4, [pc, #84]	; (24b4 <io_put_char+0xe4>)
    2460:	6823      	ldr	r3, [r4, #0]
    2462:	2b00      	cmp	r3, #0
    2464:	d105      	bne.n	2472 <io_put_char+0xa2>
    2466:	4b12      	ldr	r3, [pc, #72]	; (24b0 <io_put_char+0xe0>)
    2468:	69de      	ldr	r6, [r3, #28]
    246a:	f7ff ff91 	bl	2390 <io_buf_init>
    246e:	65b0      	str	r0, [r6, #88]	; 0x58
    2470:	6020      	str	r0, [r4, #0]
    2472:	4911      	ldr	r1, [pc, #68]	; (24b8 <io_put_char+0xe8>)
    2474:	6826      	ldr	r6, [r4, #0]
    2476:	680a      	ldr	r2, [r1, #0]
    2478:	1c53      	adds	r3, r2, #1
    247a:	18b2      	adds	r2, r6, r2
    247c:	7415      	strb	r5, [r2, #16]
    247e:	4a0b      	ldr	r2, [pc, #44]	; (24ac <io_put_char+0xdc>)
    2480:	600b      	str	r3, [r1, #0]
    2482:	6d12      	ldr	r2, [r2, #80]	; 0x50
    2484:	4293      	cmp	r3, r2
    2486:	d107      	bne.n	2498 <io_put_char+0xc8>
    2488:	60f3      	str	r3, [r6, #12]
    248a:	f7ff ff81 	bl	2390 <io_buf_init>
    248e:	6823      	ldr	r3, [r4, #0]
    2490:	6030      	str	r0, [r6, #0]
    2492:	681b      	ldr	r3, [r3, #0]
    2494:	6023      	str	r3, [r4, #0]
    2496:	e004      	b.n	24a2 <io_put_char+0xd2>
    2498:	2d0a      	cmp	r5, #10
    249a:	d001      	beq.n	24a0 <io_put_char+0xd0>
    249c:	2d00      	cmp	r5, #0
    249e:	d100      	bne.n	24a2 <io_put_char+0xd2>
    24a0:	60f3      	str	r3, [r6, #12]
    24a2:	bd70      	pop	{r4, r5, r6, pc}
    24a4:	0040019c 	.word	0x0040019c
    24a8:	00400190 	.word	0x00400190
    24ac:	e5007f00 	.word	0xe5007f00
    24b0:	00400724 	.word	0x00400724
    24b4:	00400194 	.word	0x00400194
    24b8:	00400198 	.word	0x00400198

000024bc <io_put_fixed>:
    24bc:	b5f0      	push	{r4, r5, r6, r7, lr}
    24be:	b08d      	sub	sp, #52	; 0x34
    24c0:	0005      	movs	r5, r0
    24c2:	9200      	str	r2, [sp, #0]
    24c4:	2b0c      	cmp	r3, #12
    24c6:	d900      	bls.n	24ca <io_put_fixed+0xe>
    24c8:	230c      	movs	r3, #12
    24ca:	ae05      	add	r6, sp, #20
    24cc:	001c      	movs	r4, r3
    24ce:	000a      	movs	r2, r1
    24d0:	2000      	movs	r0, #0
    24d2:	9601      	str	r6, [sp, #4]
    24d4:	0412      	lsls	r2, r2, #16
    24d6:	0c12      	lsrs	r2, r2, #16
    24d8:	4298      	cmp	r0, r3
    24da:	d00b      	beq.n	24f4 <io_put_fixed+0x38>
    24dc:	260a      	movs	r6, #10
    24de:	4356      	muls	r6, r2
    24e0:	0032      	movs	r2, r6
    24e2:	9e01      	ldr	r6, [sp, #4]
    24e4:	3001      	adds	r0, #1
    24e6:	1a36      	subs	r6, r6, r0
    24e8:	46b4      	mov	ip, r6
    24ea:	0c16      	lsrs	r6, r2, #16
    24ec:	3630      	adds	r6, #48	; 0x30
    24ee:	4667      	mov	r7, ip
    24f0:	54fe      	strb	r6, [r7, r3]
    24f2:	e7ef      	b.n	24d4 <io_put_fixed+0x18>
    24f4:	200a      	movs	r0, #10
    24f6:	4342      	muls	r2, r0
    24f8:	3806      	subs	r0, #6
    24fa:	0c12      	lsrs	r2, r2, #16
    24fc:	4290      	cmp	r0, r2
    24fe:	4192      	sbcs	r2, r2
    2500:	4252      	negs	r2, r2
    2502:	2000      	movs	r0, #0
    2504:	2730      	movs	r7, #48	; 0x30
    2506:	ae05      	add	r6, sp, #20
    2508:	2a00      	cmp	r2, #0
    250a:	d00d      	beq.n	2528 <io_put_fixed+0x6c>
    250c:	4283      	cmp	r3, r0
    250e:	d00a      	beq.n	2526 <io_put_fixed+0x6a>
    2510:	5c32      	ldrb	r2, [r6, r0]
    2512:	2a38      	cmp	r2, #56	; 0x38
    2514:	d902      	bls.n	251c <io_put_fixed+0x60>
    2516:	5437      	strb	r7, [r6, r0]
    2518:	2201      	movs	r2, #1
    251a:	e002      	b.n	2522 <io_put_fixed+0x66>
    251c:	3201      	adds	r2, #1
    251e:	5432      	strb	r2, [r6, r0]
    2520:	2200      	movs	r2, #0
    2522:	3001      	adds	r0, #1
    2524:	e7ef      	b.n	2506 <io_put_fixed+0x4a>
    2526:	2201      	movs	r2, #1
    2528:	2b00      	cmp	r3, #0
    252a:	d002      	beq.n	2532 <io_put_fixed+0x76>
    252c:	202e      	movs	r0, #46	; 0x2e
    252e:	1c5c      	adds	r4, r3, #1
    2530:	54f0      	strb	r0, [r6, r3]
    2532:	0c09      	lsrs	r1, r1, #16
    2534:	1851      	adds	r1, r2, r1
    2536:	a803      	add	r0, sp, #12
    2538:	f7fd eec0 	blx	2bc <sark_div10>
    253c:	9b04      	ldr	r3, [sp, #16]
    253e:	9903      	ldr	r1, [sp, #12]
    2540:	3330      	adds	r3, #48	; 0x30
    2542:	1c67      	adds	r7, r4, #1
    2544:	5533      	strb	r3, [r6, r4]
    2546:	2900      	cmp	r1, #0
    2548:	d001      	beq.n	254e <io_put_fixed+0x92>
    254a:	003c      	movs	r4, r7
    254c:	e7f3      	b.n	2536 <io_put_fixed+0x7a>
    254e:	9b13      	ldr	r3, [sp, #76]	; 0x4c
    2550:	2b00      	cmp	r3, #0
    2552:	d002      	beq.n	255a <io_put_fixed+0x9e>
    2554:	232d      	movs	r3, #45	; 0x2d
    2556:	55f3      	strb	r3, [r6, r7]
    2558:	1ca7      	adds	r7, r4, #2
    255a:	9c00      	ldr	r4, [sp, #0]
    255c:	1c7b      	adds	r3, r7, #1
    255e:	42a3      	cmp	r3, r4
    2560:	d205      	bcs.n	256e <io_put_fixed+0xb2>
    2562:	9912      	ldr	r1, [sp, #72]	; 0x48
    2564:	0028      	movs	r0, r5
    2566:	f7ff ff33 	bl	23d0 <io_put_char>
    256a:	3c01      	subs	r4, #1
    256c:	e7f6      	b.n	255c <io_put_fixed+0xa0>
    256e:	3f01      	subs	r7, #1
    2570:	5df1      	ldrb	r1, [r6, r7]
    2572:	0028      	movs	r0, r5
    2574:	f7ff ff2c 	bl	23d0 <io_put_char>
    2578:	2f00      	cmp	r7, #0
    257a:	d1f8      	bne.n	256e <io_put_fixed+0xb2>
    257c:	b00d      	add	sp, #52	; 0x34
    257e:	bdf0      	pop	{r4, r5, r6, r7, pc}

00002580 <io_printf>:
    2580:	b40e      	push	{r1, r2, r3}
    2582:	b5f0      	push	{r4, r5, r6, r7, lr}
    2584:	0004      	movs	r4, r0
    2586:	b08c      	sub	sp, #48	; 0x30
    2588:	2803      	cmp	r0, #3
    258a:	d100      	bne.n	258e <io_printf+0xe>
    258c:	e140      	b.n	2810 <io_printf+0x290>
    258e:	d903      	bls.n	2598 <io_printf+0x18>
    2590:	4aa2      	ldr	r2, [pc, #648]	; (281c <io_printf+0x29c>)
    2592:	2300      	movs	r3, #0
    2594:	7003      	strb	r3, [r0, #0]
    2596:	6013      	str	r3, [r2, #0]
    2598:	ab12      	add	r3, sp, #72	; 0x48
    259a:	9305      	str	r3, [sp, #20]
    259c:	9b11      	ldr	r3, [sp, #68]	; 0x44
    259e:	7819      	ldrb	r1, [r3, #0]
    25a0:	2900      	cmp	r1, #0
    25a2:	d100      	bne.n	25a6 <io_printf+0x26>
    25a4:	e134      	b.n	2810 <io_printf+0x290>
    25a6:	2925      	cmp	r1, #37	; 0x25
    25a8:	d002      	beq.n	25b0 <io_printf+0x30>
    25aa:	3301      	adds	r3, #1
    25ac:	9311      	str	r3, [sp, #68]	; 0x44
    25ae:	e059      	b.n	2664 <io_printf+0xe4>
    25b0:	9b11      	ldr	r3, [sp, #68]	; 0x44
    25b2:	7859      	ldrb	r1, [r3, #1]
    25b4:	1c9a      	adds	r2, r3, #2
    25b6:	2900      	cmp	r1, #0
    25b8:	d100      	bne.n	25bc <io_printf+0x3c>
    25ba:	e129      	b.n	2810 <io_printf+0x290>
    25bc:	2320      	movs	r3, #32
    25be:	9303      	str	r3, [sp, #12]
    25c0:	2930      	cmp	r1, #48	; 0x30
    25c2:	d100      	bne.n	25c6 <io_printf+0x46>
    25c4:	9103      	str	r1, [sp, #12]
    25c6:	2500      	movs	r5, #0
    25c8:	000b      	movs	r3, r1
    25ca:	3b30      	subs	r3, #48	; 0x30
    25cc:	9211      	str	r2, [sp, #68]	; 0x44
    25ce:	2b09      	cmp	r3, #9
    25d0:	d80a      	bhi.n	25e8 <io_printf+0x68>
    25d2:	230a      	movs	r3, #10
    25d4:	436b      	muls	r3, r5
    25d6:	3201      	adds	r2, #1
    25d8:	1859      	adds	r1, r3, r1
    25da:	3930      	subs	r1, #48	; 0x30
    25dc:	1e53      	subs	r3, r2, #1
    25de:	000d      	movs	r5, r1
    25e0:	7819      	ldrb	r1, [r3, #0]
    25e2:	2900      	cmp	r1, #0
    25e4:	d1f0      	bne.n	25c8 <io_printf+0x48>
    25e6:	e113      	b.n	2810 <io_printf+0x290>
    25e8:	2306      	movs	r3, #6
    25ea:	292e      	cmp	r1, #46	; 0x2e
    25ec:	d112      	bne.n	2614 <io_printf+0x94>
    25ee:	7811      	ldrb	r1, [r2, #0]
    25f0:	2300      	movs	r3, #0
    25f2:	3201      	adds	r2, #1
    25f4:	0008      	movs	r0, r1
    25f6:	3830      	subs	r0, #48	; 0x30
    25f8:	9211      	str	r2, [sp, #68]	; 0x44
    25fa:	2809      	cmp	r0, #9
    25fc:	d807      	bhi.n	260e <io_printf+0x8e>
    25fe:	200a      	movs	r0, #10
    2600:	4358      	muls	r0, r3
    2602:	1841      	adds	r1, r0, r1
    2604:	000b      	movs	r3, r1
    2606:	3b30      	subs	r3, #48	; 0x30
    2608:	7811      	ldrb	r1, [r2, #0]
    260a:	3201      	adds	r2, #1
    260c:	e7f2      	b.n	25f4 <io_printf+0x74>
    260e:	2900      	cmp	r1, #0
    2610:	d100      	bne.n	2614 <io_printf+0x94>
    2612:	e0fd      	b.n	2810 <io_printf+0x290>
    2614:	296b      	cmp	r1, #107	; 0x6b
    2616:	d100      	bne.n	261a <io_printf+0x9a>
    2618:	e0aa      	b.n	2770 <io_printf+0x1f0>
    261a:	d80f      	bhi.n	263c <io_printf+0xbc>
    261c:	2963      	cmp	r1, #99	; 0x63
    261e:	d01d      	beq.n	265c <io_printf+0xdc>
    2620:	d806      	bhi.n	2630 <io_printf+0xb0>
    2622:	294b      	cmp	r1, #75	; 0x4b
    2624:	d100      	bne.n	2628 <io_printf+0xa8>
    2626:	e099      	b.n	275c <io_printf+0x1dc>
    2628:	2952      	cmp	r1, #82	; 0x52
    262a:	d100      	bne.n	262e <io_printf+0xae>
    262c:	e096      	b.n	275c <io_printf+0x1dc>
    262e:	e019      	b.n	2664 <io_printf+0xe4>
    2630:	2964      	cmp	r1, #100	; 0x64
    2632:	d037      	beq.n	26a4 <io_printf+0x124>
    2634:	2966      	cmp	r1, #102	; 0x66
    2636:	d100      	bne.n	263a <io_printf+0xba>
    2638:	e090      	b.n	275c <io_printf+0x1dc>
    263a:	e013      	b.n	2664 <io_printf+0xe4>
    263c:	2975      	cmp	r1, #117	; 0x75
    263e:	d066      	beq.n	270e <io_printf+0x18e>
    2640:	d805      	bhi.n	264e <io_printf+0xce>
    2642:	2972      	cmp	r1, #114	; 0x72
    2644:	d100      	bne.n	2648 <io_printf+0xc8>
    2646:	e093      	b.n	2770 <io_printf+0x1f0>
    2648:	2973      	cmp	r1, #115	; 0x73
    264a:	d00f      	beq.n	266c <io_printf+0xec>
    264c:	e00a      	b.n	2664 <io_printf+0xe4>
    264e:	2978      	cmp	r1, #120	; 0x78
    2650:	d100      	bne.n	2654 <io_printf+0xd4>
    2652:	e09e      	b.n	2792 <io_printf+0x212>
    2654:	297a      	cmp	r1, #122	; 0x7a
    2656:	d100      	bne.n	265a <io_printf+0xda>
    2658:	e0c2      	b.n	27e0 <io_printf+0x260>
    265a:	e003      	b.n	2664 <io_printf+0xe4>
    265c:	9b05      	ldr	r3, [sp, #20]
    265e:	6819      	ldr	r1, [r3, #0]
    2660:	1d1a      	adds	r2, r3, #4
    2662:	9205      	str	r2, [sp, #20]
    2664:	0020      	movs	r0, r4
    2666:	f7ff feb3 	bl	23d0 <io_put_char>
    266a:	e797      	b.n	259c <io_printf+0x1c>
    266c:	9b05      	ldr	r3, [sp, #20]
    266e:	681e      	ldr	r6, [r3, #0]
    2670:	1d1a      	adds	r2, r3, #4
    2672:	0033      	movs	r3, r6
    2674:	9205      	str	r2, [sp, #20]
    2676:	1b9f      	subs	r7, r3, r6
    2678:	3301      	adds	r3, #1
    267a:	1e5a      	subs	r2, r3, #1
    267c:	7812      	ldrb	r2, [r2, #0]
    267e:	2a00      	cmp	r2, #0
    2680:	d1f9      	bne.n	2676 <io_printf+0xf6>
    2682:	42bd      	cmp	r5, r7
    2684:	dd05      	ble.n	2692 <io_printf+0x112>
    2686:	2120      	movs	r1, #32
    2688:	0020      	movs	r0, r4
    268a:	f7ff fea1 	bl	23d0 <io_put_char>
    268e:	3d01      	subs	r5, #1
    2690:	e7f7      	b.n	2682 <io_printf+0x102>
    2692:	7831      	ldrb	r1, [r6, #0]
    2694:	2900      	cmp	r1, #0
    2696:	d100      	bne.n	269a <io_printf+0x11a>
    2698:	e780      	b.n	259c <io_printf+0x1c>
    269a:	0020      	movs	r0, r4
    269c:	3601      	adds	r6, #1
    269e:	f7ff fe97 	bl	23d0 <io_put_char>
    26a2:	e7f6      	b.n	2692 <io_printf+0x112>
    26a4:	9b05      	ldr	r3, [sp, #20]
    26a6:	6819      	ldr	r1, [r3, #0]
    26a8:	1d1a      	adds	r2, r3, #4
    26aa:	2300      	movs	r3, #0
    26ac:	9205      	str	r2, [sp, #20]
    26ae:	9303      	str	r3, [sp, #12]
    26b0:	4299      	cmp	r1, r3
    26b2:	da02      	bge.n	26ba <io_printf+0x13a>
    26b4:	332d      	adds	r3, #45	; 0x2d
    26b6:	4249      	negs	r1, r1
    26b8:	9303      	str	r3, [sp, #12]
    26ba:	2600      	movs	r6, #0
    26bc:	a806      	add	r0, sp, #24
    26be:	f7fd edfe 	blx	2bc <sark_div10>
    26c2:	9b07      	ldr	r3, [sp, #28]
    26c4:	3601      	adds	r6, #1
    26c6:	9906      	ldr	r1, [sp, #24]
    26c8:	af08      	add	r7, sp, #32
    26ca:	1e72      	subs	r2, r6, #1
    26cc:	3330      	adds	r3, #48	; 0x30
    26ce:	54bb      	strb	r3, [r7, r2]
    26d0:	2900      	cmp	r1, #0
    26d2:	d1f3      	bne.n	26bc <io_printf+0x13c>
    26d4:	3e01      	subs	r6, #1
    26d6:	5dbb      	ldrb	r3, [r7, r6]
    26d8:	2b30      	cmp	r3, #48	; 0x30
    26da:	d101      	bne.n	26e0 <io_printf+0x160>
    26dc:	2e00      	cmp	r6, #0
    26de:	d1f9      	bne.n	26d4 <io_printf+0x154>
    26e0:	9b03      	ldr	r3, [sp, #12]
    26e2:	2b00      	cmp	r3, #0
    26e4:	d003      	beq.n	26ee <io_printf+0x16e>
    26e6:	466b      	mov	r3, sp
    26e8:	3601      	adds	r6, #1
    26ea:	7b1b      	ldrb	r3, [r3, #12]
    26ec:	55bb      	strb	r3, [r7, r6]
    26ee:	1c73      	adds	r3, r6, #1
    26f0:	42ab      	cmp	r3, r5
    26f2:	d205      	bcs.n	2700 <io_printf+0x180>
    26f4:	2120      	movs	r1, #32
    26f6:	0020      	movs	r0, r4
    26f8:	f7ff fe6a 	bl	23d0 <io_put_char>
    26fc:	3d01      	subs	r5, #1
    26fe:	e7f6      	b.n	26ee <io_printf+0x16e>
    2700:	5db9      	ldrb	r1, [r7, r6]
    2702:	0020      	movs	r0, r4
    2704:	f7ff fe64 	bl	23d0 <io_put_char>
    2708:	3e01      	subs	r6, #1
    270a:	d2f9      	bcs.n	2700 <io_printf+0x180>
    270c:	e746      	b.n	259c <io_printf+0x1c>
    270e:	9b05      	ldr	r3, [sp, #20]
    2710:	2600      	movs	r6, #0
    2712:	6819      	ldr	r1, [r3, #0]
    2714:	1d1a      	adds	r2, r3, #4
    2716:	9205      	str	r2, [sp, #20]
    2718:	a806      	add	r0, sp, #24
    271a:	f7fd edd0 	blx	2bc <sark_div10>
    271e:	9b07      	ldr	r3, [sp, #28]
    2720:	3601      	adds	r6, #1
    2722:	9906      	ldr	r1, [sp, #24]
    2724:	af08      	add	r7, sp, #32
    2726:	1e72      	subs	r2, r6, #1
    2728:	3330      	adds	r3, #48	; 0x30
    272a:	54bb      	strb	r3, [r7, r2]
    272c:	2900      	cmp	r1, #0
    272e:	d1f3      	bne.n	2718 <io_printf+0x198>
    2730:	3e01      	subs	r6, #1
    2732:	5dbb      	ldrb	r3, [r7, r6]
    2734:	2b30      	cmp	r3, #48	; 0x30
    2736:	d101      	bne.n	273c <io_printf+0x1bc>
    2738:	2e00      	cmp	r6, #0
    273a:	d1f9      	bne.n	2730 <io_printf+0x1b0>
    273c:	1c73      	adds	r3, r6, #1
    273e:	42ab      	cmp	r3, r5
    2740:	d205      	bcs.n	274e <io_printf+0x1ce>
    2742:	9903      	ldr	r1, [sp, #12]
    2744:	0020      	movs	r0, r4
    2746:	f7ff fe43 	bl	23d0 <io_put_char>
    274a:	3d01      	subs	r5, #1
    274c:	e7f6      	b.n	273c <io_printf+0x1bc>
    274e:	5db9      	ldrb	r1, [r7, r6]
    2750:	0020      	movs	r0, r4
    2752:	f7ff fe3d 	bl	23d0 <io_put_char>
    2756:	3e01      	subs	r6, #1
    2758:	d2f9      	bcs.n	274e <io_printf+0x1ce>
    275a:	e71f      	b.n	259c <io_printf+0x1c>
    275c:	9905      	ldr	r1, [sp, #20]
    275e:	1d0a      	adds	r2, r1, #4
    2760:	9205      	str	r2, [sp, #20]
    2762:	2200      	movs	r2, #0
    2764:	9201      	str	r2, [sp, #4]
    2766:	9a03      	ldr	r2, [sp, #12]
    2768:	9200      	str	r2, [sp, #0]
    276a:	002a      	movs	r2, r5
    276c:	6809      	ldr	r1, [r1, #0]
    276e:	e00c      	b.n	278a <io_printf+0x20a>
    2770:	9a05      	ldr	r2, [sp, #20]
    2772:	1d11      	adds	r1, r2, #4
    2774:	6812      	ldr	r2, [r2, #0]
    2776:	9105      	str	r1, [sp, #20]
    2778:	17d0      	asrs	r0, r2, #31
    277a:	1811      	adds	r1, r2, r0
    277c:	0fd2      	lsrs	r2, r2, #31
    277e:	4041      	eors	r1, r0
    2780:	9201      	str	r2, [sp, #4]
    2782:	9a03      	ldr	r2, [sp, #12]
    2784:	9200      	str	r2, [sp, #0]
    2786:	0049      	lsls	r1, r1, #1
    2788:	002a      	movs	r2, r5
    278a:	0020      	movs	r0, r4
    278c:	f7ff fe96 	bl	24bc <io_put_fixed>
    2790:	e704      	b.n	259c <io_printf+0x1c>
    2792:	9b05      	ldr	r3, [sp, #20]
    2794:	4822      	ldr	r0, [pc, #136]	; (2820 <io_printf+0x2a0>)
    2796:	1d1a      	adds	r2, r3, #4
    2798:	9205      	str	r2, [sp, #20]
    279a:	681b      	ldr	r3, [r3, #0]
    279c:	220f      	movs	r2, #15
    279e:	2600      	movs	r6, #0
    27a0:	af08      	add	r7, sp, #32
    27a2:	4694      	mov	ip, r2
    27a4:	4661      	mov	r1, ip
    27a6:	4019      	ands	r1, r3
    27a8:	3601      	adds	r6, #1
    27aa:	1e72      	subs	r2, r6, #1
    27ac:	5c41      	ldrb	r1, [r0, r1]
    27ae:	54b9      	strb	r1, [r7, r2]
    27b0:	091b      	lsrs	r3, r3, #4
    27b2:	d1f7      	bne.n	27a4 <io_printf+0x224>
    27b4:	3e01      	subs	r6, #1
    27b6:	5dbb      	ldrb	r3, [r7, r6]
    27b8:	2b30      	cmp	r3, #48	; 0x30
    27ba:	d101      	bne.n	27c0 <io_printf+0x240>
    27bc:	2e00      	cmp	r6, #0
    27be:	d1f9      	bne.n	27b4 <io_printf+0x234>
    27c0:	1c73      	adds	r3, r6, #1
    27c2:	42ab      	cmp	r3, r5
    27c4:	d205      	bcs.n	27d2 <io_printf+0x252>
    27c6:	9903      	ldr	r1, [sp, #12]
    27c8:	0020      	movs	r0, r4
    27ca:	f7ff fe01 	bl	23d0 <io_put_char>
    27ce:	3d01      	subs	r5, #1
    27d0:	e7f6      	b.n	27c0 <io_printf+0x240>
    27d2:	5db9      	ldrb	r1, [r7, r6]
    27d4:	0020      	movs	r0, r4
    27d6:	f7ff fdfb 	bl	23d0 <io_put_char>
    27da:	3e01      	subs	r6, #1
    27dc:	d2f9      	bcs.n	27d2 <io_printf+0x252>
    27de:	e6dd      	b.n	259c <io_printf+0x1c>
    27e0:	9b05      	ldr	r3, [sp, #20]
    27e2:	1e6e      	subs	r6, r5, #1
    27e4:	1d1a      	adds	r2, r3, #4
    27e6:	681b      	ldr	r3, [r3, #0]
    27e8:	9303      	str	r3, [sp, #12]
    27ea:	4b0e      	ldr	r3, [pc, #56]	; (2824 <io_printf+0x2a4>)
    27ec:	270f      	movs	r7, #15
    27ee:	18ed      	adds	r5, r5, r3
    27f0:	00ad      	lsls	r5, r5, #2
    27f2:	9205      	str	r2, [sp, #20]
    27f4:	2e00      	cmp	r6, #0
    27f6:	da00      	bge.n	27fa <io_printf+0x27a>
    27f8:	e6d0      	b.n	259c <io_printf+0x1c>
    27fa:	9b03      	ldr	r3, [sp, #12]
    27fc:	4a08      	ldr	r2, [pc, #32]	; (2820 <io_printf+0x2a0>)
    27fe:	40eb      	lsrs	r3, r5
    2800:	403b      	ands	r3, r7
    2802:	5cd1      	ldrb	r1, [r2, r3]
    2804:	0020      	movs	r0, r4
    2806:	f7ff fde3 	bl	23d0 <io_put_char>
    280a:	3e01      	subs	r6, #1
    280c:	3d04      	subs	r5, #4
    280e:	e7f1      	b.n	27f4 <io_printf+0x274>
    2810:	b00c      	add	sp, #48	; 0x30
    2812:	bcf0      	pop	{r4, r5, r6, r7}
    2814:	bc08      	pop	{r3}
    2816:	b003      	add	sp, #12
    2818:	4718      	bx	r3
    281a:	46c0      	nop			; (mov r8, r8)
    281c:	0040019c 	.word	0x0040019c
    2820:	00004ab1 	.word	0x00004ab1
    2824:	3fffffff 	.word	0x3fffffff

00002828 <configure_dma_controller>:
    2828:	4b06      	ldr	r3, [pc, #24]	; (2844 <configure_dma_controller+0x1c>)
    282a:	223f      	movs	r2, #63	; 0x3f
    282c:	601a      	str	r2, [r3, #0]
    282e:	3a32      	subs	r2, #50	; 0x32
    2830:	601a      	str	r2, [r3, #0]
    2832:	4b05      	ldr	r3, [pc, #20]	; (2848 <configure_dma_controller+0x20>)
    2834:	22c0      	movs	r2, #192	; 0xc0
    2836:	0112      	lsls	r2, r2, #4
    2838:	601a      	str	r2, [r3, #0]
    283a:	4b04      	ldr	r3, [pc, #16]	; (284c <configure_dma_controller+0x24>)
    283c:	2203      	movs	r2, #3
    283e:	601a      	str	r2, [r3, #0]
    2840:	4770      	bx	lr
    2842:	46c0      	nop			; (mov r8, r8)
    2844:	40000010 	.word	0x40000010
    2848:	40000018 	.word	0x40000018
    284c:	40000028 	.word	0x40000028

00002850 <configure_timer1>:
    2850:	4b07      	ldr	r3, [pc, #28]	; (2870 <configure_timer1+0x20>)
    2852:	2200      	movs	r2, #0
    2854:	601a      	str	r2, [r3, #0]
    2856:	4b07      	ldr	r3, [pc, #28]	; (2874 <configure_timer1+0x24>)
    2858:	3201      	adds	r2, #1
    285a:	601a      	str	r2, [r3, #0]
    285c:	4b06      	ldr	r3, [pc, #24]	; (2878 <configure_timer1+0x28>)
    285e:	8c9b      	ldrh	r3, [r3, #36]	; 0x24
    2860:	4358      	muls	r0, r3
    2862:	2384      	movs	r3, #132	; 0x84
    2864:	059b      	lsls	r3, r3, #22
    2866:	6018      	str	r0, [r3, #0]
    2868:	4b04      	ldr	r3, [pc, #16]	; (287c <configure_timer1+0x2c>)
    286a:	6018      	str	r0, [r3, #0]
    286c:	4770      	bx	lr
    286e:	46c0      	nop			; (mov r8, r8)
    2870:	21000008 	.word	0x21000008
    2874:	2100000c 	.word	0x2100000c
    2878:	e5007f00 	.word	0xe5007f00
    287c:	21000018 	.word	0x21000018

00002880 <configure_vic>:
    2880:	4b36      	ldr	r3, [pc, #216]	; (295c <configure_vic+0xdc>)
    2882:	4a37      	ldr	r2, [pc, #220]	; (2960 <configure_vic+0xe0>)
    2884:	b530      	push	{r4, r5, lr}
    2886:	601a      	str	r2, [r3, #0]
    2888:	4a36      	ldr	r2, [pc, #216]	; (2964 <configure_vic+0xe4>)
    288a:	2320      	movs	r3, #32
    288c:	69d9      	ldr	r1, [r3, #28]
    288e:	6011      	str	r1, [r2, #0]
    2890:	4935      	ldr	r1, [pc, #212]	; (2968 <configure_vic+0xe8>)
    2892:	4a36      	ldr	r2, [pc, #216]	; (296c <configure_vic+0xec>)
    2894:	0004      	movs	r4, r0
    2896:	6808      	ldr	r0, [r1, #0]
    2898:	6010      	str	r0, [r2, #0]
    289a:	4a35      	ldr	r2, [pc, #212]	; (2970 <configure_vic+0xf0>)
    289c:	4835      	ldr	r0, [pc, #212]	; (2974 <configure_vic+0xf4>)
    289e:	6815      	ldr	r5, [r2, #0]
    28a0:	6005      	str	r5, [r0, #0]
    28a2:	4835      	ldr	r0, [pc, #212]	; (2978 <configure_vic+0xf8>)
    28a4:	6800      	ldr	r0, [r0, #0]
    28a6:	2807      	cmp	r0, #7
    28a8:	d81c      	bhi.n	28e4 <configure_vic+0x64>
    28aa:	f7fd fd51 	bl	350 <__gnu_thumb1_case_uqi>
    28ae:	0e04      	.short	0x0e04
    28b0:	04171b13 	.word	0x04171b13
    28b4:	0909      	.short	0x0909
    28b6:	4831      	ldr	r0, [pc, #196]	; (297c <configure_vic+0xfc>)
    28b8:	61d8      	str	r0, [r3, #28]
    28ba:	2080      	movs	r0, #128	; 0x80
    28bc:	0440      	lsls	r0, r0, #17
    28be:	e012      	b.n	28e6 <configure_vic+0x66>
    28c0:	482f      	ldr	r0, [pc, #188]	; (2980 <configure_vic+0x100>)
    28c2:	61d8      	str	r0, [r3, #28]
    28c4:	2080      	movs	r0, #128	; 0x80
    28c6:	0500      	lsls	r0, r0, #20
    28c8:	e00d      	b.n	28e6 <configure_vic+0x66>
    28ca:	482e      	ldr	r0, [pc, #184]	; (2984 <configure_vic+0x104>)
    28cc:	61d8      	str	r0, [r3, #28]
    28ce:	2080      	movs	r0, #128	; 0x80
    28d0:	0140      	lsls	r0, r0, #5
    28d2:	e008      	b.n	28e6 <configure_vic+0x66>
    28d4:	482c      	ldr	r0, [pc, #176]	; (2988 <configure_vic+0x108>)
    28d6:	61d8      	str	r0, [r3, #28]
    28d8:	2010      	movs	r0, #16
    28da:	e004      	b.n	28e6 <configure_vic+0x66>
    28dc:	482b      	ldr	r0, [pc, #172]	; (298c <configure_vic+0x10c>)
    28de:	61d8      	str	r0, [r3, #28]
    28e0:	2002      	movs	r0, #2
    28e2:	e000      	b.n	28e6 <configure_vic+0x66>
    28e4:	2000      	movs	r0, #0
    28e6:	2359      	movs	r3, #89	; 0x59
    28e8:	781b      	ldrb	r3, [r3, #0]
    28ea:	4d29      	ldr	r5, [pc, #164]	; (2990 <configure_vic+0x110>)
    28ec:	009b      	lsls	r3, r3, #2
    28ee:	195b      	adds	r3, r3, r5
    28f0:	2500      	movs	r5, #0
    28f2:	601d      	str	r5, [r3, #0]
    28f4:	4b27      	ldr	r3, [pc, #156]	; (2994 <configure_vic+0x114>)
    28f6:	4d28      	ldr	r5, [pc, #160]	; (2998 <configure_vic+0x118>)
    28f8:	601d      	str	r5, [r3, #0]
    28fa:	4b25      	ldr	r3, [pc, #148]	; (2990 <configure_vic+0x110>)
    28fc:	2532      	movs	r5, #50	; 0x32
    28fe:	601d      	str	r5, [r3, #0]
    2900:	4b26      	ldr	r3, [pc, #152]	; (299c <configure_vic+0x11c>)
    2902:	4d27      	ldr	r5, [pc, #156]	; (29a0 <configure_vic+0x120>)
    2904:	601d      	str	r5, [r3, #0]
    2906:	4b27      	ldr	r3, [pc, #156]	; (29a4 <configure_vic+0x124>)
    2908:	2538      	movs	r5, #56	; 0x38
    290a:	601d      	str	r5, [r3, #0]
    290c:	4b26      	ldr	r3, [pc, #152]	; (29a8 <configure_vic+0x128>)
    290e:	4d27      	ldr	r5, [pc, #156]	; (29ac <configure_vic+0x12c>)
    2910:	601d      	str	r5, [r3, #0]
    2912:	4b27      	ldr	r3, [pc, #156]	; (29b0 <configure_vic+0x130>)
    2914:	253b      	movs	r5, #59	; 0x3b
    2916:	601d      	str	r5, [r3, #0]
    2918:	4b26      	ldr	r3, [pc, #152]	; (29b4 <configure_vic+0x134>)
    291a:	4d27      	ldr	r5, [pc, #156]	; (29b8 <configure_vic+0x138>)
    291c:	601d      	str	r5, [r3, #0]
    291e:	4b27      	ldr	r3, [pc, #156]	; (29bc <configure_vic+0x13c>)
    2920:	252c      	movs	r5, #44	; 0x2c
    2922:	601d      	str	r5, [r3, #0]
    2924:	4b26      	ldr	r3, [pc, #152]	; (29c0 <configure_vic+0x140>)
    2926:	4d27      	ldr	r5, [pc, #156]	; (29c4 <configure_vic+0x144>)
    2928:	601d      	str	r5, [r3, #0]
    292a:	4b27      	ldr	r3, [pc, #156]	; (29c8 <configure_vic+0x148>)
    292c:	2524      	movs	r5, #36	; 0x24
    292e:	601d      	str	r5, [r3, #0]
    2930:	4b26      	ldr	r3, [pc, #152]	; (29cc <configure_vic+0x14c>)
    2932:	4d27      	ldr	r5, [pc, #156]	; (29d0 <configure_vic+0x150>)
    2934:	601d      	str	r5, [r3, #0]
    2936:	4b27      	ldr	r3, [pc, #156]	; (29d4 <configure_vic+0x154>)
    2938:	252b      	movs	r5, #43	; 0x2b
    293a:	601d      	str	r5, [r3, #0]
    293c:	4b26      	ldr	r3, [pc, #152]	; (29d8 <configure_vic+0x158>)
    293e:	4d27      	ldr	r5, [pc, #156]	; (29dc <configure_vic+0x15c>)
    2940:	601d      	str	r5, [r3, #0]
    2942:	4b27      	ldr	r3, [pc, #156]	; (29e0 <configure_vic+0x160>)
    2944:	2521      	movs	r5, #33	; 0x21
    2946:	601d      	str	r5, [r3, #0]
    2948:	6008      	str	r0, [r1, #0]
    294a:	2c00      	cmp	r4, #0
    294c:	d101      	bne.n	2952 <configure_vic+0xd2>
    294e:	4925      	ldr	r1, [pc, #148]	; (29e4 <configure_vic+0x164>)
    2950:	e000      	b.n	2954 <configure_vic+0xd4>
    2952:	4903      	ldr	r1, [pc, #12]	; (2960 <configure_vic+0xe0>)
    2954:	4b24      	ldr	r3, [pc, #144]	; (29e8 <configure_vic+0x168>)
    2956:	400b      	ands	r3, r1
    2958:	6013      	str	r3, [r2, #0]
    295a:	bd30      	pop	{r4, r5, pc}
    295c:	1f000014 	.word	0x1f000014
    2960:	09003012 	.word	0x09003012
    2964:	004007f8 	.word	0x004007f8
    2968:	1f00000c 	.word	0x1f00000c
    296c:	00400998 	.word	0x00400998
    2970:	1f000010 	.word	0x1f000010
    2974:	00400844 	.word	0x00400844
    2978:	00400104 	.word	0x00400104
    297c:	00003130 	.word	0x00003130
    2980:	000031dc 	.word	0x000031dc
    2984:	0000332c 	.word	0x0000332c
    2988:	0000342c 	.word	0x0000342c
    298c:	000034d4 	.word	0x000034d4
    2990:	2f000200 	.word	0x2f000200
    2994:	2f000100 	.word	0x2f000100
    2998:	000002ec 	.word	0x000002ec
    299c:	2f00010c 	.word	0x2f00010c
    29a0:	000030b8 	.word	0x000030b8
    29a4:	2f00020c 	.word	0x2f00020c
    29a8:	2f000110 	.word	0x2f000110
    29ac:	00003168 	.word	0x00003168
    29b0:	2f000210 	.word	0x2f000210
    29b4:	2f000108 	.word	0x2f000108
    29b8:	0000329c 	.word	0x0000329c
    29bc:	2f000208 	.word	0x2f000208
    29c0:	2f000104 	.word	0x2f000104
    29c4:	000033a4 	.word	0x000033a4
    29c8:	2f000204 	.word	0x2f000204
    29cc:	2f000114 	.word	0x2f000114
    29d0:	00003214 	.word	0x00003214
    29d4:	2f000214 	.word	0x2f000214
    29d8:	2f000118 	.word	0x2f000118
    29dc:	0000346c 	.word	0x0000346c
    29e0:	2f000218 	.word	0x2f000218
    29e4:	09003002 	.word	0x09003002
    29e8:	ffffdfff 	.word	0xffffdfff

000029ec <resume>:
    29ec:	4b0b      	ldr	r3, [pc, #44]	; (2a1c <resume+0x30>)
    29ee:	b510      	push	{r4, lr}
    29f0:	6819      	ldr	r1, [r3, #0]
    29f2:	2901      	cmp	r1, #1
    29f4:	d105      	bne.n	2a02 <resume+0x16>
    29f6:	2200      	movs	r2, #0
    29f8:	601a      	str	r2, [r3, #0]
    29fa:	4a09      	ldr	r2, [pc, #36]	; (2a20 <resume+0x34>)
    29fc:	7e93      	ldrb	r3, [r2, #26]
    29fe:	404b      	eors	r3, r1
    2a00:	7693      	strb	r3, [r2, #26]
    2a02:	4b08      	ldr	r3, [pc, #32]	; (2a24 <resume+0x38>)
    2a04:	2200      	movs	r2, #0
    2a06:	2007      	movs	r0, #7
    2a08:	601a      	str	r2, [r3, #0]
    2a0a:	f7ff f81d 	bl	1a48 <sark_cpu_state>
    2a0e:	4b06      	ldr	r3, [pc, #24]	; (2a28 <resume+0x3c>)
    2a10:	2210      	movs	r2, #16
    2a12:	601a      	str	r2, [r3, #0]
    2a14:	4b05      	ldr	r3, [pc, #20]	; (2a2c <resume+0x40>)
    2a16:	32d2      	adds	r2, #210	; 0xd2
    2a18:	601a      	str	r2, [r3, #0]
    2a1a:	bd10      	pop	{r4, pc}
    2a1c:	004001a0 	.word	0x004001a0
    2a20:	00400760 	.word	0x00400760
    2a24:	004001a8 	.word	0x004001a8
    2a28:	1f000010 	.word	0x1f000010
    2a2c:	21000008 	.word	0x21000008

00002a30 <resume_wait>:
    2a30:	4b06      	ldr	r3, [pc, #24]	; (2a4c <resume_wait+0x1c>)
    2a32:	2001      	movs	r0, #1
    2a34:	681b      	ldr	r3, [r3, #0]
    2a36:	4098      	lsls	r0, r3
    2a38:	4b05      	ldr	r3, [pc, #20]	; (2a50 <resume_wait+0x20>)
    2a3a:	7e9a      	ldrb	r2, [r3, #26]
    2a3c:	4b05      	ldr	r3, [pc, #20]	; (2a54 <resume_wait+0x24>)
    2a3e:	681b      	ldr	r3, [r3, #0]
    2a40:	2a00      	cmp	r2, #0
    2a42:	d001      	beq.n	2a48 <resume_wait+0x18>
    2a44:	4398      	bics	r0, r3
    2a46:	e000      	b.n	2a4a <resume_wait+0x1a>
    2a48:	4018      	ands	r0, r3
    2a4a:	4770      	bx	lr
    2a4c:	00400724 	.word	0x00400724
    2a50:	00400760 	.word	0x00400760
    2a54:	e2000058 	.word	0xe2000058

00002a58 <dispatch>:
    2a58:	b5f7      	push	{r0, r1, r2, r4, r5, r6, r7, lr}
    2a5a:	4c34      	ldr	r4, [pc, #208]	; (2b2c <dispatch+0xd4>)
    2a5c:	2300      	movs	r3, #0
    2a5e:	6023      	str	r3, [r4, #0]
    2a60:	4b33      	ldr	r3, [pc, #204]	; (2b30 <dispatch+0xd8>)
    2a62:	681b      	ldr	r3, [r3, #0]
    2a64:	2b00      	cmp	r3, #0
    2a66:	d05f      	beq.n	2b28 <dispatch+0xd0>
    2a68:	f7fd ebae 	blx	1c8 <cpu_int_disable>
    2a6c:	2300      	movs	r3, #0
    2a6e:	0005      	movs	r5, r0
    2a70:	4a2f      	ldr	r2, [pc, #188]	; (2b30 <dispatch+0xd8>)
    2a72:	6811      	ldr	r1, [r2, #0]
    2a74:	2900      	cmp	r1, #0
    2a76:	d103      	bne.n	2a80 <dispatch+0x28>
    2a78:	6813      	ldr	r3, [r2, #0]
    2a7a:	2b00      	cmp	r3, #0
    2a7c:	d0f0      	beq.n	2a60 <dispatch+0x8>
    2a7e:	e044      	b.n	2b0a <dispatch+0xb2>
    2a80:	2b03      	cmp	r3, #3
    2a82:	d8f9      	bhi.n	2a78 <dispatch+0x20>
    2a84:	1c5a      	adds	r2, r3, #1
    2a86:	4694      	mov	ip, r2
    2a88:	22c8      	movs	r2, #200	; 0xc8
    2a8a:	435a      	muls	r2, r3
    2a8c:	4829      	ldr	r0, [pc, #164]	; (2b34 <dispatch+0xdc>)
    2a8e:	0013      	movs	r3, r2
    2a90:	5811      	ldr	r1, [r2, r0]
    2a92:	1882      	adds	r2, r0, r2
    2a94:	6852      	ldr	r2, [r2, #4]
    2a96:	4291      	cmp	r1, r2
    2a98:	d035      	beq.n	2b06 <dispatch+0xae>
    2a9a:	220c      	movs	r2, #12
    2a9c:	434a      	muls	r2, r1
    2a9e:	18d2      	adds	r2, r2, r3
    2aa0:	1882      	adds	r2, r0, r2
    2aa2:	6896      	ldr	r6, [r2, #8]
    2aa4:	9601      	str	r6, [sp, #4]
    2aa6:	6917      	ldr	r7, [r2, #16]
    2aa8:	68d6      	ldr	r6, [r2, #12]
    2aaa:	3101      	adds	r1, #1
    2aac:	220f      	movs	r2, #15
    2aae:	4011      	ands	r1, r2
    2ab0:	5019      	str	r1, [r3, r0]
    2ab2:	9b01      	ldr	r3, [sp, #4]
    2ab4:	2b00      	cmp	r3, #0
    2ab6:	d026      	beq.n	2b06 <dispatch+0xae>
    2ab8:	0028      	movs	r0, r5
    2aba:	f7fd eb8e 	blx	1d8 <cpu_int_restore>
    2abe:	4d1e      	ldr	r5, [pc, #120]	; (2b38 <dispatch+0xe0>)
    2ac0:	9a01      	ldr	r2, [sp, #4]
    2ac2:	692b      	ldr	r3, [r5, #16]
    2ac4:	4293      	cmp	r3, r2
    2ac6:	d102      	bne.n	2ace <dispatch+0x76>
    2ac8:	4a1c      	ldr	r2, [pc, #112]	; (2b3c <dispatch+0xe4>)
    2aca:	2101      	movs	r1, #1
    2acc:	6391      	str	r1, [r2, #56]	; 0x38
    2ace:	9a01      	ldr	r2, [sp, #4]
    2ad0:	4293      	cmp	r3, r2
    2ad2:	d103      	bne.n	2adc <dispatch+0x84>
    2ad4:	4b1a      	ldr	r3, [pc, #104]	; (2b40 <dispatch+0xe8>)
    2ad6:	681b      	ldr	r3, [r3, #0]
    2ad8:	2b00      	cmp	r3, #0
    2ada:	d103      	bne.n	2ae4 <dispatch+0x8c>
    2adc:	9b01      	ldr	r3, [sp, #4]
    2ade:	0039      	movs	r1, r7
    2ae0:	0030      	movs	r0, r6
    2ae2:	4798      	blx	r3
    2ae4:	9b01      	ldr	r3, [sp, #4]
    2ae6:	692a      	ldr	r2, [r5, #16]
    2ae8:	429a      	cmp	r2, r3
    2aea:	d107      	bne.n	2afc <dispatch+0xa4>
    2aec:	4a13      	ldr	r2, [pc, #76]	; (2b3c <dispatch+0xe4>)
    2aee:	6bd3      	ldr	r3, [r2, #60]	; 0x3c
    2af0:	2b00      	cmp	r3, #0
    2af2:	d001      	beq.n	2af8 <dispatch+0xa0>
    2af4:	3b01      	subs	r3, #1
    2af6:	63d3      	str	r3, [r2, #60]	; 0x3c
    2af8:	2300      	movs	r3, #0
    2afa:	6393      	str	r3, [r2, #56]	; 0x38
    2afc:	f7fd eb64 	blx	1c8 <cpu_int_disable>
    2b00:	2300      	movs	r3, #0
    2b02:	469c      	mov	ip, r3
    2b04:	0005      	movs	r5, r0
    2b06:	4663      	mov	r3, ip
    2b08:	e7b2      	b.n	2a70 <dispatch+0x18>
    2b0a:	f7fd eb6a 	blx	1e0 <cpu_wfi>
    2b0e:	6823      	ldr	r3, [r4, #0]
    2b10:	2b01      	cmp	r3, #1
    2b12:	d105      	bne.n	2b20 <dispatch+0xc8>
    2b14:	f7ff ff8c 	bl	2a30 <resume_wait>
    2b18:	2800      	cmp	r0, #0
    2b1a:	d101      	bne.n	2b20 <dispatch+0xc8>
    2b1c:	f7ff ff66 	bl	29ec <resume>
    2b20:	0028      	movs	r0, r5
    2b22:	f7fd eb5a 	blx	1d8 <cpu_int_restore>
    2b26:	e79b      	b.n	2a60 <dispatch+0x8>
    2b28:	bdf7      	pop	{r0, r1, r2, r4, r5, r6, r7, pc}
    2b2a:	46c0      	nop			; (mov r8, r8)
    2b2c:	004001a0 	.word	0x004001a0
    2b30:	004004d0 	.word	0x004004d0
    2b34:	004001b0 	.word	0x004001b0
    2b38:	004009a4 	.word	0x004009a4
    2b3c:	004007fc 	.word	0x004007fc
    2b40:	004001a8 	.word	0x004001a8

00002b44 <spin1_callback_on>:
    2b44:	b570      	push	{r4, r5, r6, lr}
    2b46:	0015      	movs	r5, r2
    2b48:	4a1d      	ldr	r2, [pc, #116]	; (2bc0 <spin1_callback_on+0x7c>)
    2b4a:	00c3      	lsls	r3, r0, #3
    2b4c:	5099      	str	r1, [r3, r2]
    2b4e:	18d3      	adds	r3, r2, r3
    2b50:	0004      	movs	r4, r0
    2b52:	605d      	str	r5, [r3, #4]
    2b54:	2d00      	cmp	r5, #0
    2b56:	da1b      	bge.n	2b90 <spin1_callback_on+0x4c>
    2b58:	4a1a      	ldr	r2, [pc, #104]	; (2bc4 <spin1_callback_on+0x80>)
    2b5a:	6813      	ldr	r3, [r2, #0]
    2b5c:	1c59      	adds	r1, r3, #1
    2b5e:	d012      	beq.n	2b86 <spin1_callback_on+0x42>
    2b60:	2800      	cmp	r0, #0
    2b62:	d102      	bne.n	2b6a <spin1_callback_on+0x26>
    2b64:	2b05      	cmp	r3, #5
    2b66:	d110      	bne.n	2b8a <spin1_callback_on+0x46>
    2b68:	e00d      	b.n	2b86 <spin1_callback_on+0x42>
    2b6a:	2805      	cmp	r0, #5
    2b6c:	d102      	bne.n	2b74 <spin1_callback_on+0x30>
    2b6e:	2b00      	cmp	r3, #0
    2b70:	d009      	beq.n	2b86 <spin1_callback_on+0x42>
    2b72:	e00a      	b.n	2b8a <spin1_callback_on+0x46>
    2b74:	2806      	cmp	r0, #6
    2b76:	d102      	bne.n	2b7e <spin1_callback_on+0x3a>
    2b78:	2b07      	cmp	r3, #7
    2b7a:	d106      	bne.n	2b8a <spin1_callback_on+0x46>
    2b7c:	e003      	b.n	2b86 <spin1_callback_on+0x42>
    2b7e:	2807      	cmp	r0, #7
    2b80:	d103      	bne.n	2b8a <spin1_callback_on+0x46>
    2b82:	2b06      	cmp	r3, #6
    2b84:	d101      	bne.n	2b8a <spin1_callback_on+0x46>
    2b86:	6014      	str	r4, [r2, #0]
    2b88:	e002      	b.n	2b90 <spin1_callback_on+0x4c>
    2b8a:	2013      	movs	r0, #19
    2b8c:	f7fd eace 	blx	12c <rt_error>
    2b90:	2c00      	cmp	r4, #0
    2b92:	d001      	beq.n	2b98 <spin1_callback_on+0x54>
    2b94:	2c05      	cmp	r4, #5
    2b96:	d101      	bne.n	2b9c <spin1_callback_on+0x58>
    2b98:	4a0b      	ldr	r2, [pc, #44]	; (2bc8 <spin1_callback_on+0x84>)
    2b9a:	e003      	b.n	2ba4 <spin1_callback_on+0x60>
    2b9c:	3c06      	subs	r4, #6
    2b9e:	2c01      	cmp	r4, #1
    2ba0:	d80c      	bhi.n	2bbc <spin1_callback_on+0x78>
    2ba2:	4a0a      	ldr	r2, [pc, #40]	; (2bcc <spin1_callback_on+0x88>)
    2ba4:	6813      	ldr	r3, [r2, #0]
    2ba6:	1c99      	adds	r1, r3, #2
    2ba8:	d007      	beq.n	2bba <spin1_callback_on+0x76>
    2baa:	3301      	adds	r3, #1
    2bac:	d106      	bne.n	2bbc <spin1_callback_on+0x78>
    2bae:	1c6b      	adds	r3, r5, #1
    2bb0:	d004      	beq.n	2bbc <spin1_callback_on+0x78>
    2bb2:	2013      	movs	r0, #19
    2bb4:	f7fd eaba 	blx	12c <rt_error>
    2bb8:	e000      	b.n	2bbc <spin1_callback_on+0x78>
    2bba:	6015      	str	r5, [r2, #0]
    2bbc:	bd70      	pop	{r4, r5, r6, pc}
    2bbe:	46c0      	nop			; (mov r8, r8)
    2bc0:	004009a4 	.word	0x004009a4
    2bc4:	00400104 	.word	0x00400104
    2bc8:	004000fc 	.word	0x004000fc
    2bcc:	00400100 	.word	0x00400100

00002bd0 <spin1_get_simulation_time>:
    2bd0:	4b01      	ldr	r3, [pc, #4]	; (2bd8 <spin1_get_simulation_time+0x8>)
    2bd2:	6818      	ldr	r0, [r3, #0]
    2bd4:	4770      	bx	lr
    2bd6:	46c0      	nop			; (mov r8, r8)
    2bd8:	0040099c 	.word	0x0040099c

00002bdc <spin1_exit>:
    2bdc:	4b04      	ldr	r3, [pc, #16]	; (2bf0 <spin1_exit+0x14>)
    2bde:	4a05      	ldr	r2, [pc, #20]	; (2bf4 <spin1_exit+0x18>)
    2be0:	601a      	str	r2, [r3, #0]
    2be2:	4b05      	ldr	r3, [pc, #20]	; (2bf8 <spin1_exit+0x1c>)
    2be4:	2200      	movs	r2, #0
    2be6:	601a      	str	r2, [r3, #0]
    2be8:	4b04      	ldr	r3, [pc, #16]	; (2bfc <spin1_exit+0x20>)
    2bea:	6018      	str	r0, [r3, #0]
    2bec:	4770      	bx	lr
    2bee:	46c0      	nop			; (mov r8, r8)
    2bf0:	1f000014 	.word	0x1f000014
    2bf4:	09003012 	.word	0x09003012
    2bf8:	004004d0 	.word	0x004004d0
    2bfc:	004007fc 	.word	0x004007fc

00002c00 <spin1_set_timer_tick>:
    2c00:	4b01      	ldr	r3, [pc, #4]	; (2c08 <spin1_set_timer_tick+0x8>)
    2c02:	6018      	str	r0, [r3, #0]
    2c04:	4770      	bx	lr
    2c06:	46c0      	nop			; (mov r8, r8)
    2c08:	004001a4 	.word	0x004001a4

00002c0c <clean_up>:
    2c0c:	b510      	push	{r4, lr}
    2c0e:	f7fd eadc 	blx	1c8 <cpu_int_disable>
    2c12:	4b10      	ldr	r3, [pc, #64]	; (2c54 <clean_up+0x48>)
    2c14:	681a      	ldr	r2, [r3, #0]
    2c16:	2320      	movs	r3, #32
    2c18:	61da      	str	r2, [r3, #28]
    2c1a:	4b0f      	ldr	r3, [pc, #60]	; (2c58 <clean_up+0x4c>)
    2c1c:	681a      	ldr	r2, [r3, #0]
    2c1e:	4b0f      	ldr	r3, [pc, #60]	; (2c5c <clean_up+0x50>)
    2c20:	601a      	str	r2, [r3, #0]
    2c22:	4b0f      	ldr	r3, [pc, #60]	; (2c60 <clean_up+0x54>)
    2c24:	681a      	ldr	r2, [r3, #0]
    2c26:	4b0f      	ldr	r3, [pc, #60]	; (2c64 <clean_up+0x58>)
    2c28:	601a      	str	r2, [r3, #0]
    2c2a:	2359      	movs	r3, #89	; 0x59
    2c2c:	781b      	ldrb	r3, [r3, #0]
    2c2e:	4a0e      	ldr	r2, [pc, #56]	; (2c68 <clean_up+0x5c>)
    2c30:	009b      	lsls	r3, r3, #2
    2c32:	189b      	adds	r3, r3, r2
    2c34:	2232      	movs	r2, #50	; 0x32
    2c36:	601a      	str	r2, [r3, #0]
    2c38:	4b0c      	ldr	r3, [pc, #48]	; (2c6c <clean_up+0x60>)
    2c3a:	3a31      	subs	r2, #49	; 0x31
    2c3c:	601a      	str	r2, [r3, #0]
    2c3e:	4b0c      	ldr	r3, [pc, #48]	; (2c70 <clean_up+0x64>)
    2c40:	2200      	movs	r2, #0
    2c42:	601a      	str	r2, [r3, #0]
    2c44:	4b0b      	ldr	r3, [pc, #44]	; (2c74 <clean_up+0x68>)
    2c46:	323f      	adds	r2, #63	; 0x3f
    2c48:	601a      	str	r2, [r3, #0]
    2c4a:	3a32      	subs	r2, #50	; 0x32
    2c4c:	601a      	str	r2, [r3, #0]
    2c4e:	f7fd eac4 	blx	1d8 <cpu_int_restore>
    2c52:	bd10      	pop	{r4, pc}
    2c54:	004007f8 	.word	0x004007f8
    2c58:	00400998 	.word	0x00400998
    2c5c:	1f00000c 	.word	0x1f00000c
    2c60:	00400844 	.word	0x00400844
    2c64:	1f000010 	.word	0x1f000010
    2c68:	2f000200 	.word	0x2f000200
    2c6c:	2100000c 	.word	0x2100000c
    2c70:	40000018 	.word	0x40000018
    2c74:	40000010 	.word	0x40000010

00002c78 <report_debug>:
    2c78:	4b12      	ldr	r3, [pc, #72]	; (2cc4 <report_debug+0x4c>)
    2c7a:	b510      	push	{r4, lr}
    2c7c:	781b      	ldrb	r3, [r3, #0]
    2c7e:	2b00      	cmp	r3, #0
    2c80:	d00e      	beq.n	2ca0 <report_debug+0x28>
    2c82:	4b11      	ldr	r3, [pc, #68]	; (2cc8 <report_debug+0x50>)
    2c84:	4911      	ldr	r1, [pc, #68]	; (2ccc <report_debug+0x54>)
    2c86:	681a      	ldr	r2, [r3, #0]
    2c88:	4b11      	ldr	r3, [pc, #68]	; (2cd0 <report_debug+0x58>)
    2c8a:	2002      	movs	r0, #2
    2c8c:	681b      	ldr	r3, [r3, #0]
    2c8e:	18d2      	adds	r2, r2, r3
    2c90:	f7ff fc76 	bl	2580 <io_printf>
    2c94:	4b0f      	ldr	r3, [pc, #60]	; (2cd4 <report_debug+0x5c>)
    2c96:	4910      	ldr	r1, [pc, #64]	; (2cd8 <report_debug+0x60>)
    2c98:	681a      	ldr	r2, [r3, #0]
    2c9a:	2002      	movs	r0, #2
    2c9c:	f7ff fc70 	bl	2580 <io_printf>
    2ca0:	4c0e      	ldr	r4, [pc, #56]	; (2cdc <report_debug+0x64>)
    2ca2:	490f      	ldr	r1, [pc, #60]	; (2ce0 <report_debug+0x68>)
    2ca4:	6922      	ldr	r2, [r4, #16]
    2ca6:	2002      	movs	r0, #2
    2ca8:	f7ff fc6a 	bl	2580 <io_printf>
    2cac:	6b62      	ldr	r2, [r4, #52]	; 0x34
    2cae:	490d      	ldr	r1, [pc, #52]	; (2ce4 <report_debug+0x6c>)
    2cb0:	2002      	movs	r0, #2
    2cb2:	f7ff fc65 	bl	2580 <io_printf>
    2cb6:	4b0c      	ldr	r3, [pc, #48]	; (2ce8 <report_debug+0x70>)
    2cb8:	490c      	ldr	r1, [pc, #48]	; (2cec <report_debug+0x74>)
    2cba:	681a      	ldr	r2, [r3, #0]
    2cbc:	2002      	movs	r0, #2
    2cbe:	f7ff fc5f 	bl	2580 <io_printf>
    2cc2:	bd10      	pop	{r4, pc}
    2cc4:	0040084c 	.word	0x0040084c
    2cc8:	e1000300 	.word	0xe1000300
    2ccc:	00004ac2 	.word	0x00004ac2
    2cd0:	e1000304 	.word	0xe1000304
    2cd4:	e1000320 	.word	0xe1000320
    2cd8:	00004ae8 	.word	0x00004ae8
    2cdc:	004007fc 	.word	0x004007fc
    2ce0:	00004b0e 	.word	0x00004b0e
    2ce4:	00004b34 	.word	0x00004b34
    2ce8:	40000040 	.word	0x40000040
    2cec:	00004b5d 	.word	0x00004b5d

00002cf0 <report_warns>:
    2cf0:	b510      	push	{r4, lr}
    2cf2:	4c0d      	ldr	r4, [pc, #52]	; (2d28 <report_warns+0x38>)
    2cf4:	6863      	ldr	r3, [r4, #4]
    2cf6:	07db      	lsls	r3, r3, #31
    2cf8:	d504      	bpl.n	2d04 <report_warns+0x14>
    2cfa:	6a22      	ldr	r2, [r4, #32]
    2cfc:	490b      	ldr	r1, [pc, #44]	; (2d2c <report_warns+0x3c>)
    2cfe:	2002      	movs	r0, #2
    2d00:	f7ff fc3e 	bl	2580 <io_printf>
    2d04:	6863      	ldr	r3, [r4, #4]
    2d06:	2002      	movs	r0, #2
    2d08:	4203      	tst	r3, r0
    2d0a:	d003      	beq.n	2d14 <report_warns+0x24>
    2d0c:	69e2      	ldr	r2, [r4, #28]
    2d0e:	4908      	ldr	r1, [pc, #32]	; (2d30 <report_warns+0x40>)
    2d10:	f7ff fc36 	bl	2580 <io_printf>
    2d14:	6863      	ldr	r3, [r4, #4]
    2d16:	075b      	lsls	r3, r3, #29
    2d18:	d504      	bpl.n	2d24 <report_warns+0x34>
    2d1a:	6a62      	ldr	r2, [r4, #36]	; 0x24
    2d1c:	4905      	ldr	r1, [pc, #20]	; (2d34 <report_warns+0x44>)
    2d1e:	2002      	movs	r0, #2
    2d20:	f7ff fc2e 	bl	2580 <io_printf>
    2d24:	bd10      	pop	{r4, pc}
    2d26:	46c0      	nop			; (mov r8, r8)
    2d28:	004007fc 	.word	0x004007fc
    2d2c:	00004b7c 	.word	0x00004b7c
    2d30:	00004ba8 	.word	0x00004ba8
    2d34:	00004bd3 	.word	0x00004bd3

00002d38 <start>:
    2d38:	b5f8      	push	{r3, r4, r5, r6, r7, lr}
    2d3a:	4d2d      	ldr	r5, [pc, #180]	; (2df0 <start+0xb8>)
    2d3c:	0007      	movs	r7, r0
    2d3e:	6029      	str	r1, [r5, #0]
    2d40:	682b      	ldr	r3, [r5, #0]
    2d42:	200a      	movs	r0, #10
    2d44:	2b00      	cmp	r3, #0
    2d46:	d100      	bne.n	2d4a <start+0x12>
    2d48:	2007      	movs	r0, #7
    2d4a:	f7fe fe7d 	bl	1a48 <sark_cpu_state>
    2d4e:	2380      	movs	r3, #128	; 0x80
    2d50:	2400      	movs	r4, #0
    2d52:	059b      	lsls	r3, r3, #22
    2d54:	601c      	str	r4, [r3, #0]
    2d56:	f7ff fd67 	bl	2828 <configure_dma_controller>
    2d5a:	4e26      	ldr	r6, [pc, #152]	; (2df4 <start+0xbc>)
    2d5c:	6830      	ldr	r0, [r6, #0]
    2d5e:	f7ff fd77 	bl	2850 <configure_timer1>
    2d62:	6828      	ldr	r0, [r5, #0]
    2d64:	4243      	negs	r3, r0
    2d66:	4158      	adcs	r0, r3
    2d68:	f7ff fd8a 	bl	2880 <configure_vic>
    2d6c:	4b22      	ldr	r3, [pc, #136]	; (2df8 <start+0xc0>)
    2d6e:	2201      	movs	r2, #1
    2d70:	605c      	str	r4, [r3, #4]
    2d72:	61dc      	str	r4, [r3, #28]
    2d74:	621c      	str	r4, [r3, #32]
    2d76:	625c      	str	r4, [r3, #36]	; 0x24
    2d78:	601c      	str	r4, [r3, #0]
    2d7a:	639c      	str	r4, [r3, #56]	; 0x38
    2d7c:	63dc      	str	r4, [r3, #60]	; 0x3c
    2d7e:	645c      	str	r4, [r3, #68]	; 0x44
    2d80:	641c      	str	r4, [r3, #64]	; 0x40
    2d82:	615a      	str	r2, [r3, #20]
    2d84:	001c      	movs	r4, r3
    2d86:	4297      	cmp	r7, r2
    2d88:	d101      	bne.n	2d8e <start+0x56>
    2d8a:	f7ff f91f 	bl	1fcc <event_wait>
    2d8e:	6833      	ldr	r3, [r6, #0]
    2d90:	2b00      	cmp	r3, #0
    2d92:	d005      	beq.n	2da0 <start+0x68>
    2d94:	682b      	ldr	r3, [r5, #0]
    2d96:	2b00      	cmp	r3, #0
    2d98:	d102      	bne.n	2da0 <start+0x68>
    2d9a:	4b18      	ldr	r3, [pc, #96]	; (2dfc <start+0xc4>)
    2d9c:	22e2      	movs	r2, #226	; 0xe2
    2d9e:	601a      	str	r2, [r3, #0]
    2da0:	4b17      	ldr	r3, [pc, #92]	; (2e00 <start+0xc8>)
    2da2:	2200      	movs	r2, #0
    2da4:	601a      	str	r2, [r3, #0]
    2da6:	4b17      	ldr	r3, [pc, #92]	; (2e04 <start+0xcc>)
    2da8:	3201      	adds	r2, #1
    2daa:	601a      	str	r2, [r3, #0]
    2dac:	f7ff fe54 	bl	2a58 <dispatch>
    2db0:	f7ff ff2c 	bl	2c0c <clean_up>
    2db4:	f7fd ea00 	blx	1b8 <cpu_int_enable>
    2db8:	4b13      	ldr	r3, [pc, #76]	; (2e08 <start+0xd0>)
    2dba:	681a      	ldr	r2, [r3, #0]
    2dbc:	4b13      	ldr	r3, [pc, #76]	; (2e0c <start+0xd4>)
    2dbe:	681b      	ldr	r3, [r3, #0]
    2dc0:	18d3      	adds	r3, r2, r3
    2dc2:	60a3      	str	r3, [r4, #8]
    2dc4:	4b12      	ldr	r3, [pc, #72]	; (2e10 <start+0xd8>)
    2dc6:	681b      	ldr	r3, [r3, #0]
    2dc8:	60e3      	str	r3, [r4, #12]
    2dca:	4b12      	ldr	r3, [pc, #72]	; (2e14 <start+0xdc>)
    2dcc:	681b      	ldr	r3, [r3, #0]
    2dce:	61a3      	str	r3, [r4, #24]
    2dd0:	4b11      	ldr	r3, [pc, #68]	; (2e18 <start+0xe0>)
    2dd2:	681a      	ldr	r2, [r3, #0]
    2dd4:	4b11      	ldr	r3, [pc, #68]	; (2e1c <start+0xe4>)
    2dd6:	681b      	ldr	r3, [r3, #0]
    2dd8:	18d3      	adds	r3, r2, r3
    2dda:	62e3      	str	r3, [r4, #44]	; 0x2c
    2ddc:	4b10      	ldr	r3, [pc, #64]	; (2e20 <start+0xe8>)
    2dde:	681b      	ldr	r3, [r3, #0]
    2de0:	6323      	str	r3, [r4, #48]	; 0x30
    2de2:	f7ff ff49 	bl	2c78 <report_debug>
    2de6:	f7ff ff83 	bl	2cf0 <report_warns>
    2dea:	6820      	ldr	r0, [r4, #0]
    2dec:	bdf8      	pop	{r3, r4, r5, r6, r7, pc}
    2dee:	46c0      	nop			; (mov r8, r8)
    2df0:	004001a8 	.word	0x004001a8
    2df4:	004001a4 	.word	0x004001a4
    2df8:	004007fc 	.word	0x004007fc
    2dfc:	21000008 	.word	0x21000008
    2e00:	0040099c 	.word	0x0040099c
    2e04:	004004d0 	.word	0x004004d0
    2e08:	e1000300 	.word	0xe1000300
    2e0c:	e1000304 	.word	0xe1000304
    2e10:	e1000320 	.word	0xe1000320
    2e14:	40000040 	.word	0x40000040
    2e18:	e1000318 	.word	0xe1000318
    2e1c:	e100031c 	.word	0xe100031c
    2e20:	e100032c 	.word	0xe100032c

00002e24 <spin1_start>:
    2e24:	b510      	push	{r4, lr}
    2e26:	2100      	movs	r1, #0
    2e28:	f7ff ff86 	bl	2d38 <start>
    2e2c:	bd10      	pop	{r4, pc}
	...

00002e30 <spin1_dma_transfer>:
    2e30:	b5f0      	push	{r4, r5, r6, r7, lr}
    2e32:	b085      	sub	sp, #20
    2e34:	9100      	str	r1, [sp, #0]
    2e36:	9201      	str	r2, [sp, #4]
    2e38:	001d      	movs	r5, r3
    2e3a:	9003      	str	r0, [sp, #12]
    2e3c:	f7fd e9c4 	blx	1c8 <cpu_int_disable>
    2e40:	491f      	ldr	r1, [pc, #124]	; (2ec0 <spin1_dma_transfer+0x90>)
    2e42:	230f      	movs	r3, #15
    2e44:	684a      	ldr	r2, [r1, #4]
    2e46:	680f      	ldr	r7, [r1, #0]
    2e48:	1c54      	adds	r4, r2, #1
    2e4a:	401c      	ands	r4, r3
    2e4c:	0026      	movs	r6, r4
    2e4e:	4b1d      	ldr	r3, [pc, #116]	; (2ec4 <spin1_dma_transfer+0x94>)
    2e50:	9002      	str	r0, [sp, #8]
    2e52:	42bc      	cmp	r4, r7
    2e54:	d025      	beq.n	2ea2 <spin1_dma_transfer+0x72>
    2e56:	695c      	ldr	r4, [r3, #20]
    2e58:	04ed      	lsls	r5, r5, #19
    2e5a:	1c60      	adds	r0, r4, #1
    2e5c:	6158      	str	r0, [r3, #20]
    2e5e:	980a      	ldr	r0, [sp, #40]	; 0x28
    2e60:	23c0      	movs	r3, #192	; 0xc0
    2e62:	045b      	lsls	r3, r3, #17
    2e64:	4303      	orrs	r3, r0
    2e66:	2014      	movs	r0, #20
    2e68:	431d      	orrs	r5, r3
    2e6a:	0003      	movs	r3, r0
    2e6c:	4353      	muls	r3, r2
    2e6e:	18c9      	adds	r1, r1, r3
    2e70:	9b03      	ldr	r3, [sp, #12]
    2e72:	60cb      	str	r3, [r1, #12]
    2e74:	9b00      	ldr	r3, [sp, #0]
    2e76:	610b      	str	r3, [r1, #16]
    2e78:	9b01      	ldr	r3, [sp, #4]
    2e7a:	614b      	str	r3, [r1, #20]
    2e7c:	4b12      	ldr	r3, [pc, #72]	; (2ec8 <spin1_dma_transfer+0x98>)
    2e7e:	608c      	str	r4, [r1, #8]
    2e80:	618d      	str	r5, [r1, #24]
    2e82:	681b      	ldr	r3, [r3, #0]
    2e84:	075b      	lsls	r3, r3, #29
    2e86:	d409      	bmi.n	2e9c <spin1_dma_transfer+0x6c>
    2e88:	42ba      	cmp	r2, r7
    2e8a:	d107      	bne.n	2e9c <spin1_dma_transfer+0x6c>
    2e8c:	4b0f      	ldr	r3, [pc, #60]	; (2ecc <spin1_dma_transfer+0x9c>)
    2e8e:	9a00      	ldr	r2, [sp, #0]
    2e90:	601a      	str	r2, [r3, #0]
    2e92:	4b0f      	ldr	r3, [pc, #60]	; (2ed0 <spin1_dma_transfer+0xa0>)
    2e94:	9a01      	ldr	r2, [sp, #4]
    2e96:	601a      	str	r2, [r3, #0]
    2e98:	4b0e      	ldr	r3, [pc, #56]	; (2ed4 <spin1_dma_transfer+0xa4>)
    2e9a:	601d      	str	r5, [r3, #0]
    2e9c:	4b08      	ldr	r3, [pc, #32]	; (2ec0 <spin1_dma_transfer+0x90>)
    2e9e:	605e      	str	r6, [r3, #4]
    2ea0:	e007      	b.n	2eb2 <spin1_dma_transfer+0x82>
    2ea2:	6859      	ldr	r1, [r3, #4]
    2ea4:	2202      	movs	r2, #2
    2ea6:	430a      	orrs	r2, r1
    2ea8:	605a      	str	r2, [r3, #4]
    2eaa:	69da      	ldr	r2, [r3, #28]
    2eac:	2400      	movs	r4, #0
    2eae:	3201      	adds	r2, #1
    2eb0:	61da      	str	r2, [r3, #28]
    2eb2:	9802      	ldr	r0, [sp, #8]
    2eb4:	f7fd e990 	blx	1d8 <cpu_int_restore>
    2eb8:	0020      	movs	r0, r4
    2eba:	b005      	add	sp, #20
    2ebc:	bdf0      	pop	{r4, r5, r6, r7, pc}
    2ebe:	46c0      	nop			; (mov r8, r8)
    2ec0:	00400850 	.word	0x00400850
    2ec4:	004007fc 	.word	0x004007fc
    2ec8:	40000014 	.word	0x40000014
    2ecc:	40000004 	.word	0x40000004
    2ed0:	40000008 	.word	0x40000008
    2ed4:	4000000c 	.word	0x4000000c

00002ed8 <spin1_send_packet>:
    2ed8:	b5f7      	push	{r0, r1, r2, r4, r5, r6, r7, lr}
    2eda:	000d      	movs	r5, r1
    2edc:	0014      	movs	r4, r2
    2ede:	0006      	movs	r6, r0
    2ee0:	f7fd e962 	blx	1a8 <cpu_irq_disable>
    2ee4:	2380      	movs	r3, #128	; 0x80
    2ee6:	059b      	lsls	r3, r3, #22
    2ee8:	469c      	mov	ip, r3
    2eea:	4662      	mov	r2, ip
    2eec:	2300      	movs	r3, #0
    2eee:	270f      	movs	r7, #15
    2ef0:	9000      	str	r0, [sp, #0]
    2ef2:	6013      	str	r3, [r2, #0]
    2ef4:	6811      	ldr	r1, [r2, #0]
    2ef6:	4a2e      	ldr	r2, [pc, #184]	; (2fb0 <spin1_send_packet+0xd8>)
    2ef8:	0049      	lsls	r1, r1, #1
    2efa:	d51b      	bpl.n	2f34 <spin1_send_packet+0x5c>
    2efc:	6850      	ldr	r0, [r2, #4]
    2efe:	1c41      	adds	r1, r0, #1
    2f00:	400f      	ands	r7, r1
    2f02:	6811      	ldr	r1, [r2, #0]
    2f04:	428f      	cmp	r7, r1
    2f06:	d109      	bne.n	2f1c <spin1_send_packet+0x44>
    2f08:	4a2a      	ldr	r2, [pc, #168]	; (2fb4 <spin1_send_packet+0xdc>)
    2f0a:	2104      	movs	r1, #4
    2f0c:	6854      	ldr	r4, [r2, #4]
    2f0e:	4321      	orrs	r1, r4
    2f10:	6051      	str	r1, [r2, #4]
    2f12:	6a51      	ldr	r1, [r2, #36]	; 0x24
    2f14:	001c      	movs	r4, r3
    2f16:	3101      	adds	r1, #1
    2f18:	6251      	str	r1, [r2, #36]	; 0x24
    2f1a:	e044      	b.n	2fa6 <spin1_send_packet+0xce>
    2f1c:	230c      	movs	r3, #12
    2f1e:	0001      	movs	r1, r0
    2f20:	4359      	muls	r1, r3
    2f22:	6057      	str	r7, [r2, #4]
    2f24:	1851      	adds	r1, r2, r1
    2f26:	2280      	movs	r2, #128	; 0x80
    2f28:	608e      	str	r6, [r1, #8]
    2f2a:	60cd      	str	r5, [r1, #12]
    2f2c:	610c      	str	r4, [r1, #16]
    2f2e:	0112      	lsls	r2, r2, #4
    2f30:	4b21      	ldr	r3, [pc, #132]	; (2fb8 <spin1_send_packet+0xe0>)
    2f32:	e02a      	b.n	2f8a <spin1_send_packet+0xb2>
    2f34:	6853      	ldr	r3, [r2, #4]
    2f36:	6811      	ldr	r1, [r2, #0]
    2f38:	3301      	adds	r3, #1
    2f3a:	403b      	ands	r3, r7
    2f3c:	428b      	cmp	r3, r1
    2f3e:	d113      	bne.n	2f68 <spin1_send_packet+0x90>
    2f40:	200c      	movs	r0, #12
    2f42:	0001      	movs	r1, r0
    2f44:	4359      	muls	r1, r3
    2f46:	1851      	adds	r1, r2, r1
    2f48:	6888      	ldr	r0, [r1, #8]
    2f4a:	3301      	adds	r3, #1
    2f4c:	9001      	str	r0, [sp, #4]
    2f4e:	403b      	ands	r3, r7
    2f50:	68c8      	ldr	r0, [r1, #12]
    2f52:	6909      	ldr	r1, [r1, #16]
    2f54:	6013      	str	r3, [r2, #0]
    2f56:	4663      	mov	r3, ip
    2f58:	6019      	str	r1, [r3, #0]
    2f5a:	038b      	lsls	r3, r1, #14
    2f5c:	d501      	bpl.n	2f62 <spin1_send_packet+0x8a>
    2f5e:	4b17      	ldr	r3, [pc, #92]	; (2fbc <spin1_send_packet+0xe4>)
    2f60:	6018      	str	r0, [r3, #0]
    2f62:	4b17      	ldr	r3, [pc, #92]	; (2fc0 <spin1_send_packet+0xe8>)
    2f64:	9a01      	ldr	r2, [sp, #4]
    2f66:	601a      	str	r2, [r3, #0]
    2f68:	4911      	ldr	r1, [pc, #68]	; (2fb0 <spin1_send_packet+0xd8>)
    2f6a:	684a      	ldr	r2, [r1, #4]
    2f6c:	680b      	ldr	r3, [r1, #0]
    2f6e:	4293      	cmp	r3, r2
    2f70:	d10d      	bne.n	2f8e <spin1_send_packet+0xb6>
    2f72:	2380      	movs	r3, #128	; 0x80
    2f74:	059b      	lsls	r3, r3, #22
    2f76:	601c      	str	r4, [r3, #0]
    2f78:	03a3      	lsls	r3, r4, #14
    2f7a:	d501      	bpl.n	2f80 <spin1_send_packet+0xa8>
    2f7c:	4b0f      	ldr	r3, [pc, #60]	; (2fbc <spin1_send_packet+0xe4>)
    2f7e:	601d      	str	r5, [r3, #0]
    2f80:	4b0f      	ldr	r3, [pc, #60]	; (2fc0 <spin1_send_packet+0xe8>)
    2f82:	2280      	movs	r2, #128	; 0x80
    2f84:	601e      	str	r6, [r3, #0]
    2f86:	4b0f      	ldr	r3, [pc, #60]	; (2fc4 <spin1_send_packet+0xec>)
    2f88:	0112      	lsls	r2, r2, #4
    2f8a:	601a      	str	r2, [r3, #0]
    2f8c:	e00a      	b.n	2fa4 <spin1_send_packet+0xcc>
    2f8e:	200c      	movs	r0, #12
    2f90:	0003      	movs	r3, r0
    2f92:	4353      	muls	r3, r2
    2f94:	18cb      	adds	r3, r1, r3
    2f96:	609e      	str	r6, [r3, #8]
    2f98:	60dd      	str	r5, [r3, #12]
    2f9a:	611c      	str	r4, [r3, #16]
    2f9c:	3201      	adds	r2, #1
    2f9e:	230f      	movs	r3, #15
    2fa0:	401a      	ands	r2, r3
    2fa2:	604a      	str	r2, [r1, #4]
    2fa4:	2401      	movs	r4, #1
    2fa6:	9800      	ldr	r0, [sp, #0]
    2fa8:	f7fd e916 	blx	1d8 <cpu_int_restore>
    2fac:	0020      	movs	r0, r4
    2fae:	bdfe      	pop	{r1, r2, r3, r4, r5, r6, r7, pc}
    2fb0:	004009e4 	.word	0x004009e4
    2fb4:	004007fc 	.word	0x004007fc
    2fb8:	1f000010 	.word	0x1f000010
    2fbc:	20000004 	.word	0x20000004
    2fc0:	20000008 	.word	0x20000008
    2fc4:	1f000014 	.word	0x1f000014

00002fc8 <spin1_send_mc_packet>:
    2fc8:	b510      	push	{r4, lr}
    2fca:	1e53      	subs	r3, r2, #1
    2fcc:	419a      	sbcs	r2, r3
    2fce:	0452      	lsls	r2, r2, #17
    2fd0:	f7ff ff82 	bl	2ed8 <spin1_send_packet>
    2fd4:	bd10      	pop	{r4, pc}
	...

00002fd8 <spin1_get_core_id>:
    2fd8:	4b01      	ldr	r3, [pc, #4]	; (2fe0 <spin1_get_core_id+0x8>)
    2fda:	6818      	ldr	r0, [r3, #0]
    2fdc:	4770      	bx	lr
    2fde:	46c0      	nop			; (mov r8, r8)
    2fe0:	00400724 	.word	0x00400724

00002fe4 <spin1_get_chip_id>:
    2fe4:	4b01      	ldr	r3, [pc, #4]	; (2fec <spin1_get_chip_id+0x8>)
    2fe6:	8818      	ldrh	r0, [r3, #0]
    2fe8:	4770      	bx	lr
    2fea:	46c0      	nop			; (mov r8, r8)
    2fec:	e5007f00 	.word	0xe5007f00

00002ff0 <schedule_sysmode>:
    2ff0:	b5f0      	push	{r4, r5, r6, r7, lr}
    2ff2:	b085      	sub	sp, #20
    2ff4:	9003      	str	r0, [sp, #12]
    2ff6:	9b03      	ldr	r3, [sp, #12]
    2ff8:	4c1d      	ldr	r4, [pc, #116]	; (3070 <schedule_sysmode+0x80>)
    2ffa:	00dd      	lsls	r5, r3, #3
    2ffc:	1963      	adds	r3, r4, r5
    2ffe:	685b      	ldr	r3, [r3, #4]
    3000:	0008      	movs	r0, r1
    3002:	2b00      	cmp	r3, #0
    3004:	dc03      	bgt.n	300e <schedule_sysmode+0x1e>
    3006:	592b      	ldr	r3, [r5, r4]
    3008:	0011      	movs	r1, r2
    300a:	4798      	blx	r3
    300c:	e02d      	b.n	306a <schedule_sysmode+0x7a>
    300e:	3b01      	subs	r3, #1
    3010:	21c8      	movs	r1, #200	; 0xc8
    3012:	001f      	movs	r7, r3
    3014:	434f      	muls	r7, r1
    3016:	4e17      	ldr	r6, [pc, #92]	; (3074 <schedule_sysmode+0x84>)
    3018:	9701      	str	r7, [sp, #4]
    301a:	19f7      	adds	r7, r6, r7
    301c:	687b      	ldr	r3, [r7, #4]
    301e:	9302      	str	r3, [sp, #8]
    3020:	39b9      	subs	r1, #185	; 0xb9
    3022:	3301      	adds	r3, #1
    3024:	400b      	ands	r3, r1
    3026:	469c      	mov	ip, r3
    3028:	9b01      	ldr	r3, [sp, #4]
    302a:	599b      	ldr	r3, [r3, r6]
    302c:	459c      	cmp	ip, r3
    302e:	d014      	beq.n	305a <schedule_sysmode+0x6a>
    3030:	9b02      	ldr	r3, [sp, #8]
    3032:	3903      	subs	r1, #3
    3034:	434b      	muls	r3, r1
    3036:	0019      	movs	r1, r3
    3038:	9b01      	ldr	r3, [sp, #4]
    303a:	18cb      	adds	r3, r1, r3
    303c:	18f6      	adds	r6, r6, r3
    303e:	592b      	ldr	r3, [r5, r4]
    3040:	60b3      	str	r3, [r6, #8]
    3042:	4663      	mov	r3, ip
    3044:	607b      	str	r3, [r7, #4]
    3046:	9b03      	ldr	r3, [sp, #12]
    3048:	60f0      	str	r0, [r6, #12]
    304a:	6132      	str	r2, [r6, #16]
    304c:	2b02      	cmp	r3, #2
    304e:	d10c      	bne.n	306a <schedule_sysmode+0x7a>
    3050:	4a09      	ldr	r2, [pc, #36]	; (3078 <schedule_sysmode+0x88>)
    3052:	6bd3      	ldr	r3, [r2, #60]	; 0x3c
    3054:	3301      	adds	r3, #1
    3056:	63d3      	str	r3, [r2, #60]	; 0x3c
    3058:	e007      	b.n	306a <schedule_sysmode+0x7a>
    305a:	4b07      	ldr	r3, [pc, #28]	; (3078 <schedule_sysmode+0x88>)
    305c:	2201      	movs	r2, #1
    305e:	6859      	ldr	r1, [r3, #4]
    3060:	430a      	orrs	r2, r1
    3062:	605a      	str	r2, [r3, #4]
    3064:	6a1a      	ldr	r2, [r3, #32]
    3066:	3201      	adds	r2, #1
    3068:	621a      	str	r2, [r3, #32]
    306a:	b005      	add	sp, #20
    306c:	bdf0      	pop	{r4, r5, r6, r7, pc}
    306e:	46c0      	nop			; (mov r8, r8)
    3070:	004009a4 	.word	0x004009a4
    3074:	004001b0 	.word	0x004001b0
    3078:	004007fc 	.word	0x004007fc

0000307c <sark_pre_main>:
    307c:	b510      	push	{r4, lr}
    307e:	f7fe fd59 	bl	1b34 <sark_call_cpp_constructors>
    3082:	2006      	movs	r0, #6
    3084:	f7fe fce0 	bl	1a48 <sark_cpu_state>
    3088:	2201      	movs	r2, #1
    308a:	235b      	movs	r3, #91	; 0x5b
    308c:	701a      	strb	r2, [r3, #0]
    308e:	f7fe fce3 	bl	1a58 <sark_app_lead>
    3092:	4b04      	ldr	r3, [pc, #16]	; (30a4 <sark_pre_main+0x28>)
    3094:	4a04      	ldr	r2, [pc, #16]	; (30a8 <sark_pre_main+0x2c>)
    3096:	681b      	ldr	r3, [r3, #0]
    3098:	1a1b      	subs	r3, r3, r0
    309a:	4258      	negs	r0, r3
    309c:	4143      	adcs	r3, r0
    309e:	7013      	strb	r3, [r2, #0]
    30a0:	bd10      	pop	{r4, pc}
    30a2:	46c0      	nop			; (mov r8, r8)
    30a4:	00400724 	.word	0x00400724
    30a8:	0040084c 	.word	0x0040084c

000030ac <sark_post_main>:
    30ac:	b510      	push	{r4, lr}
    30ae:	200b      	movs	r0, #11
    30b0:	f7fe fcca 	bl	1a48 <sark_cpu_state>
    30b4:	bd10      	pop	{r4, pc}
	...

000030b8 <cc_rx_ready_isr>:
    30b8:	e24ee004 	sub	lr, lr, #4
    30bc:	e92d500f 	push	{r0, r1, r2, r3, ip, lr}
    30c0:	e3a03202 	mov	r3, #536870912	; 0x20000000
    30c4:	e593200c 	ldr	r2, [r3, #12]
    30c8:	e59f0058 	ldr	r0, [pc, #88]	; 3128 <cc_rx_ready_isr+0x70>
    30cc:	e2122802 	ands	r2, r2, #131072	; 0x20000
    30d0:	0a000006 	beq	30f0 <cc_rx_ready_isr+0x38>
    30d4:	e5932010 	ldr	r2, [r3, #16]
    30d8:	e5931014 	ldr	r1, [r3, #20]
    30dc:	e5903028 	ldr	r3, [r0, #40]	; 0x28
    30e0:	e3530000 	cmp	r3, #0
    30e4:	13a00005 	movne	r0, #5
    30e8:	1a000005 	bne	3104 <cc_rx_ready_isr+0x4c>
    30ec:	ea000006 	b	310c <cc_rx_ready_isr+0x54>
    30f0:	e5931014 	ldr	r1, [r3, #20]
    30f4:	e5903000 	ldr	r3, [r0]
    30f8:	e3530000 	cmp	r3, #0
    30fc:	0a000002 	beq	310c <cc_rx_ready_isr+0x54>
    3100:	e1a00002 	mov	r0, r2
    3104:	ebfff485 	bl	320 <schedule>
    3108:	ea000003 	b	311c <cc_rx_ready_isr+0x64>
    310c:	e59f2018 	ldr	r2, [pc, #24]	; 312c <cc_rx_ready_isr+0x74>
    3110:	e5923010 	ldr	r3, [r2, #16]
    3114:	e2833001 	add	r3, r3, #1
    3118:	e5823010 	str	r3, [r2, #16]
    311c:	e3a0341f 	mov	r3, #520093696	; 0x1f000000
    3120:	e5833030 	str	r3, [r3, #48]	; 0x30
    3124:	e8fd900f 	ldm	sp!, {r0, r1, r2, r3, ip, pc}^
    3128:	004009a4 	.word	0x004009a4
    312c:	004007fc 	.word	0x004007fc

00003130 <cc_rx_ready_fiqsr>:
    3130:	e24ee004 	sub	lr, lr, #4
    3134:	e92d500f 	push	{r0, r1, r2, r3, ip, lr}
    3138:	e3a03202 	mov	r3, #536870912	; 0x20000000
    313c:	e593100c 	ldr	r1, [r3, #12]
    3140:	e59f201c 	ldr	r2, [pc, #28]	; 3164 <cc_rx_ready_fiqsr+0x34>
    3144:	e2111802 	ands	r1, r1, #131072	; 0x20000
    3148:	15931010 	ldrne	r1, [r3, #16]
    314c:	05930014 	ldreq	r0, [r3, #20]
    3150:	15930014 	ldrne	r0, [r3, #20]
    3154:	05923000 	ldreq	r3, [r2]
    3158:	15923028 	ldrne	r3, [r2, #40]	; 0x28
    315c:	e12fff33 	blx	r3
    3160:	e8fd900f 	ldm	sp!, {r0, r1, r2, r3, ip, pc}^
    3164:	004009a4 	.word	0x004009a4

00003168 <cc_fr_ready_isr>:
    3168:	e24ee004 	sub	lr, lr, #4
    316c:	e92d500f 	push	{r0, r1, r2, r3, ip, lr}
    3170:	e3a03202 	mov	r3, #536870912	; 0x20000000
    3174:	e593200c 	ldr	r2, [r3, #12]
    3178:	e59f0054 	ldr	r0, [pc, #84]	; 31d4 <cc_fr_ready_isr+0x6c>
    317c:	e2122802 	ands	r2, r2, #131072	; 0x20000
    3180:	0a00000a 	beq	31b0 <cc_fr_ready_isr+0x48>
    3184:	e5932010 	ldr	r2, [r3, #16]
    3188:	e5931014 	ldr	r1, [r3, #20]
    318c:	e5903038 	ldr	r3, [r0, #56]	; 0x38
    3190:	e3530000 	cmp	r3, #0
    3194:	13a00007 	movne	r0, #7
    3198:	1a000009 	bne	31c4 <cc_fr_ready_isr+0x5c>
    319c:	e59f2034 	ldr	r2, [pc, #52]	; 31d8 <cc_fr_ready_isr+0x70>
    31a0:	e5923034 	ldr	r3, [r2, #52]	; 0x34
    31a4:	e2833001 	add	r3, r3, #1
    31a8:	e5823034 	str	r3, [r2, #52]	; 0x34
    31ac:	ea000005 	b	31c8 <cc_fr_ready_isr+0x60>
    31b0:	e5931014 	ldr	r1, [r3, #20]
    31b4:	e5903030 	ldr	r3, [r0, #48]	; 0x30
    31b8:	e3530000 	cmp	r3, #0
    31bc:	0afffff6 	beq	319c <cc_fr_ready_isr+0x34>
    31c0:	e3a00006 	mov	r0, #6
    31c4:	ebfff455 	bl	320 <schedule>
    31c8:	e3a0341f 	mov	r3, #520093696	; 0x1f000000
    31cc:	e5833030 	str	r3, [r3, #48]	; 0x30
    31d0:	e8fd900f 	ldm	sp!, {r0, r1, r2, r3, ip, pc}^
    31d4:	004009a4 	.word	0x004009a4
    31d8:	004007fc 	.word	0x004007fc

000031dc <cc_fr_ready_fiqsr>:
    31dc:	e24ee004 	sub	lr, lr, #4
    31e0:	e92d500f 	push	{r0, r1, r2, r3, ip, lr}
    31e4:	e3a03202 	mov	r3, #536870912	; 0x20000000
    31e8:	e593100c 	ldr	r1, [r3, #12]
    31ec:	e59f201c 	ldr	r2, [pc, #28]	; 3210 <cc_fr_ready_fiqsr+0x34>
    31f0:	e2111802 	ands	r1, r1, #131072	; 0x20000
    31f4:	15931010 	ldrne	r1, [r3, #16]
    31f8:	05930014 	ldreq	r0, [r3, #20]
    31fc:	15930014 	ldrne	r0, [r3, #20]
    3200:	05923030 	ldreq	r3, [r2, #48]	; 0x30
    3204:	15923038 	ldrne	r3, [r2, #56]	; 0x38
    3208:	e12fff33 	blx	r3
    320c:	e8fd900f 	ldm	sp!, {r0, r1, r2, r3, ip, pc}^
    3210:	004009a4 	.word	0x004009a4

00003214 <cc_tx_empty_isr>:
    3214:	e24ee004 	sub	lr, lr, #4
    3218:	e92d501f 	push	{r0, r1, r2, r3, r4, ip, lr}
    321c:	e59f1074 	ldr	r1, [pc, #116]	; 3298 <cc_tx_empty_isr+0x84>
    3220:	e3a03202 	mov	r3, #536870912	; 0x20000000
    3224:	e3a02000 	mov	r2, #0
    3228:	e3a0c00c 	mov	ip, #12
    322c:	e5832000 	str	r2, [r3]
    3230:	e5912000 	ldr	r2, [r1]
    3234:	e5910004 	ldr	r0, [r1, #4]
    3238:	e1520000 	cmp	r2, r0
    323c:	0a00000e 	beq	327c <cc_tx_empty_isr+0x68>
    3240:	e5930000 	ldr	r0, [r3]
    3244:	e3100101 	tst	r0, #1073741824	; 0x40000000
    3248:	1a00000e 	bne	3288 <cc_tx_empty_isr+0x74>
    324c:	e020129c 	mla	r0, ip, r2, r1
    3250:	e2822001 	add	r2, r2, #1
    3254:	e590e008 	ldr	lr, [r0, #8]
    3258:	e590400c 	ldr	r4, [r0, #12]
    325c:	e5900010 	ldr	r0, [r0, #16]
    3260:	e202200f 	and	r2, r2, #15
    3264:	e3100802 	tst	r0, #131072	; 0x20000
    3268:	e5812000 	str	r2, [r1]
    326c:	e5830000 	str	r0, [r3]
    3270:	15834004 	strne	r4, [r3, #4]
    3274:	e583e008 	str	lr, [r3, #8]
    3278:	eaffffec 	b	3230 <cc_tx_empty_isr+0x1c>
    327c:	e3a02b02 	mov	r2, #2048	; 0x800
    3280:	e3a0341f 	mov	r3, #520093696	; 0x1f000000
    3284:	e5832014 	str	r2, [r3, #20]
    3288:	e3a02001 	mov	r2, #1
    328c:	e3a0341f 	mov	r3, #520093696	; 0x1f000000
    3290:	e5832030 	str	r2, [r3, #48]	; 0x30
    3294:	e8fd901f 	ldm	sp!, {r0, r1, r2, r3, r4, ip, pc}^
    3298:	004009e4 	.word	0x004009e4

0000329c <dma_done_isr>:
    329c:	e24ee004 	sub	lr, lr, #4
    32a0:	e92d503f 	push	{r0, r1, r2, r3, r4, r5, ip, lr}
    32a4:	e59fe078 	ldr	lr, [pc, #120]	; 3324 <dma_done_isr+0x88>
    32a8:	e3a03008 	mov	r3, #8
    32ac:	e3a04101 	mov	r4, #1073741824	; 0x40000000
    32b0:	e5843010 	str	r3, [r4, #16]
    32b4:	e59e0000 	ldr	r0, [lr]
    32b8:	e3a0c014 	mov	ip, #20
    32bc:	e023e09c 	mla	r3, ip, r0, lr
    32c0:	e2800001 	add	r0, r0, #1
    32c4:	e5931008 	ldr	r1, [r3, #8]
    32c8:	e593200c 	ldr	r2, [r3, #12]
    32cc:	e200300f 	and	r3, r0, #15
    32d0:	e59e0004 	ldr	r0, [lr, #4]
    32d4:	e58e3000 	str	r3, [lr]
    32d8:	e1530000 	cmp	r3, r0
    32dc:	0a000006 	beq	32fc <dma_done_isr+0x60>
    32e0:	e023e39c 	mla	r3, ip, r3, lr
    32e4:	e593c014 	ldr	ip, [r3, #20]
    32e8:	e5930018 	ldr	r0, [r3, #24]
    32ec:	e5933010 	ldr	r3, [r3, #16]
    32f0:	e5843004 	str	r3, [r4, #4]
    32f4:	e584c008 	str	ip, [r4, #8]
    32f8:	e584000c 	str	r0, [r4, #12]
    32fc:	e59f3024 	ldr	r3, [pc, #36]	; 3328 <dma_done_isr+0x8c>
    3300:	e5933008 	ldr	r3, [r3, #8]
    3304:	e3530000 	cmp	r3, #0
    3308:	0a000001 	beq	3314 <dma_done_isr+0x78>
    330c:	e3a00001 	mov	r0, #1
    3310:	ebfff402 	bl	320 <schedule>
    3314:	e3a02001 	mov	r2, #1
    3318:	e3a0341f 	mov	r3, #520093696	; 0x1f000000
    331c:	e5832030 	str	r2, [r3, #48]	; 0x30
    3320:	e8fd903f 	ldm	sp!, {r0, r1, r2, r3, r4, r5, ip, pc}^
    3324:	00400850 	.word	0x00400850
    3328:	004009a4 	.word	0x004009a4

0000332c <dma_done_fiqsr>:
    332c:	e24ee004 	sub	lr, lr, #4
    3330:	e92d503f 	push	{r0, r1, r2, r3, r4, r5, ip, lr}
    3334:	e59fe060 	ldr	lr, [pc, #96]	; 339c <dma_done_fiqsr+0x70>
    3338:	e3a03008 	mov	r3, #8
    333c:	e3a04101 	mov	r4, #1073741824	; 0x40000000
    3340:	e5843010 	str	r3, [r4, #16]
    3344:	e59e2000 	ldr	r2, [lr]
    3348:	e3a0c014 	mov	ip, #20
    334c:	e023e29c 	mla	r3, ip, r2, lr
    3350:	e2822001 	add	r2, r2, #1
    3354:	e5930008 	ldr	r0, [r3, #8]
    3358:	e593100c 	ldr	r1, [r3, #12]
    335c:	e202300f 	and	r3, r2, #15
    3360:	e59e2004 	ldr	r2, [lr, #4]
    3364:	e58e3000 	str	r3, [lr]
    3368:	e1530002 	cmp	r3, r2
    336c:	0a000006 	beq	338c <dma_done_fiqsr+0x60>
    3370:	e023e39c 	mla	r3, ip, r3, lr
    3374:	e593c014 	ldr	ip, [r3, #20]
    3378:	e5932018 	ldr	r2, [r3, #24]
    337c:	e5933010 	ldr	r3, [r3, #16]
    3380:	e5843004 	str	r3, [r4, #4]
    3384:	e584c008 	str	ip, [r4, #8]
    3388:	e584200c 	str	r2, [r4, #12]
    338c:	e59f300c 	ldr	r3, [pc, #12]	; 33a0 <dma_done_fiqsr+0x74>
    3390:	e5933008 	ldr	r3, [r3, #8]
    3394:	e12fff33 	blx	r3
    3398:	e8fd903f 	ldm	sp!, {r0, r1, r2, r3, r4, r5, ip, pc}^
    339c:	00400850 	.word	0x00400850
    33a0:	004009a4 	.word	0x004009a4

000033a4 <timer1_isr>:
    33a4:	e24ee004 	sub	lr, lr, #4
    33a8:	e92d500f 	push	{r0, r1, r2, r3, ip, lr}
    33ac:	e3a02001 	mov	r2, #1
    33b0:	e3a03421 	mov	r3, #553648128	; 0x21000000
    33b4:	e583200c 	str	r2, [r3, #12]
    33b8:	e59f3060 	ldr	r3, [pc, #96]	; 3420 <timer1_isr+0x7c>
    33bc:	e5931000 	ldr	r1, [r3]
    33c0:	e0811002 	add	r1, r1, r2
    33c4:	e5831000 	str	r1, [r3]
    33c8:	e59f3054 	ldr	r3, [pc, #84]	; 3424 <timer1_isr+0x80>
    33cc:	e5933010 	ldr	r3, [r3, #16]
    33d0:	e3530000 	cmp	r3, #0
    33d4:	0a00000d 	beq	3410 <timer1_isr+0x6c>
    33d8:	e59f3048 	ldr	r3, [pc, #72]	; 3428 <timer1_isr+0x84>
    33dc:	e5932038 	ldr	r2, [r3, #56]	; 0x38
    33e0:	e3520000 	cmp	r2, #0
    33e4:	0a000006 	beq	3404 <timer1_isr+0x60>
    33e8:	e5932044 	ldr	r2, [r3, #68]	; 0x44
    33ec:	e5930040 	ldr	r0, [r3, #64]	; 0x40
    33f0:	e2822001 	add	r2, r2, #1
    33f4:	e5832044 	str	r2, [r3, #68]	; 0x44
    33f8:	e593203c 	ldr	r2, [r3, #60]	; 0x3c
    33fc:	e1520000 	cmp	r2, r0
    3400:	85832040 	strhi	r2, [r3, #64]	; 0x40
    3404:	e3a02000 	mov	r2, #0
    3408:	e3a00002 	mov	r0, #2
    340c:	ebfff3c3 	bl	320 <schedule>
    3410:	e3a02001 	mov	r2, #1
    3414:	e3a0341f 	mov	r3, #520093696	; 0x1f000000
    3418:	e5832030 	str	r2, [r3, #48]	; 0x30
    341c:	e8fd900f 	ldm	sp!, {r0, r1, r2, r3, ip, pc}^
    3420:	0040099c 	.word	0x0040099c
    3424:	004009a4 	.word	0x004009a4
    3428:	004007fc 	.word	0x004007fc

0000342c <timer1_fiqsr>:
    342c:	e24ee004 	sub	lr, lr, #4
    3430:	e92d500f 	push	{r0, r1, r2, r3, ip, lr}
    3434:	e3a02001 	mov	r2, #1
    3438:	e3a03421 	mov	r3, #553648128	; 0x21000000
    343c:	e583200c 	str	r2, [r3, #12]
    3440:	e59f301c 	ldr	r3, [pc, #28]	; 3464 <timer1_fiqsr+0x38>
    3444:	e3a01000 	mov	r1, #0
    3448:	e5930000 	ldr	r0, [r3]
    344c:	e0800002 	add	r0, r0, r2
    3450:	e5830000 	str	r0, [r3]
    3454:	e59f300c 	ldr	r3, [pc, #12]	; 3468 <timer1_fiqsr+0x3c>
    3458:	e5933010 	ldr	r3, [r3, #16]
    345c:	e12fff33 	blx	r3
    3460:	e8fd900f 	ldm	sp!, {r0, r1, r2, r3, ip, pc}^
    3464:	0040099c 	.word	0x0040099c
    3468:	004009a4 	.word	0x004009a4

0000346c <soft_int_isr>:
    346c:	e24ee004 	sub	lr, lr, #4
    3470:	e92d500f 	push	{r0, r1, r2, r3, ip, lr}
    3474:	e3a0341f 	mov	r3, #520093696	; 0x1f000000
    3478:	e3a02002 	mov	r2, #2
    347c:	e583201c 	str	r2, [r3, #28]
    3480:	e59f303c 	ldr	r3, [pc, #60]	; 34c4 <soft_int_isr+0x58>
    3484:	e5933020 	ldr	r3, [r3, #32]
    3488:	e3530000 	cmp	r3, #0
    348c:	0a000005 	beq	34a8 <soft_int_isr+0x3c>
    3490:	e59f3030 	ldr	r3, [pc, #48]	; 34c8 <soft_int_isr+0x5c>
    3494:	e3a00004 	mov	r0, #4
    3498:	e5932000 	ldr	r2, [r3]
    349c:	e59f3028 	ldr	r3, [pc, #40]	; 34cc <soft_int_isr+0x60>
    34a0:	e5931000 	ldr	r1, [r3]
    34a4:	ebfff39d 	bl	320 <schedule>
    34a8:	e59f3020 	ldr	r3, [pc, #32]	; 34d0 <soft_int_isr+0x64>
    34ac:	e3a02000 	mov	r2, #0
    34b0:	e5c32000 	strb	r2, [r3]
    34b4:	e3a02001 	mov	r2, #1
    34b8:	e3a0341f 	mov	r3, #520093696	; 0x1f000000
    34bc:	e5832030 	str	r2, [r3, #48]	; 0x30
    34c0:	e8fd900f 	ldm	sp!, {r0, r1, r2, r3, ip, pc}^
    34c4:	004009a4 	.word	0x004009a4
    34c8:	00400848 	.word	0x00400848
    34cc:	004009a0 	.word	0x004009a0
    34d0:	004001ac 	.word	0x004001ac

000034d4 <soft_int_fiqsr>:
    34d4:	e24ee004 	sub	lr, lr, #4
    34d8:	e92d500f 	push	{r0, r1, r2, r3, ip, lr}
    34dc:	e3a02002 	mov	r2, #2
    34e0:	e3a0341f 	mov	r3, #520093696	; 0x1f000000
    34e4:	e583201c 	str	r2, [r3, #28]
    34e8:	e59f2024 	ldr	r2, [pc, #36]	; 3514 <soft_int_fiqsr+0x40>
    34ec:	e59f3024 	ldr	r3, [pc, #36]	; 3518 <soft_int_fiqsr+0x44>
    34f0:	e5921000 	ldr	r1, [r2]
    34f4:	e59f2020 	ldr	r2, [pc, #32]	; 351c <soft_int_fiqsr+0x48>
    34f8:	e5933020 	ldr	r3, [r3, #32]
    34fc:	e5920000 	ldr	r0, [r2]
    3500:	e12fff33 	blx	r3
    3504:	e59f3014 	ldr	r3, [pc, #20]	; 3520 <soft_int_fiqsr+0x4c>
    3508:	e3a02000 	mov	r2, #0
    350c:	e5c32000 	strb	r2, [r3]
    3510:	e8fd900f 	ldm	sp!, {r0, r1, r2, r3, ip, pc}^
    3514:	00400848 	.word	0x00400848
    3518:	004009a4 	.word	0x004009a4
    351c:	004009a0 	.word	0x004009a0
    3520:	004001ac 	.word	0x004001ac

00003524 <__aeabi_drsub>:
    3524:	e2211102 	eor	r1, r1, #-2147483648	; 0x80000000
    3528:	ea000000 	b	3530 <__adddf3>

0000352c <__aeabi_dsub>:
    352c:	e2233102 	eor	r3, r3, #-2147483648	; 0x80000000

00003530 <__adddf3>:
    3530:	e92d4030 	push	{r4, r5, lr}
    3534:	e1a04081 	lsl	r4, r1, #1
    3538:	e1a05083 	lsl	r5, r3, #1
    353c:	e1340005 	teq	r4, r5
    3540:	01300002 	teqeq	r0, r2
    3544:	1194c000 	orrsne	ip, r4, r0
    3548:	1195c002 	orrsne	ip, r5, r2
    354c:	11f0cac4 	mvnsne	ip, r4, asr #21
    3550:	11f0cac5 	mvnsne	ip, r5, asr #21
    3554:	0a00008c 	beq	378c <__adddf3+0x25c>
    3558:	e1a04aa4 	lsr	r4, r4, #21
    355c:	e0745aa5 	rsbs	r5, r4, r5, lsr #21
    3560:	b2655000 	rsblt	r5, r5, #0
    3564:	da000006 	ble	3584 <__adddf3+0x54>
    3568:	e0844005 	add	r4, r4, r5
    356c:	e0202002 	eor	r2, r0, r2
    3570:	e0213003 	eor	r3, r1, r3
    3574:	e0220000 	eor	r0, r2, r0
    3578:	e0231001 	eor	r1, r3, r1
    357c:	e0202002 	eor	r2, r0, r2
    3580:	e0213003 	eor	r3, r1, r3
    3584:	e3550036 	cmp	r5, #54	; 0x36
    3588:	88bd4030 	pophi	{r4, r5, lr}
    358c:	812fff1e 	bxhi	lr
    3590:	e3110102 	tst	r1, #-2147483648	; 0x80000000
    3594:	e1a01601 	lsl	r1, r1, #12
    3598:	e3a0c601 	mov	ip, #1048576	; 0x100000
    359c:	e18c1621 	orr	r1, ip, r1, lsr #12
    35a0:	0a000001 	beq	35ac <__adddf3+0x7c>
    35a4:	e2700000 	rsbs	r0, r0, #0
    35a8:	e2e11000 	rsc	r1, r1, #0
    35ac:	e3130102 	tst	r3, #-2147483648	; 0x80000000
    35b0:	e1a03603 	lsl	r3, r3, #12
    35b4:	e18c3623 	orr	r3, ip, r3, lsr #12
    35b8:	0a000001 	beq	35c4 <__adddf3+0x94>
    35bc:	e2722000 	rsbs	r2, r2, #0
    35c0:	e2e33000 	rsc	r3, r3, #0
    35c4:	e1340005 	teq	r4, r5
    35c8:	0a000069 	beq	3774 <__adddf3+0x244>
    35cc:	e2444001 	sub	r4, r4, #1
    35d0:	e275e020 	rsbs	lr, r5, #32
    35d4:	ba000005 	blt	35f0 <__adddf3+0xc0>
    35d8:	e1a0ce12 	lsl	ip, r2, lr
    35dc:	e0900532 	adds	r0, r0, r2, lsr r5
    35e0:	e2a11000 	adc	r1, r1, #0
    35e4:	e0900e13 	adds	r0, r0, r3, lsl lr
    35e8:	e0b11553 	adcs	r1, r1, r3, asr r5
    35ec:	ea000006 	b	360c <__adddf3+0xdc>
    35f0:	e2455020 	sub	r5, r5, #32
    35f4:	e28ee020 	add	lr, lr, #32
    35f8:	e3520001 	cmp	r2, #1
    35fc:	e1a0ce13 	lsl	ip, r3, lr
    3600:	238cc002 	orrcs	ip, ip, #2
    3604:	e0900553 	adds	r0, r0, r3, asr r5
    3608:	e0b11fc3 	adcs	r1, r1, r3, asr #31
    360c:	e2015102 	and	r5, r1, #-2147483648	; 0x80000000
    3610:	5a000002 	bpl	3620 <__adddf3+0xf0>
    3614:	e27cc000 	rsbs	ip, ip, #0
    3618:	e2f00000 	rscs	r0, r0, #0
    361c:	e2e11000 	rsc	r1, r1, #0
    3620:	e3510601 	cmp	r1, #1048576	; 0x100000
    3624:	3a00000f 	bcc	3668 <__adddf3+0x138>
    3628:	e3510602 	cmp	r1, #2097152	; 0x200000
    362c:	3a000006 	bcc	364c <__adddf3+0x11c>
    3630:	e1b010a1 	lsrs	r1, r1, #1
    3634:	e1b00060 	rrxs	r0, r0
    3638:	e1a0c06c 	rrx	ip, ip
    363c:	e2844001 	add	r4, r4, #1
    3640:	e1a02a84 	lsl	r2, r4, #21
    3644:	e3720501 	cmn	r2, #4194304	; 0x400000
    3648:	2a00006b 	bcs	37fc <__adddf3+0x2cc>
    364c:	e35c0102 	cmp	ip, #-2147483648	; 0x80000000
    3650:	01b0c0a0 	lsrseq	ip, r0, #1
    3654:	e2b00000 	adcs	r0, r0, #0
    3658:	e0a11a04 	adc	r1, r1, r4, lsl #20
    365c:	e1811005 	orr	r1, r1, r5
    3660:	e8bd4030 	pop	{r4, r5, lr}
    3664:	e12fff1e 	bx	lr
    3668:	e1b0c08c 	lsls	ip, ip, #1
    366c:	e0b00000 	adcs	r0, r0, r0
    3670:	e0a11001 	adc	r1, r1, r1
    3674:	e3110601 	tst	r1, #1048576	; 0x100000
    3678:	e2444001 	sub	r4, r4, #1
    367c:	1afffff2 	bne	364c <__adddf3+0x11c>
    3680:	e3310000 	teq	r1, #0
    3684:	13a03014 	movne	r3, #20
    3688:	03a03034 	moveq	r3, #52	; 0x34
    368c:	01a01000 	moveq	r1, r0
    3690:	03a00000 	moveq	r0, #0
    3694:	e1a02001 	mov	r2, r1
    3698:	e3520801 	cmp	r2, #65536	; 0x10000
    369c:	21a02822 	lsrcs	r2, r2, #16
    36a0:	22433010 	subcs	r3, r3, #16
    36a4:	e3520c01 	cmp	r2, #256	; 0x100
    36a8:	21a02422 	lsrcs	r2, r2, #8
    36ac:	22433008 	subcs	r3, r3, #8
    36b0:	e3520010 	cmp	r2, #16
    36b4:	21a02222 	lsrcs	r2, r2, #4
    36b8:	22433004 	subcs	r3, r3, #4
    36bc:	e3520004 	cmp	r2, #4
    36c0:	22433002 	subcs	r3, r3, #2
    36c4:	304330a2 	subcc	r3, r3, r2, lsr #1
    36c8:	e04331a2 	sub	r3, r3, r2, lsr #3
    36cc:	e2532020 	subs	r2, r3, #32
    36d0:	aa000007 	bge	36f4 <__adddf3+0x1c4>
    36d4:	e292200c 	adds	r2, r2, #12
    36d8:	da000004 	ble	36f0 <__adddf3+0x1c0>
    36dc:	e282c014 	add	ip, r2, #20
    36e0:	e262200c 	rsb	r2, r2, #12
    36e4:	e1a00c11 	lsl	r0, r1, ip
    36e8:	e1a01231 	lsr	r1, r1, r2
    36ec:	ea000004 	b	3704 <__adddf3+0x1d4>
    36f0:	e2822014 	add	r2, r2, #20
    36f4:	d262c020 	rsble	ip, r2, #32
    36f8:	e1a01211 	lsl	r1, r1, r2
    36fc:	d1811c30 	orrle	r1, r1, r0, lsr ip
    3700:	d1a00210 	lslle	r0, r0, r2
    3704:	e0544003 	subs	r4, r4, r3
    3708:	a0811a04 	addge	r1, r1, r4, lsl #20
    370c:	a1811005 	orrge	r1, r1, r5
    3710:	a8bd4030 	popge	{r4, r5, lr}
    3714:	a12fff1e 	bxge	lr
    3718:	e1e04004 	mvn	r4, r4
    371c:	e254401f 	subs	r4, r4, #31
    3720:	aa00000f 	bge	3764 <__adddf3+0x234>
    3724:	e294400c 	adds	r4, r4, #12
    3728:	ca000006 	bgt	3748 <__adddf3+0x218>
    372c:	e2844014 	add	r4, r4, #20
    3730:	e2642020 	rsb	r2, r4, #32
    3734:	e1a00430 	lsr	r0, r0, r4
    3738:	e1800211 	orr	r0, r0, r1, lsl r2
    373c:	e1851431 	orr	r1, r5, r1, lsr r4
    3740:	e8bd4030 	pop	{r4, r5, lr}
    3744:	e12fff1e 	bx	lr
    3748:	e264400c 	rsb	r4, r4, #12
    374c:	e2642020 	rsb	r2, r4, #32
    3750:	e1a00230 	lsr	r0, r0, r2
    3754:	e1800411 	orr	r0, r0, r1, lsl r4
    3758:	e1a01005 	mov	r1, r5
    375c:	e8bd4030 	pop	{r4, r5, lr}
    3760:	e12fff1e 	bx	lr
    3764:	e1a00431 	lsr	r0, r1, r4
    3768:	e1a01005 	mov	r1, r5
    376c:	e8bd4030 	pop	{r4, r5, lr}
    3770:	e12fff1e 	bx	lr
    3774:	e3340000 	teq	r4, #0
    3778:	e2233601 	eor	r3, r3, #1048576	; 0x100000
    377c:	02211601 	eoreq	r1, r1, #1048576	; 0x100000
    3780:	02844001 	addeq	r4, r4, #1
    3784:	12455001 	subne	r5, r5, #1
    3788:	eaffff8f 	b	35cc <__adddf3+0x9c>
    378c:	e1f0cac4 	mvns	ip, r4, asr #21
    3790:	11f0cac5 	mvnsne	ip, r5, asr #21
    3794:	0a00001d 	beq	3810 <__adddf3+0x2e0>
    3798:	e1340005 	teq	r4, r5
    379c:	01300002 	teqeq	r0, r2
    37a0:	0a000004 	beq	37b8 <__adddf3+0x288>
    37a4:	e194c000 	orrs	ip, r4, r0
    37a8:	01a01003 	moveq	r1, r3
    37ac:	01a00002 	moveq	r0, r2
    37b0:	e8bd4030 	pop	{r4, r5, lr}
    37b4:	e12fff1e 	bx	lr
    37b8:	e1310003 	teq	r1, r3
    37bc:	13a01000 	movne	r1, #0
    37c0:	13a00000 	movne	r0, #0
    37c4:	18bd4030 	popne	{r4, r5, lr}
    37c8:	112fff1e 	bxne	lr
    37cc:	e1b0caa4 	lsrs	ip, r4, #21
    37d0:	1a000004 	bne	37e8 <__adddf3+0x2b8>
    37d4:	e1b00080 	lsls	r0, r0, #1
    37d8:	e0b11001 	adcs	r1, r1, r1
    37dc:	23811102 	orrcs	r1, r1, #-2147483648	; 0x80000000
    37e0:	e8bd4030 	pop	{r4, r5, lr}
    37e4:	e12fff1e 	bx	lr
    37e8:	e2944501 	adds	r4, r4, #4194304	; 0x400000
    37ec:	32811601 	addcc	r1, r1, #1048576	; 0x100000
    37f0:	38bd4030 	popcc	{r4, r5, lr}
    37f4:	312fff1e 	bxcc	lr
    37f8:	e2015102 	and	r5, r1, #-2147483648	; 0x80000000
    37fc:	e385147f 	orr	r1, r5, #2130706432	; 0x7f000000
    3800:	e381160f 	orr	r1, r1, #15728640	; 0xf00000
    3804:	e3a00000 	mov	r0, #0
    3808:	e8bd4030 	pop	{r4, r5, lr}
    380c:	e12fff1e 	bx	lr
    3810:	e1f0cac4 	mvns	ip, r4, asr #21
    3814:	11a01003 	movne	r1, r3
    3818:	11a00002 	movne	r0, r2
    381c:	01f0cac5 	mvnseq	ip, r5, asr #21
    3820:	11a03001 	movne	r3, r1
    3824:	11a02000 	movne	r2, r0
    3828:	e1904601 	orrs	r4, r0, r1, lsl #12
    382c:	01925603 	orrseq	r5, r2, r3, lsl #12
    3830:	01310003 	teqeq	r1, r3
    3834:	13811702 	orrne	r1, r1, #524288	; 0x80000
    3838:	e8bd4030 	pop	{r4, r5, lr}
    383c:	e12fff1e 	bx	lr

00003840 <__aeabi_ui2d>:
    3840:	e3300000 	teq	r0, #0
    3844:	03a01000 	moveq	r1, #0
    3848:	012fff1e 	bxeq	lr
    384c:	e92d4030 	push	{r4, r5, lr}
    3850:	e3a04b01 	mov	r4, #1024	; 0x400
    3854:	e2844032 	add	r4, r4, #50	; 0x32
    3858:	e3a05000 	mov	r5, #0
    385c:	e3a01000 	mov	r1, #0
    3860:	eaffff86 	b	3680 <__adddf3+0x150>

00003864 <__aeabi_i2d>:
    3864:	e3300000 	teq	r0, #0
    3868:	03a01000 	moveq	r1, #0
    386c:	012fff1e 	bxeq	lr
    3870:	e92d4030 	push	{r4, r5, lr}
    3874:	e3a04b01 	mov	r4, #1024	; 0x400
    3878:	e2844032 	add	r4, r4, #50	; 0x32
    387c:	e2105102 	ands	r5, r0, #-2147483648	; 0x80000000
    3880:	42600000 	rsbmi	r0, r0, #0
    3884:	e3a01000 	mov	r1, #0
    3888:	eaffff7c 	b	3680 <__adddf3+0x150>

0000388c <__aeabi_f2d>:
    388c:	e1b02080 	lsls	r2, r0, #1
    3890:	e1a011c2 	asr	r1, r2, #3
    3894:	e1a01061 	rrx	r1, r1
    3898:	e1a00e02 	lsl	r0, r2, #28
    389c:	121234ff 	andsne	r3, r2, #-16777216	; 0xff000000
    38a0:	133304ff 	teqne	r3, #-16777216	; 0xff000000
    38a4:	1221130e 	eorne	r1, r1, #939524096	; 0x38000000
    38a8:	112fff1e 	bxne	lr
    38ac:	e3320000 	teq	r2, #0
    38b0:	133304ff 	teqne	r3, #-16777216	; 0xff000000
    38b4:	012fff1e 	bxeq	lr
    38b8:	e92d4030 	push	{r4, r5, lr}
    38bc:	e3a04d0e 	mov	r4, #896	; 0x380
    38c0:	e2015102 	and	r5, r1, #-2147483648	; 0x80000000
    38c4:	e3c11102 	bic	r1, r1, #-2147483648	; 0x80000000
    38c8:	eaffff6c 	b	3680 <__adddf3+0x150>

000038cc <__aeabi_ul2d>:
    38cc:	e1902001 	orrs	r2, r0, r1
    38d0:	012fff1e 	bxeq	lr
    38d4:	e92d4030 	push	{r4, r5, lr}
    38d8:	e3a05000 	mov	r5, #0
    38dc:	ea000006 	b	38fc <__aeabi_l2d+0x1c>

000038e0 <__aeabi_l2d>:
    38e0:	e1902001 	orrs	r2, r0, r1
    38e4:	012fff1e 	bxeq	lr
    38e8:	e92d4030 	push	{r4, r5, lr}
    38ec:	e2115102 	ands	r5, r1, #-2147483648	; 0x80000000
    38f0:	5a000001 	bpl	38fc <__aeabi_l2d+0x1c>
    38f4:	e2700000 	rsbs	r0, r0, #0
    38f8:	e2e11000 	rsc	r1, r1, #0
    38fc:	e3a04b01 	mov	r4, #1024	; 0x400
    3900:	e2844032 	add	r4, r4, #50	; 0x32
    3904:	e1b0cb21 	lsrs	ip, r1, #22
    3908:	0affff44 	beq	3620 <__adddf3+0xf0>
    390c:	e3a02003 	mov	r2, #3
    3910:	e1b0c1ac 	lsrs	ip, ip, #3
    3914:	12822003 	addne	r2, r2, #3
    3918:	e1b0c1ac 	lsrs	ip, ip, #3
    391c:	12822003 	addne	r2, r2, #3
    3920:	e08221ac 	add	r2, r2, ip, lsr #3
    3924:	e2623020 	rsb	r3, r2, #32
    3928:	e1a0c310 	lsl	ip, r0, r3
    392c:	e1a00230 	lsr	r0, r0, r2
    3930:	e1800311 	orr	r0, r0, r1, lsl r3
    3934:	e1a01231 	lsr	r1, r1, r2
    3938:	e0844002 	add	r4, r4, r2
    393c:	eaffff37 	b	3620 <__adddf3+0xf0>

00003940 <__aeabi_dmul>:
    3940:	e92d4070 	push	{r4, r5, r6, lr}
    3944:	e3a0c0ff 	mov	ip, #255	; 0xff
    3948:	e38ccc07 	orr	ip, ip, #1792	; 0x700
    394c:	e01c4a21 	ands	r4, ip, r1, lsr #20
    3950:	101c5a23 	andsne	r5, ip, r3, lsr #20
    3954:	1134000c 	teqne	r4, ip
    3958:	1135000c 	teqne	r5, ip
    395c:	0b000075 	bleq	3b38 <__aeabi_dmul+0x1f8>
    3960:	e0844005 	add	r4, r4, r5
    3964:	e0216003 	eor	r6, r1, r3
    3968:	e1c11a8c 	bic	r1, r1, ip, lsl #21
    396c:	e1c33a8c 	bic	r3, r3, ip, lsl #21
    3970:	e1905601 	orrs	r5, r0, r1, lsl #12
    3974:	11925603 	orrsne	r5, r2, r3, lsl #12
    3978:	e3811601 	orr	r1, r1, #1048576	; 0x100000
    397c:	e3833601 	orr	r3, r3, #1048576	; 0x100000
    3980:	0a00001d 	beq	39fc <__aeabi_dmul+0xbc>
    3984:	e08ec290 	umull	ip, lr, r0, r2
    3988:	e3a05000 	mov	r5, #0
    398c:	e0a5e291 	umlal	lr, r5, r1, r2
    3990:	e2062102 	and	r2, r6, #-2147483648	; 0x80000000
    3994:	e0a5e390 	umlal	lr, r5, r0, r3
    3998:	e3a06000 	mov	r6, #0
    399c:	e0a65391 	umlal	r5, r6, r1, r3
    39a0:	e33c0000 	teq	ip, #0
    39a4:	138ee001 	orrne	lr, lr, #1
    39a8:	e24440ff 	sub	r4, r4, #255	; 0xff
    39ac:	e3560c02 	cmp	r6, #512	; 0x200
    39b0:	e2c44c03 	sbc	r4, r4, #768	; 0x300
    39b4:	2a000002 	bcs	39c4 <__aeabi_dmul+0x84>
    39b8:	e1b0e08e 	lsls	lr, lr, #1
    39bc:	e0b55005 	adcs	r5, r5, r5
    39c0:	e0a66006 	adc	r6, r6, r6
    39c4:	e1821586 	orr	r1, r2, r6, lsl #11
    39c8:	e1811aa5 	orr	r1, r1, r5, lsr #21
    39cc:	e1a00585 	lsl	r0, r5, #11
    39d0:	e1800aae 	orr	r0, r0, lr, lsr #21
    39d4:	e1a0e58e 	lsl	lr, lr, #11
    39d8:	e254c0fd 	subs	ip, r4, #253	; 0xfd
    39dc:	835c0c07 	cmphi	ip, #1792	; 0x700
    39e0:	8a000011 	bhi	3a2c <__aeabi_dmul+0xec>
    39e4:	e35e0102 	cmp	lr, #-2147483648	; 0x80000000
    39e8:	01b0e0a0 	lsrseq	lr, r0, #1
    39ec:	e2b00000 	adcs	r0, r0, #0
    39f0:	e0a11a04 	adc	r1, r1, r4, lsl #20
    39f4:	e8bd4070 	pop	{r4, r5, r6, lr}
    39f8:	e12fff1e 	bx	lr
    39fc:	e2066102 	and	r6, r6, #-2147483648	; 0x80000000
    3a00:	e1861001 	orr	r1, r6, r1
    3a04:	e1800002 	orr	r0, r0, r2
    3a08:	e0211003 	eor	r1, r1, r3
    3a0c:	e05440ac 	subs	r4, r4, ip, lsr #1
    3a10:	c074500c 	rsbsgt	r5, r4, ip
    3a14:	c1811a04 	orrgt	r1, r1, r4, lsl #20
    3a18:	c8bd4070 	popgt	{r4, r5, r6, lr}
    3a1c:	c12fff1e 	bxgt	lr
    3a20:	e3811601 	orr	r1, r1, #1048576	; 0x100000
    3a24:	e3a0e000 	mov	lr, #0
    3a28:	e2544001 	subs	r4, r4, #1
    3a2c:	ca00005d 	bgt	3ba8 <__aeabi_dmul+0x268>
    3a30:	e3740036 	cmn	r4, #54	; 0x36
    3a34:	d3a00000 	movle	r0, #0
    3a38:	d2011102 	andle	r1, r1, #-2147483648	; 0x80000000
    3a3c:	d8bd4070 	pople	{r4, r5, r6, lr}
    3a40:	d12fff1e 	bxle	lr
    3a44:	e2644000 	rsb	r4, r4, #0
    3a48:	e2544020 	subs	r4, r4, #32
    3a4c:	aa00001a 	bge	3abc <__aeabi_dmul+0x17c>
    3a50:	e294400c 	adds	r4, r4, #12
    3a54:	ca00000c 	bgt	3a8c <__aeabi_dmul+0x14c>
    3a58:	e2844014 	add	r4, r4, #20
    3a5c:	e2645020 	rsb	r5, r4, #32
    3a60:	e1a03510 	lsl	r3, r0, r5
    3a64:	e1a00430 	lsr	r0, r0, r4
    3a68:	e1800511 	orr	r0, r0, r1, lsl r5
    3a6c:	e2012102 	and	r2, r1, #-2147483648	; 0x80000000
    3a70:	e3c11102 	bic	r1, r1, #-2147483648	; 0x80000000
    3a74:	e0900fa3 	adds	r0, r0, r3, lsr #31
    3a78:	e0a21431 	adc	r1, r2, r1, lsr r4
    3a7c:	e19ee083 	orrs	lr, lr, r3, lsl #1
    3a80:	01c00fa3 	biceq	r0, r0, r3, lsr #31
    3a84:	e8bd4070 	pop	{r4, r5, r6, lr}
    3a88:	e12fff1e 	bx	lr
    3a8c:	e264400c 	rsb	r4, r4, #12
    3a90:	e2645020 	rsb	r5, r4, #32
    3a94:	e1a03410 	lsl	r3, r0, r4
    3a98:	e1a00530 	lsr	r0, r0, r5
    3a9c:	e1800411 	orr	r0, r0, r1, lsl r4
    3aa0:	e2011102 	and	r1, r1, #-2147483648	; 0x80000000
    3aa4:	e0900fa3 	adds	r0, r0, r3, lsr #31
    3aa8:	e2a11000 	adc	r1, r1, #0
    3aac:	e19ee083 	orrs	lr, lr, r3, lsl #1
    3ab0:	01c00fa3 	biceq	r0, r0, r3, lsr #31
    3ab4:	e8bd4070 	pop	{r4, r5, r6, lr}
    3ab8:	e12fff1e 	bx	lr
    3abc:	e2645020 	rsb	r5, r4, #32
    3ac0:	e18ee510 	orr	lr, lr, r0, lsl r5
    3ac4:	e1a03430 	lsr	r3, r0, r4
    3ac8:	e1833511 	orr	r3, r3, r1, lsl r5
    3acc:	e1a00431 	lsr	r0, r1, r4
    3ad0:	e2011102 	and	r1, r1, #-2147483648	; 0x80000000
    3ad4:	e1c00431 	bic	r0, r0, r1, lsr r4
    3ad8:	e0800fa3 	add	r0, r0, r3, lsr #31
    3adc:	e19ee083 	orrs	lr, lr, r3, lsl #1
    3ae0:	01c00fa3 	biceq	r0, r0, r3, lsr #31
    3ae4:	e8bd4070 	pop	{r4, r5, r6, lr}
    3ae8:	e12fff1e 	bx	lr
    3aec:	e3340000 	teq	r4, #0
    3af0:	1a000008 	bne	3b18 <__aeabi_dmul+0x1d8>
    3af4:	e2016102 	and	r6, r1, #-2147483648	; 0x80000000
    3af8:	e1b00080 	lsls	r0, r0, #1
    3afc:	e0a11001 	adc	r1, r1, r1
    3b00:	e3110601 	tst	r1, #1048576	; 0x100000
    3b04:	02444001 	subeq	r4, r4, #1
    3b08:	0afffffa 	beq	3af8 <__aeabi_dmul+0x1b8>
    3b0c:	e1811006 	orr	r1, r1, r6
    3b10:	e3350000 	teq	r5, #0
    3b14:	112fff1e 	bxne	lr
    3b18:	e2036102 	and	r6, r3, #-2147483648	; 0x80000000
    3b1c:	e1b02082 	lsls	r2, r2, #1
    3b20:	e0a33003 	adc	r3, r3, r3
    3b24:	e3130601 	tst	r3, #1048576	; 0x100000
    3b28:	02455001 	subeq	r5, r5, #1
    3b2c:	0afffffa 	beq	3b1c <__aeabi_dmul+0x1dc>
    3b30:	e1833006 	orr	r3, r3, r6
    3b34:	e12fff1e 	bx	lr
    3b38:	e134000c 	teq	r4, ip
    3b3c:	e00c5a23 	and	r5, ip, r3, lsr #20
    3b40:	1135000c 	teqne	r5, ip
    3b44:	0a000007 	beq	3b68 <__aeabi_dmul+0x228>
    3b48:	e1906081 	orrs	r6, r0, r1, lsl #1
    3b4c:	11926083 	orrsne	r6, r2, r3, lsl #1
    3b50:	1affffe5 	bne	3aec <__aeabi_dmul+0x1ac>
    3b54:	e0211003 	eor	r1, r1, r3
    3b58:	e2011102 	and	r1, r1, #-2147483648	; 0x80000000
    3b5c:	e3a00000 	mov	r0, #0
    3b60:	e8bd4070 	pop	{r4, r5, r6, lr}
    3b64:	e12fff1e 	bx	lr
    3b68:	e1906081 	orrs	r6, r0, r1, lsl #1
    3b6c:	01a00002 	moveq	r0, r2
    3b70:	01a01003 	moveq	r1, r3
    3b74:	11926083 	orrsne	r6, r2, r3, lsl #1
    3b78:	0a000010 	beq	3bc0 <__aeabi_dmul+0x280>
    3b7c:	e134000c 	teq	r4, ip
    3b80:	1a000001 	bne	3b8c <__aeabi_dmul+0x24c>
    3b84:	e1906601 	orrs	r6, r0, r1, lsl #12
    3b88:	1a00000c 	bne	3bc0 <__aeabi_dmul+0x280>
    3b8c:	e135000c 	teq	r5, ip
    3b90:	1a000003 	bne	3ba4 <__aeabi_dmul+0x264>
    3b94:	e1926603 	orrs	r6, r2, r3, lsl #12
    3b98:	11a00002 	movne	r0, r2
    3b9c:	11a01003 	movne	r1, r3
    3ba0:	1a000006 	bne	3bc0 <__aeabi_dmul+0x280>
    3ba4:	e0211003 	eor	r1, r1, r3
    3ba8:	e2011102 	and	r1, r1, #-2147483648	; 0x80000000
    3bac:	e381147f 	orr	r1, r1, #2130706432	; 0x7f000000
    3bb0:	e381160f 	orr	r1, r1, #15728640	; 0xf00000
    3bb4:	e3a00000 	mov	r0, #0
    3bb8:	e8bd4070 	pop	{r4, r5, r6, lr}
    3bbc:	e12fff1e 	bx	lr
    3bc0:	e381147f 	orr	r1, r1, #2130706432	; 0x7f000000
    3bc4:	e381173e 	orr	r1, r1, #16252928	; 0xf80000
    3bc8:	e8bd4070 	pop	{r4, r5, r6, lr}
    3bcc:	e12fff1e 	bx	lr

00003bd0 <__aeabi_ddiv>:
    3bd0:	e92d4070 	push	{r4, r5, r6, lr}
    3bd4:	e3a0c0ff 	mov	ip, #255	; 0xff
    3bd8:	e38ccc07 	orr	ip, ip, #1792	; 0x700
    3bdc:	e01c4a21 	ands	r4, ip, r1, lsr #20
    3be0:	101c5a23 	andsne	r5, ip, r3, lsr #20
    3be4:	1134000c 	teqne	r4, ip
    3be8:	1135000c 	teqne	r5, ip
    3bec:	0b00005e 	bleq	3d6c <__aeabi_ddiv+0x19c>
    3bf0:	e0444005 	sub	r4, r4, r5
    3bf4:	e021e003 	eor	lr, r1, r3
    3bf8:	e1925603 	orrs	r5, r2, r3, lsl #12
    3bfc:	e1a01601 	lsl	r1, r1, #12
    3c00:	0a00004c 	beq	3d38 <__aeabi_ddiv+0x168>
    3c04:	e1a03603 	lsl	r3, r3, #12
    3c08:	e3a05201 	mov	r5, #268435456	; 0x10000000
    3c0c:	e1853223 	orr	r3, r5, r3, lsr #4
    3c10:	e1833c22 	orr	r3, r3, r2, lsr #24
    3c14:	e1a02402 	lsl	r2, r2, #8
    3c18:	e1855221 	orr	r5, r5, r1, lsr #4
    3c1c:	e1855c20 	orr	r5, r5, r0, lsr #24
    3c20:	e1a06400 	lsl	r6, r0, #8
    3c24:	e20e1102 	and	r1, lr, #-2147483648	; 0x80000000
    3c28:	e1550003 	cmp	r5, r3
    3c2c:	01560002 	cmpeq	r6, r2
    3c30:	e2a440fd 	adc	r4, r4, #253	; 0xfd
    3c34:	e2844c03 	add	r4, r4, #768	; 0x300
    3c38:	2a000001 	bcs	3c44 <__aeabi_ddiv+0x74>
    3c3c:	e1b030a3 	lsrs	r3, r3, #1
    3c40:	e1a02062 	rrx	r2, r2
    3c44:	e0566002 	subs	r6, r6, r2
    3c48:	e0c55003 	sbc	r5, r5, r3
    3c4c:	e1b030a3 	lsrs	r3, r3, #1
    3c50:	e1a02062 	rrx	r2, r2
    3c54:	e3a00601 	mov	r0, #1048576	; 0x100000
    3c58:	e3a0c702 	mov	ip, #524288	; 0x80000
    3c5c:	e056e002 	subs	lr, r6, r2
    3c60:	e0d5e003 	sbcs	lr, r5, r3
    3c64:	20466002 	subcs	r6, r6, r2
    3c68:	21a0500e 	movcs	r5, lr
    3c6c:	2180000c 	orrcs	r0, r0, ip
    3c70:	e1b030a3 	lsrs	r3, r3, #1
    3c74:	e1a02062 	rrx	r2, r2
    3c78:	e056e002 	subs	lr, r6, r2
    3c7c:	e0d5e003 	sbcs	lr, r5, r3
    3c80:	20466002 	subcs	r6, r6, r2
    3c84:	21a0500e 	movcs	r5, lr
    3c88:	218000ac 	orrcs	r0, r0, ip, lsr #1
    3c8c:	e1b030a3 	lsrs	r3, r3, #1
    3c90:	e1a02062 	rrx	r2, r2
    3c94:	e056e002 	subs	lr, r6, r2
    3c98:	e0d5e003 	sbcs	lr, r5, r3
    3c9c:	20466002 	subcs	r6, r6, r2
    3ca0:	21a0500e 	movcs	r5, lr
    3ca4:	2180012c 	orrcs	r0, r0, ip, lsr #2
    3ca8:	e1b030a3 	lsrs	r3, r3, #1
    3cac:	e1a02062 	rrx	r2, r2
    3cb0:	e056e002 	subs	lr, r6, r2
    3cb4:	e0d5e003 	sbcs	lr, r5, r3
    3cb8:	20466002 	subcs	r6, r6, r2
    3cbc:	21a0500e 	movcs	r5, lr
    3cc0:	218001ac 	orrcs	r0, r0, ip, lsr #3
    3cc4:	e195e006 	orrs	lr, r5, r6
    3cc8:	0a00000d 	beq	3d04 <__aeabi_ddiv+0x134>
    3ccc:	e1a05205 	lsl	r5, r5, #4
    3cd0:	e1855e26 	orr	r5, r5, r6, lsr #28
    3cd4:	e1a06206 	lsl	r6, r6, #4
    3cd8:	e1a03183 	lsl	r3, r3, #3
    3cdc:	e1833ea2 	orr	r3, r3, r2, lsr #29
    3ce0:	e1a02182 	lsl	r2, r2, #3
    3ce4:	e1b0c22c 	lsrs	ip, ip, #4
    3ce8:	1affffdb 	bne	3c5c <__aeabi_ddiv+0x8c>
    3cec:	e3110601 	tst	r1, #1048576	; 0x100000
    3cf0:	1a000006 	bne	3d10 <__aeabi_ddiv+0x140>
    3cf4:	e1811000 	orr	r1, r1, r0
    3cf8:	e3a00000 	mov	r0, #0
    3cfc:	e3a0c102 	mov	ip, #-2147483648	; 0x80000000
    3d00:	eaffffd5 	b	3c5c <__aeabi_ddiv+0x8c>
    3d04:	e3110601 	tst	r1, #1048576	; 0x100000
    3d08:	01811000 	orreq	r1, r1, r0
    3d0c:	03a00000 	moveq	r0, #0
    3d10:	e254c0fd 	subs	ip, r4, #253	; 0xfd
    3d14:	835c0c07 	cmphi	ip, #1792	; 0x700
    3d18:	8affff43 	bhi	3a2c <__aeabi_dmul+0xec>
    3d1c:	e055c003 	subs	ip, r5, r3
    3d20:	0056c002 	subseq	ip, r6, r2
    3d24:	01b0c0a0 	lsrseq	ip, r0, #1
    3d28:	e2b00000 	adcs	r0, r0, #0
    3d2c:	e0a11a04 	adc	r1, r1, r4, lsl #20
    3d30:	e8bd4070 	pop	{r4, r5, r6, lr}
    3d34:	e12fff1e 	bx	lr
    3d38:	e20ee102 	and	lr, lr, #-2147483648	; 0x80000000
    3d3c:	e18e1621 	orr	r1, lr, r1, lsr #12
    3d40:	e09440ac 	adds	r4, r4, ip, lsr #1
    3d44:	c074500c 	rsbsgt	r5, r4, ip
    3d48:	c1811a04 	orrgt	r1, r1, r4, lsl #20
    3d4c:	c8bd4070 	popgt	{r4, r5, r6, lr}
    3d50:	c12fff1e 	bxgt	lr
    3d54:	e3811601 	orr	r1, r1, #1048576	; 0x100000
    3d58:	e3a0e000 	mov	lr, #0
    3d5c:	e2544001 	subs	r4, r4, #1
    3d60:	eaffff31 	b	3a2c <__aeabi_dmul+0xec>
    3d64:	e185e006 	orr	lr, r5, r6
    3d68:	eaffff2f 	b	3a2c <__aeabi_dmul+0xec>
    3d6c:	e00c5a23 	and	r5, ip, r3, lsr #20
    3d70:	e134000c 	teq	r4, ip
    3d74:	0135000c 	teqeq	r5, ip
    3d78:	0affff90 	beq	3bc0 <__aeabi_dmul+0x280>
    3d7c:	e134000c 	teq	r4, ip
    3d80:	1a000006 	bne	3da0 <__aeabi_ddiv+0x1d0>
    3d84:	e1904601 	orrs	r4, r0, r1, lsl #12
    3d88:	1affff8c 	bne	3bc0 <__aeabi_dmul+0x280>
    3d8c:	e135000c 	teq	r5, ip
    3d90:	1affff83 	bne	3ba4 <__aeabi_dmul+0x264>
    3d94:	e1a00002 	mov	r0, r2
    3d98:	e1a01003 	mov	r1, r3
    3d9c:	eaffff87 	b	3bc0 <__aeabi_dmul+0x280>
    3da0:	e135000c 	teq	r5, ip
    3da4:	1a000004 	bne	3dbc <__aeabi_ddiv+0x1ec>
    3da8:	e1925603 	orrs	r5, r2, r3, lsl #12
    3dac:	0affff68 	beq	3b54 <__aeabi_dmul+0x214>
    3db0:	e1a00002 	mov	r0, r2
    3db4:	e1a01003 	mov	r1, r3
    3db8:	eaffff80 	b	3bc0 <__aeabi_dmul+0x280>
    3dbc:	e1906081 	orrs	r6, r0, r1, lsl #1
    3dc0:	11926083 	orrsne	r6, r2, r3, lsl #1
    3dc4:	1affff48 	bne	3aec <__aeabi_dmul+0x1ac>
    3dc8:	e1904081 	orrs	r4, r0, r1, lsl #1
    3dcc:	1affff74 	bne	3ba4 <__aeabi_dmul+0x264>
    3dd0:	e1925083 	orrs	r5, r2, r3, lsl #1
    3dd4:	1affff5e 	bne	3b54 <__aeabi_dmul+0x214>
    3dd8:	eaffff78 	b	3bc0 <__aeabi_dmul+0x280>

00003ddc <__aeabi_d2f>:
    3ddc:	e1a02081 	lsl	r2, r1, #1
    3de0:	e2523207 	subs	r3, r2, #1879048192	; 0x70000000
    3de4:	2253c602 	subscs	ip, r3, #2097152	; 0x200000
    3de8:	227cc57f 	rsbscs	ip, ip, #532676608	; 0x1fc00000
    3dec:	9a000006 	bls	3e0c <__aeabi_d2f+0x30>
    3df0:	e201c102 	and	ip, r1, #-2147483648	; 0x80000000
    3df4:	e1a02180 	lsl	r2, r0, #3
    3df8:	e18c0ea0 	orr	r0, ip, r0, lsr #29
    3dfc:	e3520102 	cmp	r2, #-2147483648	; 0x80000000
    3e00:	e0a00103 	adc	r0, r0, r3, lsl #2
    3e04:	03c00001 	biceq	r0, r0, #1
    3e08:	e12fff1e 	bx	lr
    3e0c:	e3110101 	tst	r1, #1073741824	; 0x40000000
    3e10:	1a00000f 	bne	3e54 <__aeabi_d2f+0x78>
    3e14:	e293262e 	adds	r2, r3, #48234496	; 0x2e00000
    3e18:	b2010102 	andlt	r0, r1, #-2147483648	; 0x80000000
    3e1c:	b12fff1e 	bxlt	lr
    3e20:	e3811601 	orr	r1, r1, #1048576	; 0x100000
    3e24:	e1a02aa2 	lsr	r2, r2, #21
    3e28:	e2622018 	rsb	r2, r2, #24
    3e2c:	e262c020 	rsb	ip, r2, #32
    3e30:	e1b03c10 	lsls	r3, r0, ip
    3e34:	e1a00230 	lsr	r0, r0, r2
    3e38:	13800001 	orrne	r0, r0, #1
    3e3c:	e1a03581 	lsl	r3, r1, #11
    3e40:	e1a035a3 	lsr	r3, r3, #11
    3e44:	e1800c13 	orr	r0, r0, r3, lsl ip
    3e48:	e1a03233 	lsr	r3, r3, r2
    3e4c:	e1a03083 	lsl	r3, r3, #1
    3e50:	eaffffe6 	b	3df0 <__aeabi_d2f+0x14>
    3e54:	e1f03ac2 	mvns	r3, r2, asr #21
    3e58:	1a000003 	bne	3e6c <__aeabi_d2f+0x90>
    3e5c:	e1903601 	orrs	r3, r0, r1, lsl #12
    3e60:	13a0047f 	movne	r0, #2130706432	; 0x7f000000
    3e64:	13800503 	orrne	r0, r0, #12582912	; 0xc00000
    3e68:	112fff1e 	bxne	lr
    3e6c:	e2010102 	and	r0, r1, #-2147483648	; 0x80000000
    3e70:	e380047f 	orr	r0, r0, #2130706432	; 0x7f000000
    3e74:	e3800502 	orr	r0, r0, #8388608	; 0x800000
    3e78:	e12fff1e 	bx	lr

00003e7c <__aeabi_frsub>:
    3e7c:	e2200102 	eor	r0, r0, #-2147483648	; 0x80000000
    3e80:	ea000000 	b	3e88 <__addsf3>

00003e84 <__aeabi_fsub>:
    3e84:	e2211102 	eor	r1, r1, #-2147483648	; 0x80000000

00003e88 <__addsf3>:
    3e88:	e1b02080 	lsls	r2, r0, #1
    3e8c:	11b03081 	lslsne	r3, r1, #1
    3e90:	11320003 	teqne	r2, r3
    3e94:	11f0cc42 	mvnsne	ip, r2, asr #24
    3e98:	11f0cc43 	mvnsne	ip, r3, asr #24
    3e9c:	0a000047 	beq	3fc0 <__addsf3+0x138>
    3ea0:	e1a02c22 	lsr	r2, r2, #24
    3ea4:	e0723c23 	rsbs	r3, r2, r3, lsr #24
    3ea8:	c0822003 	addgt	r2, r2, r3
    3eac:	c0201001 	eorgt	r1, r0, r1
    3eb0:	c0210000 	eorgt	r0, r1, r0
    3eb4:	c0201001 	eorgt	r1, r0, r1
    3eb8:	b2633000 	rsblt	r3, r3, #0
    3ebc:	e3530019 	cmp	r3, #25
    3ec0:	812fff1e 	bxhi	lr
    3ec4:	e3100102 	tst	r0, #-2147483648	; 0x80000000
    3ec8:	e3800502 	orr	r0, r0, #8388608	; 0x800000
    3ecc:	e3c004ff 	bic	r0, r0, #-16777216	; 0xff000000
    3ed0:	12600000 	rsbne	r0, r0, #0
    3ed4:	e3110102 	tst	r1, #-2147483648	; 0x80000000
    3ed8:	e3811502 	orr	r1, r1, #8388608	; 0x800000
    3edc:	e3c114ff 	bic	r1, r1, #-16777216	; 0xff000000
    3ee0:	12611000 	rsbne	r1, r1, #0
    3ee4:	e1320003 	teq	r2, r3
    3ee8:	0a00002e 	beq	3fa8 <__addsf3+0x120>
    3eec:	e2422001 	sub	r2, r2, #1
    3ef0:	e0900351 	adds	r0, r0, r1, asr r3
    3ef4:	e2633020 	rsb	r3, r3, #32
    3ef8:	e1a01311 	lsl	r1, r1, r3
    3efc:	e2003102 	and	r3, r0, #-2147483648	; 0x80000000
    3f00:	5a000001 	bpl	3f0c <__addsf3+0x84>
    3f04:	e2711000 	rsbs	r1, r1, #0
    3f08:	e2e00000 	rsc	r0, r0, #0
    3f0c:	e3500502 	cmp	r0, #8388608	; 0x800000
    3f10:	3a00000b 	bcc	3f44 <__addsf3+0xbc>
    3f14:	e3500401 	cmp	r0, #16777216	; 0x1000000
    3f18:	3a000004 	bcc	3f30 <__addsf3+0xa8>
    3f1c:	e1b000a0 	lsrs	r0, r0, #1
    3f20:	e1a01061 	rrx	r1, r1
    3f24:	e2822001 	add	r2, r2, #1
    3f28:	e35200fe 	cmp	r2, #254	; 0xfe
    3f2c:	2a000038 	bcs	4014 <__addsf3+0x18c>
    3f30:	e3510102 	cmp	r1, #-2147483648	; 0x80000000
    3f34:	e0a00b82 	adc	r0, r0, r2, lsl #23
    3f38:	03c00001 	biceq	r0, r0, #1
    3f3c:	e1800003 	orr	r0, r0, r3
    3f40:	e12fff1e 	bx	lr
    3f44:	e1b01081 	lsls	r1, r1, #1
    3f48:	e0a00000 	adc	r0, r0, r0
    3f4c:	e3100502 	tst	r0, #8388608	; 0x800000
    3f50:	e2422001 	sub	r2, r2, #1
    3f54:	1afffff5 	bne	3f30 <__addsf3+0xa8>
    3f58:	e1b0c620 	lsrs	ip, r0, #12
    3f5c:	01a00600 	lsleq	r0, r0, #12
    3f60:	0242200c 	subeq	r2, r2, #12
    3f64:	e31008ff 	tst	r0, #16711680	; 0xff0000
    3f68:	01a00400 	lsleq	r0, r0, #8
    3f6c:	02422008 	subeq	r2, r2, #8
    3f70:	e310060f 	tst	r0, #15728640	; 0xf00000
    3f74:	01a00200 	lsleq	r0, r0, #4
    3f78:	02422004 	subeq	r2, r2, #4
    3f7c:	e3100503 	tst	r0, #12582912	; 0xc00000
    3f80:	01a00100 	lsleq	r0, r0, #2
    3f84:	02422002 	subeq	r2, r2, #2
    3f88:	e3500502 	cmp	r0, #8388608	; 0x800000
    3f8c:	31a00080 	lslcc	r0, r0, #1
    3f90:	e2d22000 	sbcs	r2, r2, #0
    3f94:	a0800b82 	addge	r0, r0, r2, lsl #23
    3f98:	b2622000 	rsblt	r2, r2, #0
    3f9c:	a1800003 	orrge	r0, r0, r3
    3fa0:	b1830230 	orrlt	r0, r3, r0, lsr r2
    3fa4:	e12fff1e 	bx	lr
    3fa8:	e3320000 	teq	r2, #0
    3fac:	e2211502 	eor	r1, r1, #8388608	; 0x800000
    3fb0:	02200502 	eoreq	r0, r0, #8388608	; 0x800000
    3fb4:	02822001 	addeq	r2, r2, #1
    3fb8:	12433001 	subne	r3, r3, #1
    3fbc:	eaffffca 	b	3eec <__addsf3+0x64>
    3fc0:	e1a03081 	lsl	r3, r1, #1
    3fc4:	e1f0cc42 	mvns	ip, r2, asr #24
    3fc8:	11f0cc43 	mvnsne	ip, r3, asr #24
    3fcc:	0a000013 	beq	4020 <__addsf3+0x198>
    3fd0:	e1320003 	teq	r2, r3
    3fd4:	0a000002 	beq	3fe4 <__addsf3+0x15c>
    3fd8:	e3320000 	teq	r2, #0
    3fdc:	01a00001 	moveq	r0, r1
    3fe0:	e12fff1e 	bx	lr
    3fe4:	e1300001 	teq	r0, r1
    3fe8:	13a00000 	movne	r0, #0
    3fec:	112fff1e 	bxne	lr
    3ff0:	e31204ff 	tst	r2, #-16777216	; 0xff000000
    3ff4:	1a000002 	bne	4004 <__addsf3+0x17c>
    3ff8:	e1b00080 	lsls	r0, r0, #1
    3ffc:	23800102 	orrcs	r0, r0, #-2147483648	; 0x80000000
    4000:	e12fff1e 	bx	lr
    4004:	e2922402 	adds	r2, r2, #33554432	; 0x2000000
    4008:	32800502 	addcc	r0, r0, #8388608	; 0x800000
    400c:	312fff1e 	bxcc	lr
    4010:	e2003102 	and	r3, r0, #-2147483648	; 0x80000000
    4014:	e383047f 	orr	r0, r3, #2130706432	; 0x7f000000
    4018:	e3800502 	orr	r0, r0, #8388608	; 0x800000
    401c:	e12fff1e 	bx	lr
    4020:	e1f02c42 	mvns	r2, r2, asr #24
    4024:	11a00001 	movne	r0, r1
    4028:	01f03c43 	mvnseq	r3, r3, asr #24
    402c:	11a01000 	movne	r1, r0
    4030:	e1b02480 	lsls	r2, r0, #9
    4034:	01b03481 	lslseq	r3, r1, #9
    4038:	01300001 	teqeq	r0, r1
    403c:	13800501 	orrne	r0, r0, #4194304	; 0x400000
    4040:	e12fff1e 	bx	lr

00004044 <__aeabi_ui2f>:
    4044:	e3a03000 	mov	r3, #0
    4048:	ea000001 	b	4054 <__aeabi_i2f+0x8>

0000404c <__aeabi_i2f>:
    404c:	e2103102 	ands	r3, r0, #-2147483648	; 0x80000000
    4050:	42600000 	rsbmi	r0, r0, #0
    4054:	e1b0c000 	movs	ip, r0
    4058:	012fff1e 	bxeq	lr
    405c:	e383344b 	orr	r3, r3, #1258291200	; 0x4b000000
    4060:	e1a01000 	mov	r1, r0
    4064:	e3a00000 	mov	r0, #0
    4068:	ea00000f 	b	40ac <__aeabi_l2f+0x30>

0000406c <__aeabi_ul2f>:
    406c:	e1902001 	orrs	r2, r0, r1
    4070:	012fff1e 	bxeq	lr
    4074:	e3a03000 	mov	r3, #0
    4078:	ea000005 	b	4094 <__aeabi_l2f+0x18>

0000407c <__aeabi_l2f>:
    407c:	e1902001 	orrs	r2, r0, r1
    4080:	012fff1e 	bxeq	lr
    4084:	e2113102 	ands	r3, r1, #-2147483648	; 0x80000000
    4088:	5a000001 	bpl	4094 <__aeabi_l2f+0x18>
    408c:	e2700000 	rsbs	r0, r0, #0
    4090:	e2e11000 	rsc	r1, r1, #0
    4094:	e1b0c001 	movs	ip, r1
    4098:	01a0c000 	moveq	ip, r0
    409c:	01a01000 	moveq	r1, r0
    40a0:	03a00000 	moveq	r0, #0
    40a4:	e383345b 	orr	r3, r3, #1526726656	; 0x5b000000
    40a8:	02433201 	subeq	r3, r3, #268435456	; 0x10000000
    40ac:	e2433502 	sub	r3, r3, #8388608	; 0x800000
    40b0:	e3a02017 	mov	r2, #23
    40b4:	e35c0801 	cmp	ip, #65536	; 0x10000
    40b8:	21a0c82c 	lsrcs	ip, ip, #16
    40bc:	22422010 	subcs	r2, r2, #16
    40c0:	e35c0c01 	cmp	ip, #256	; 0x100
    40c4:	21a0c42c 	lsrcs	ip, ip, #8
    40c8:	22422008 	subcs	r2, r2, #8
    40cc:	e35c0010 	cmp	ip, #16
    40d0:	21a0c22c 	lsrcs	ip, ip, #4
    40d4:	22422004 	subcs	r2, r2, #4
    40d8:	e35c0004 	cmp	ip, #4
    40dc:	22422002 	subcs	r2, r2, #2
    40e0:	304220ac 	subcc	r2, r2, ip, lsr #1
    40e4:	e05221ac 	subs	r2, r2, ip, lsr #3
    40e8:	e0433b82 	sub	r3, r3, r2, lsl #23
    40ec:	ba000006 	blt	410c <__aeabi_l2f+0x90>
    40f0:	e0833211 	add	r3, r3, r1, lsl r2
    40f4:	e1a0c210 	lsl	ip, r0, r2
    40f8:	e2622020 	rsb	r2, r2, #32
    40fc:	e35c0102 	cmp	ip, #-2147483648	; 0x80000000
    4100:	e0a30230 	adc	r0, r3, r0, lsr r2
    4104:	03c00001 	biceq	r0, r0, #1
    4108:	e12fff1e 	bx	lr
    410c:	e2822020 	add	r2, r2, #32
    4110:	e1a0c211 	lsl	ip, r1, r2
    4114:	e2622020 	rsb	r2, r2, #32
    4118:	e190008c 	orrs	r0, r0, ip, lsl #1
    411c:	e0a30231 	adc	r0, r3, r1, lsr r2
    4120:	01c00fac 	biceq	r0, r0, ip, lsr #31
    4124:	e12fff1e 	bx	lr

00004128 <__aeabi_fmul>:
    4128:	e3a0c0ff 	mov	ip, #255	; 0xff
    412c:	e01c2ba0 	ands	r2, ip, r0, lsr #23
    4130:	101c3ba1 	andsne	r3, ip, r1, lsr #23
    4134:	1132000c 	teqne	r2, ip
    4138:	1133000c 	teqne	r3, ip
    413c:	0a00003e 	beq	423c <__aeabi_fmul+0x114>
    4140:	e0822003 	add	r2, r2, r3
    4144:	e020c001 	eor	ip, r0, r1
    4148:	e1b00480 	lsls	r0, r0, #9
    414c:	11b01481 	lslsne	r1, r1, #9
    4150:	0a000010 	beq	4198 <__aeabi_fmul+0x70>
    4154:	e3a03302 	mov	r3, #134217728	; 0x8000000
    4158:	e18302a0 	orr	r0, r3, r0, lsr #5
    415c:	e18312a1 	orr	r1, r3, r1, lsr #5
    4160:	e0813190 	umull	r3, r1, r0, r1
    4164:	e20c0102 	and	r0, ip, #-2147483648	; 0x80000000
    4168:	e3510502 	cmp	r1, #8388608	; 0x800000
    416c:	31a01081 	lslcc	r1, r1, #1
    4170:	31811fa3 	orrcc	r1, r1, r3, lsr #31
    4174:	31a03083 	lslcc	r3, r3, #1
    4178:	e1800001 	orr	r0, r0, r1
    417c:	e2c2207f 	sbc	r2, r2, #127	; 0x7f
    4180:	e35200fd 	cmp	r2, #253	; 0xfd
    4184:	8a00000f 	bhi	41c8 <__aeabi_fmul+0xa0>
    4188:	e3530102 	cmp	r3, #-2147483648	; 0x80000000
    418c:	e0a00b82 	adc	r0, r0, r2, lsl #23
    4190:	03c00001 	biceq	r0, r0, #1
    4194:	e12fff1e 	bx	lr
    4198:	e3300000 	teq	r0, #0
    419c:	e20cc102 	and	ip, ip, #-2147483648	; 0x80000000
    41a0:	01a01481 	lsleq	r1, r1, #9
    41a4:	e18c04a0 	orr	r0, ip, r0, lsr #9
    41a8:	e18004a1 	orr	r0, r0, r1, lsr #9
    41ac:	e252207f 	subs	r2, r2, #127	; 0x7f
    41b0:	c27230ff 	rsbsgt	r3, r2, #255	; 0xff
    41b4:	c1800b82 	orrgt	r0, r0, r2, lsl #23
    41b8:	c12fff1e 	bxgt	lr
    41bc:	e3800502 	orr	r0, r0, #8388608	; 0x800000
    41c0:	e3a03000 	mov	r3, #0
    41c4:	e2522001 	subs	r2, r2, #1
    41c8:	ca000035 	bgt	42a4 <__aeabi_fmul+0x17c>
    41cc:	e3720019 	cmn	r2, #25
    41d0:	d2000102 	andle	r0, r0, #-2147483648	; 0x80000000
    41d4:	d12fff1e 	bxle	lr
    41d8:	e2622000 	rsb	r2, r2, #0
    41dc:	e1b01080 	lsls	r1, r0, #1
    41e0:	e1a01231 	lsr	r1, r1, r2
    41e4:	e2622020 	rsb	r2, r2, #32
    41e8:	e1a0c210 	lsl	ip, r0, r2
    41ec:	e1b00061 	rrxs	r0, r1
    41f0:	e2a00000 	adc	r0, r0, #0
    41f4:	e193308c 	orrs	r3, r3, ip, lsl #1
    41f8:	01c00fac 	biceq	r0, r0, ip, lsr #31
    41fc:	e12fff1e 	bx	lr
    4200:	e3320000 	teq	r2, #0
    4204:	e200c102 	and	ip, r0, #-2147483648	; 0x80000000
    4208:	01a00080 	lsleq	r0, r0, #1
    420c:	03100502 	tsteq	r0, #8388608	; 0x800000
    4210:	02422001 	subeq	r2, r2, #1
    4214:	0afffffb 	beq	4208 <__aeabi_fmul+0xe0>
    4218:	e180000c 	orr	r0, r0, ip
    421c:	e3330000 	teq	r3, #0
    4220:	e201c102 	and	ip, r1, #-2147483648	; 0x80000000
    4224:	01a01081 	lsleq	r1, r1, #1
    4228:	03110502 	tsteq	r1, #8388608	; 0x800000
    422c:	02433001 	subeq	r3, r3, #1
    4230:	0afffffb 	beq	4224 <__aeabi_fmul+0xfc>
    4234:	e181100c 	orr	r1, r1, ip
    4238:	eaffffc0 	b	4140 <__aeabi_fmul+0x18>
    423c:	e00c3ba1 	and	r3, ip, r1, lsr #23
    4240:	e132000c 	teq	r2, ip
    4244:	1133000c 	teqne	r3, ip
    4248:	0a000005 	beq	4264 <__aeabi_fmul+0x13c>
    424c:	e3d0c102 	bics	ip, r0, #-2147483648	; 0x80000000
    4250:	13d1c102 	bicsne	ip, r1, #-2147483648	; 0x80000000
    4254:	1affffe9 	bne	4200 <__aeabi_fmul+0xd8>
    4258:	e0200001 	eor	r0, r0, r1
    425c:	e2000102 	and	r0, r0, #-2147483648	; 0x80000000
    4260:	e12fff1e 	bx	lr
    4264:	e3300000 	teq	r0, #0
    4268:	13300102 	teqne	r0, #-2147483648	; 0x80000000
    426c:	01a00001 	moveq	r0, r1
    4270:	13310000 	teqne	r1, #0
    4274:	13310102 	teqne	r1, #-2147483648	; 0x80000000
    4278:	0a00000d 	beq	42b4 <__aeabi_fmul+0x18c>
    427c:	e132000c 	teq	r2, ip
    4280:	1a000001 	bne	428c <__aeabi_fmul+0x164>
    4284:	e1b02480 	lsls	r2, r0, #9
    4288:	1a000009 	bne	42b4 <__aeabi_fmul+0x18c>
    428c:	e133000c 	teq	r3, ip
    4290:	1a000002 	bne	42a0 <__aeabi_fmul+0x178>
    4294:	e1b03481 	lsls	r3, r1, #9
    4298:	11a00001 	movne	r0, r1
    429c:	1a000004 	bne	42b4 <__aeabi_fmul+0x18c>
    42a0:	e0200001 	eor	r0, r0, r1
    42a4:	e2000102 	and	r0, r0, #-2147483648	; 0x80000000
    42a8:	e380047f 	orr	r0, r0, #2130706432	; 0x7f000000
    42ac:	e3800502 	orr	r0, r0, #8388608	; 0x800000
    42b0:	e12fff1e 	bx	lr
    42b4:	e380047f 	orr	r0, r0, #2130706432	; 0x7f000000
    42b8:	e3800503 	orr	r0, r0, #12582912	; 0xc00000
    42bc:	e12fff1e 	bx	lr

000042c0 <__aeabi_fdiv>:
    42c0:	e3a0c0ff 	mov	ip, #255	; 0xff
    42c4:	e01c2ba0 	ands	r2, ip, r0, lsr #23
    42c8:	101c3ba1 	andsne	r3, ip, r1, lsr #23
    42cc:	1132000c 	teqne	r2, ip
    42d0:	1133000c 	teqne	r3, ip
    42d4:	0a00003a 	beq	43c4 <__aeabi_fdiv+0x104>
    42d8:	e0422003 	sub	r2, r2, r3
    42dc:	e020c001 	eor	ip, r0, r1
    42e0:	e1b01481 	lsls	r1, r1, #9
    42e4:	e1a00480 	lsl	r0, r0, #9
    42e8:	0a00001c 	beq	4360 <__aeabi_fdiv+0xa0>
    42ec:	e3a03201 	mov	r3, #268435456	; 0x10000000
    42f0:	e1831221 	orr	r1, r3, r1, lsr #4
    42f4:	e1833220 	orr	r3, r3, r0, lsr #4
    42f8:	e20c0102 	and	r0, ip, #-2147483648	; 0x80000000
    42fc:	e1530001 	cmp	r3, r1
    4300:	31a03083 	lslcc	r3, r3, #1
    4304:	e2a2207d 	adc	r2, r2, #125	; 0x7d
    4308:	e3a0c502 	mov	ip, #8388608	; 0x800000
    430c:	e1530001 	cmp	r3, r1
    4310:	20433001 	subcs	r3, r3, r1
    4314:	2180000c 	orrcs	r0, r0, ip
    4318:	e15300a1 	cmp	r3, r1, lsr #1
    431c:	204330a1 	subcs	r3, r3, r1, lsr #1
    4320:	218000ac 	orrcs	r0, r0, ip, lsr #1
    4324:	e1530121 	cmp	r3, r1, lsr #2
    4328:	20433121 	subcs	r3, r3, r1, lsr #2
    432c:	2180012c 	orrcs	r0, r0, ip, lsr #2
    4330:	e15301a1 	cmp	r3, r1, lsr #3
    4334:	204331a1 	subcs	r3, r3, r1, lsr #3
    4338:	218001ac 	orrcs	r0, r0, ip, lsr #3
    433c:	e1b03203 	lsls	r3, r3, #4
    4340:	11b0c22c 	lsrsne	ip, ip, #4
    4344:	1afffff0 	bne	430c <__aeabi_fdiv+0x4c>
    4348:	e35200fd 	cmp	r2, #253	; 0xfd
    434c:	8affff9d 	bhi	41c8 <__aeabi_fmul+0xa0>
    4350:	e1530001 	cmp	r3, r1
    4354:	e0a00b82 	adc	r0, r0, r2, lsl #23
    4358:	03c00001 	biceq	r0, r0, #1
    435c:	e12fff1e 	bx	lr
    4360:	e20cc102 	and	ip, ip, #-2147483648	; 0x80000000
    4364:	e18c04a0 	orr	r0, ip, r0, lsr #9
    4368:	e292207f 	adds	r2, r2, #127	; 0x7f
    436c:	c27230ff 	rsbsgt	r3, r2, #255	; 0xff
    4370:	c1800b82 	orrgt	r0, r0, r2, lsl #23
    4374:	c12fff1e 	bxgt	lr
    4378:	e3800502 	orr	r0, r0, #8388608	; 0x800000
    437c:	e3a03000 	mov	r3, #0
    4380:	e2522001 	subs	r2, r2, #1
    4384:	eaffff8f 	b	41c8 <__aeabi_fmul+0xa0>
    4388:	e3320000 	teq	r2, #0
    438c:	e200c102 	and	ip, r0, #-2147483648	; 0x80000000
    4390:	01a00080 	lsleq	r0, r0, #1
    4394:	03100502 	tsteq	r0, #8388608	; 0x800000
    4398:	02422001 	subeq	r2, r2, #1
    439c:	0afffffb 	beq	4390 <__aeabi_fdiv+0xd0>
    43a0:	e180000c 	orr	r0, r0, ip
    43a4:	e3330000 	teq	r3, #0
    43a8:	e201c102 	and	ip, r1, #-2147483648	; 0x80000000
    43ac:	01a01081 	lsleq	r1, r1, #1
    43b0:	03110502 	tsteq	r1, #8388608	; 0x800000
    43b4:	02433001 	subeq	r3, r3, #1
    43b8:	0afffffb 	beq	43ac <__aeabi_fdiv+0xec>
    43bc:	e181100c 	orr	r1, r1, ip
    43c0:	eaffffc4 	b	42d8 <__aeabi_fdiv+0x18>
    43c4:	e00c3ba1 	and	r3, ip, r1, lsr #23
    43c8:	e132000c 	teq	r2, ip
    43cc:	1a000005 	bne	43e8 <__aeabi_fdiv+0x128>
    43d0:	e1b02480 	lsls	r2, r0, #9
    43d4:	1affffb6 	bne	42b4 <__aeabi_fmul+0x18c>
    43d8:	e133000c 	teq	r3, ip
    43dc:	1affffaf 	bne	42a0 <__aeabi_fmul+0x178>
    43e0:	e1a00001 	mov	r0, r1
    43e4:	eaffffb2 	b	42b4 <__aeabi_fmul+0x18c>
    43e8:	e133000c 	teq	r3, ip
    43ec:	1a000003 	bne	4400 <__aeabi_fdiv+0x140>
    43f0:	e1b03481 	lsls	r3, r1, #9
    43f4:	0affff97 	beq	4258 <__aeabi_fmul+0x130>
    43f8:	e1a00001 	mov	r0, r1
    43fc:	eaffffac 	b	42b4 <__aeabi_fmul+0x18c>
    4400:	e3d0c102 	bics	ip, r0, #-2147483648	; 0x80000000
    4404:	13d1c102 	bicsne	ip, r1, #-2147483648	; 0x80000000
    4408:	1affffde 	bne	4388 <__aeabi_fdiv+0xc8>
    440c:	e3d02102 	bics	r2, r0, #-2147483648	; 0x80000000
    4410:	1affffa2 	bne	42a0 <__aeabi_fmul+0x178>
    4414:	e3d13102 	bics	r3, r1, #-2147483648	; 0x80000000
    4418:	1affff8e 	bne	4258 <__aeabi_fmul+0x130>
    441c:	eaffffa4 	b	42b4 <__aeabi_fmul+0x18c>

00004420 <__gesf2>:
    4420:	e3e0c000 	mvn	ip, #0
    4424:	ea000002 	b	4434 <__cmpsf2+0x4>

00004428 <__lesf2>:
    4428:	e3a0c001 	mov	ip, #1
    442c:	ea000000 	b	4434 <__cmpsf2+0x4>

00004430 <__cmpsf2>:
    4430:	e3a0c001 	mov	ip, #1
    4434:	e52dc004 	push	{ip}		; (str ip, [sp, #-4]!)
    4438:	e1a02080 	lsl	r2, r0, #1
    443c:	e1a03081 	lsl	r3, r1, #1
    4440:	e1f0cc42 	mvns	ip, r2, asr #24
    4444:	11f0cc43 	mvnsne	ip, r3, asr #24
    4448:	0a000007 	beq	446c <__cmpsf2+0x3c>
    444c:	e28dd004 	add	sp, sp, #4
    4450:	e192c0a3 	orrs	ip, r2, r3, lsr #1
    4454:	11300001 	teqne	r0, r1
    4458:	50520003 	subspl	r0, r2, r3
    445c:	81a00fc1 	asrhi	r0, r1, #31
    4460:	31e00fc1 	mvncc	r0, r1, asr #31
    4464:	13800001 	orrne	r0, r0, #1
    4468:	e12fff1e 	bx	lr
    446c:	e1f0cc42 	mvns	ip, r2, asr #24
    4470:	1a000001 	bne	447c <__cmpsf2+0x4c>
    4474:	e1b0c480 	lsls	ip, r0, #9
    4478:	1a000003 	bne	448c <__cmpsf2+0x5c>
    447c:	e1f0cc43 	mvns	ip, r3, asr #24
    4480:	1afffff1 	bne	444c <__cmpsf2+0x1c>
    4484:	e1b0c481 	lsls	ip, r1, #9
    4488:	0affffef 	beq	444c <__cmpsf2+0x1c>
    448c:	e49d0004 	pop	{r0}		; (ldr r0, [sp], #4)
    4490:	e12fff1e 	bx	lr

00004494 <__aeabi_cfrcmple>:
    4494:	e1a0c000 	mov	ip, r0
    4498:	e1a00001 	mov	r0, r1
    449c:	e1a0100c 	mov	r1, ip
    44a0:	eaffffff 	b	44a4 <__aeabi_cfcmpeq>

000044a4 <__aeabi_cfcmpeq>:
    44a4:	e92d400f 	push	{r0, r1, r2, r3, lr}
    44a8:	ebffffe0 	bl	4430 <__cmpsf2>
    44ac:	e3500000 	cmp	r0, #0
    44b0:	43700000 	cmnmi	r0, #0
    44b4:	e8bd400f 	pop	{r0, r1, r2, r3, lr}
    44b8:	e12fff1e 	bx	lr

000044bc <__aeabi_fcmpeq>:
    44bc:	e52de008 	str	lr, [sp, #-8]!
    44c0:	ebfffff7 	bl	44a4 <__aeabi_cfcmpeq>
    44c4:	03a00001 	moveq	r0, #1
    44c8:	13a00000 	movne	r0, #0
    44cc:	e49de008 	ldr	lr, [sp], #8
    44d0:	e12fff1e 	bx	lr

000044d4 <__aeabi_fcmplt>:
    44d4:	e52de008 	str	lr, [sp, #-8]!
    44d8:	ebfffff1 	bl	44a4 <__aeabi_cfcmpeq>
    44dc:	33a00001 	movcc	r0, #1
    44e0:	23a00000 	movcs	r0, #0
    44e4:	e49de008 	ldr	lr, [sp], #8
    44e8:	e12fff1e 	bx	lr

000044ec <__aeabi_fcmple>:
    44ec:	e52de008 	str	lr, [sp, #-8]!
    44f0:	ebffffeb 	bl	44a4 <__aeabi_cfcmpeq>
    44f4:	93a00001 	movls	r0, #1
    44f8:	83a00000 	movhi	r0, #0
    44fc:	e49de008 	ldr	lr, [sp], #8
    4500:	e12fff1e 	bx	lr

00004504 <__aeabi_fcmpge>:
    4504:	e52de008 	str	lr, [sp, #-8]!
    4508:	ebffffe1 	bl	4494 <__aeabi_cfrcmple>
    450c:	93a00001 	movls	r0, #1
    4510:	83a00000 	movhi	r0, #0
    4514:	e49de008 	ldr	lr, [sp], #8
    4518:	e12fff1e 	bx	lr

0000451c <__aeabi_fcmpgt>:
    451c:	e52de008 	str	lr, [sp, #-8]!
    4520:	ebffffdb 	bl	4494 <__aeabi_cfrcmple>
    4524:	33a00001 	movcc	r0, #1
    4528:	23a00000 	movcs	r0, #0
    452c:	e49de008 	ldr	lr, [sp], #8
    4530:	e12fff1e 	bx	lr

00004534 <__aeabi_f2uiz>:
    4534:	e1b02080 	lsls	r2, r0, #1
    4538:	2a000008 	bcs	4560 <__aeabi_f2uiz+0x2c>
    453c:	e352047f 	cmp	r2, #2130706432	; 0x7f000000
    4540:	3a000006 	bcc	4560 <__aeabi_f2uiz+0x2c>
    4544:	e3a0309e 	mov	r3, #158	; 0x9e
    4548:	e0532c22 	subs	r2, r3, r2, lsr #24
    454c:	4a000005 	bmi	4568 <__aeabi_f2uiz+0x34>
    4550:	e1a03400 	lsl	r3, r0, #8
    4554:	e3833102 	orr	r3, r3, #-2147483648	; 0x80000000
    4558:	e1a00233 	lsr	r0, r3, r2
    455c:	e12fff1e 	bx	lr
    4560:	e3a00000 	mov	r0, #0
    4564:	e12fff1e 	bx	lr
    4568:	e3720061 	cmn	r2, #97	; 0x61
    456c:	1a000001 	bne	4578 <__aeabi_f2uiz+0x44>
    4570:	e1b02480 	lsls	r2, r0, #9
    4574:	1a000001 	bne	4580 <__aeabi_f2uiz+0x4c>
    4578:	e3e00000 	mvn	r0, #0
    457c:	e12fff1e 	bx	lr
    4580:	e3a00000 	mov	r0, #0
    4584:	e12fff1e 	bx	lr

00004588 <__gnu_mulusq3>:
    4588:	e92d4010 	push	{r4, lr}
    458c:	e3a02000 	mov	r2, #0
    4590:	eb000001 	bl	459c <__gnu_mulhelperusq>
    4594:	e8bd4010 	pop	{r4, lr}
    4598:	e12fff1e 	bx	lr

0000459c <__gnu_mulhelperusq>:
    459c:	e92d4030 	push	{r4, r5, lr}
    45a0:	e3a04102 	mov	r4, #-2147483648	; 0x80000000
    45a4:	e3a05000 	mov	r5, #0
    45a8:	e3a03000 	mov	r3, #0
    45ac:	e0a54091 	umlal	r4, r5, r1, r0
    45b0:	e24dd00c 	sub	sp, sp, #12
    45b4:	e1520003 	cmp	r2, r3
    45b8:	e58d5000 	str	r5, [sp]
    45bc:	e58d3004 	str	r3, [sp, #4]
    45c0:	01a00005 	moveq	r0, r5
    45c4:	0a000002 	beq	45d4 <__gnu_mulhelperusq+0x38>
    45c8:	e1a0000d 	mov	r0, sp
    45cc:	eb00000c 	bl	4604 <__gnu_saturate1usq>
    45d0:	e59d0000 	ldr	r0, [sp]
    45d4:	e28dd00c 	add	sp, sp, #12
    45d8:	e8bd4030 	pop	{r4, r5, lr}
    45dc:	e12fff1e 	bx	lr

000045e0 <__gnu_cmpusq2>:
    45e0:	e1500001 	cmp	r0, r1
    45e4:	3a000004 	bcc	45fc <__gnu_cmpusq2+0x1c>
    45e8:	9a000001 	bls	45f4 <__gnu_cmpusq2+0x14>
    45ec:	e3a00002 	mov	r0, #2
    45f0:	e12fff1e 	bx	lr
    45f4:	e3a00001 	mov	r0, #1
    45f8:	e12fff1e 	bx	lr
    45fc:	e3a00000 	mov	r0, #0
    4600:	e12fff1e 	bx	lr

00004604 <__gnu_saturate1usq>:
    4604:	e3a03000 	mov	r3, #0
    4608:	e3e02000 	mvn	r2, #0
    460c:	e92d0030 	push	{r4, r5}
    4610:	e8900030 	ldm	r0, {r4, r5}
    4614:	e1550003 	cmp	r5, r3
    4618:	01540002 	cmpeq	r4, r2
    461c:	8880000c 	stmhi	r0, {r2, r3}
    4620:	e8bd0030 	pop	{r4, r5}
    4624:	e12fff1e 	bx	lr

00004628 <__gnu_fractsausq>:
    4628:	e1a00880 	lsl	r0, r0, #17
    462c:	e12fff1e 	bx	lr

00004630 <__gnu_fractsasf>:
    4630:	e92d4010 	push	{r4, lr}
    4634:	ebfffe84 	bl	404c <__aeabi_i2f>
    4638:	e3a0130e 	mov	r1, #939524096	; 0x38000000
    463c:	ebfffeb9 	bl	4128 <__aeabi_fmul>
    4640:	e8bd4010 	pop	{r4, lr}
    4644:	e12fff1e 	bx	lr

00004648 <__gnu_fractusqsa>:
    4648:	e1a008a0 	lsr	r0, r0, #17
    464c:	e12fff1e 	bx	lr

00004650 <__gnu_fractsfsa>:
    4650:	e92d4010 	push	{r4, lr}
    4654:	e3a01447 	mov	r1, #1191182336	; 0x47000000
    4658:	ebfffeb2 	bl	4128 <__aeabi_fmul>
    465c:	eb000001 	bl	4668 <__aeabi_f2iz>
    4660:	e8bd4010 	pop	{r4, lr}
    4664:	e12fff1e 	bx	lr

00004668 <__aeabi_f2iz>:
    4668:	e1a02080 	lsl	r2, r0, #1
    466c:	e352047f 	cmp	r2, #2130706432	; 0x7f000000
    4670:	3a000008 	bcc	4698 <__aeabi_f2iz+0x30>
    4674:	e3a0309e 	mov	r3, #158	; 0x9e
    4678:	e0532c22 	subs	r2, r3, r2, lsr #24
    467c:	9a000007 	bls	46a0 <__aeabi_f2iz+0x38>
    4680:	e1a03400 	lsl	r3, r0, #8
    4684:	e3833102 	orr	r3, r3, #-2147483648	; 0x80000000
    4688:	e3100102 	tst	r0, #-2147483648	; 0x80000000
    468c:	e1a00233 	lsr	r0, r3, r2
    4690:	12600000 	rsbne	r0, r0, #0
    4694:	e12fff1e 	bx	lr
    4698:	e3a00000 	mov	r0, #0
    469c:	e12fff1e 	bx	lr
    46a0:	e3720061 	cmn	r2, #97	; 0x61
    46a4:	1a000001 	bne	46b0 <__aeabi_f2iz+0x48>
    46a8:	e1b02480 	lsls	r2, r0, #9
    46ac:	1a000002 	bne	46bc <__aeabi_f2iz+0x54>
    46b0:	e2100102 	ands	r0, r0, #-2147483648	; 0x80000000
    46b4:	03e00102 	mvneq	r0, #-2147483648	; 0x80000000
    46b8:	e12fff1e 	bx	lr
    46bc:	e3a00000 	mov	r0, #0
    46c0:	e12fff1e 	bx	lr
    46c4:	00000000 	andeq	r0, r0, r0

000046c8 <__spin1_exit_from_arm>:
    46c8:	e51ff004 	ldr	pc, [pc, #-4]	; 46cc <__spin1_exit_from_arm+0x4>
    46cc:	00002bdd 	.word	0x00002bdd

000046d0 <__io_printf_from_arm>:
    46d0:	e51ff004 	ldr	pc, [pc, #-4]	; 46d4 <__io_printf_from_arm+0x4>
    46d4:	00002581 	.word	0x00002581

000046d8 <__init_array_end>:
    46d8:	6e697073 	.word	0x6e697073
    46dc:	78655f6e 	.word	0x78655f6e
    46e0:	000a7469 	.word	0x000a7469
    46e4:	726f635b 	.word	0x726f635b
    46e8:	64252065 	.word	0x64252065
    46ec:	2d2d205d 	.word	0x2d2d205d
    46f0:	2d2d2d2d 	.word	0x2d2d2d2d
    46f4:	2d2d2d2d 	.word	0x2d2d2d2d
    46f8:	2d2d2d2d 	.word	0x2d2d2d2d
    46fc:	2d2d2d2d 	.word	0x2d2d2d2d
    4700:	2d2d2d2d 	.word	0x2d2d2d2d
    4704:	00000a2d 	.word	0x00000a2d
    4708:	726f635b 	.word	0x726f635b
    470c:	64252065 	.word	0x64252065
    4710:	7473205d 	.word	0x7473205d
    4714:	69747261 	.word	0x69747261
    4718:	7320676e 	.word	0x7320676e
    471c:	6c756d69 	.word	0x6c756d69
    4720:	6f697461 	.word	0x6f697461
    4724:	00000a6e 	.word	0x00000a6e
    4728:	726f635b 	.word	0x726f635b
    472c:	64252065 	.word	0x64252065
    4730:	7265205d 	.word	0x7265205d
    4734:	20726f72 	.word	0x20726f72
    4738:	6163202d 	.word	0x6163202d
    473c:	746f6e6e 	.word	0x746f6e6e
    4740:	6c6c6120 	.word	0x6c6c6120
    4744:	7461636f 	.word	0x7461636f
    4748:	75622065 	.word	0x75622065
    474c:	72656666 	.word	0x72656666
    4750:	0000000a 	.word	0x0000000a
    4754:	726f635b 	.word	0x726f635b
    4758:	64252065 	.word	0x64252065
    475c:	7464205d 	.word	0x7464205d
    4760:	62206d63 	.word	0x62206d63
    4764:	65666675 	.word	0x65666675
    4768:	20612072 	.word	0x20612072
    476c:	78302040 	.word	0x78302040
    4770:	78383025 	.word	0x78383025
    4774:	0000000a 	.word	0x0000000a
    4778:	726f635b 	.word	0x726f635b
    477c:	64252065 	.word	0x64252065
    4780:	6473205d 	.word	0x6473205d
    4784:	206d6172 	.word	0x206d6172
    4788:	2074756f 	.word	0x2074756f
    478c:	66667562 	.word	0x66667562
    4790:	40207265 	.word	0x40207265
    4794:	25783020 	.word	0x25783020
    4798:	0a783830 	.word	0x0a783830
    479c:	00000000 	.word	0x00000000
    47a0:	726f635b 	.word	0x726f635b
    47a4:	64252065 	.word	0x64252065
    47a8:	6473205d 	.word	0x6473205d
    47ac:	206d6172 	.word	0x206d6172
    47b0:	62206e69 	.word	0x62206e69
    47b4:	65666675 	.word	0x65666675
    47b8:	20402072 	.word	0x20402072
    47bc:	30257830 	.word	0x30257830
    47c0:	000a7838 	.word	0x000a7838
    47c4:	726f635b 	.word	0x726f635b
    47c8:	64252065 	.word	0x64252065
    47cc:	7270205d 	.word	0x7270205d
    47d0:	6c69666f 	.word	0x6c69666f
    47d4:	75622065 	.word	0x75622065
    47d8:	72656666 	.word	0x72656666
    47dc:	30204020 	.word	0x30204020
    47e0:	38302578 	.word	0x38302578
    47e4:	00000a78 	.word	0x00000a78
    47e8:	726f635b 	.word	0x726f635b
    47ec:	64252065 	.word	0x64252065
    47f0:	6973205d 	.word	0x6973205d
    47f4:	616c756d 	.word	0x616c756d
    47f8:	6e6f6974 	.word	0x6e6f6974
    47fc:	73616c20 	.word	0x73616c20
    4800:	20646574 	.word	0x20646574
    4804:	74206425 	.word	0x74206425
    4808:	736b6369 	.word	0x736b6369
    480c:	0000000a 	.word	0x0000000a
    4810:	726f635b 	.word	0x726f635b
    4814:	64252065 	.word	0x64252065
    4818:	7473205d 	.word	0x7473205d
    481c:	6970706f 	.word	0x6970706f
    4820:	7320676e 	.word	0x7320676e
    4824:	6c756d69 	.word	0x6c756d69
    4828:	6f697461 	.word	0x6f697461
    482c:	00000a6e 	.word	0x00000a6e
    4830:	726f635b 	.word	0x726f635b
    4834:	64252065 	.word	0x64252065
    4838:	2d2d205d 	.word	0x2d2d205d
    483c:	2d2d2d2d 	.word	0x2d2d2d2d
    4840:	2d2d2d2d 	.word	0x2d2d2d2d
    4844:	2d2d2d2d 	.word	0x2d2d2d2d
    4848:	2d2d2d2d 	.word	0x2d2d2d2d
    484c:	00000a2d 	.word	0x00000a2d

00004850 <build_name>:
    4850:	5f434849 616f6c66 00000074              IHC_float...

0000485c <build_date>:
    485c:	58ab41a4                                .A.X

00004860 <__exp_hi>:
    4860:	000025ec 00000000 00006715 00000000     .%.......g......
    4870:	00011835 00000000 0002f9af 00000000     5...............
    4880:	00081679 00000000 0015fc21 00000000     y.......!.......
    4890:	003bc2d7 00000000 00a27290 00000000     ..;......r......
    48a0:	01b993fe 00000000 04b0556e 00000000     ........nU......
    48b0:	0cbed866 00000000 22a55547 00000000     f.......GU."....
    48c0:	5e2d58d9 00000000 00000000 00000001     .X-^............
    48d0:	b7e15163 00000002 63992e35 00000007     cQ......5..c....
    48e0:	15e5bf70 00000014 99205c4e 00000036     p.......N\ .6...
    48f0:	69c4cb82 00000094 6dc5690c 00000193     ...i.....i.m....
    4900:	a216abb7 00000448 f53ea386 00000ba4     ....H.....>.....
    4910:	157c4710 00001fa7 773e5415 0000560a     .G|......T>w.V..
    4920:	2447727c 0000e9e2 ca9a6f93 00027bc2     |rG$.....o...{..

00004930 <__expm1_mid>:
    4930:	00000000 0f82a022 1e14aed9 2bc4bf6a     ....".......j..+
    4940:	38a0830b 44b4d690 500dcf51 5ab6c736     ...8...DQ..P6..Z
    4950:	64ba681d 6e22b67a 76f91b66 7f466e01     .h.dz."nf..v.nF.
    4960:	8712fc50 8e669388 954887db 9bbfbbd0     P.....f...H.....

00004970 <leading_terms>:
    4970:	00018000 00018000 00010000 00010000     ................
    4980:	00010000 00000010 0000000e 0000000d     ................
    4990:	0000000b 0000000a 00000000              ............

0000499c <offset>:
    499c:	00001c20 00001880 00001200 00000800      ...............
	...

000049b4 <multiplier>:
    49b4:	00000020 00000010 00000008 00000006      ...............
    49c4:	00000006 00000000                       ........

000049cc <low_values>:
    49cc:	00038000 000215b4 0002011f 0001f4bb     ................
    49dc:	0001ebc4 0001e4b6 0001dee1 0001d9e6     ................
    49ec:	0001d58c 0001d1ad 0001ce31 0001cb04     ........1.......
    49fc:	0001c81a 0001c568 0001c2e6 0001c08e     ....h...........
    4a0c:	0001be59 0001bc45 0001ba4d 0001b86f     Y...E...M...o...
    4a1c:	0001b6a7 0001b4f4 0001b354 0001b1c5     ........T.......
    4a2c:	0001b046 0001aed6 0001ad73 0001ac1c     F.......s.......
    4a3c:	0001aad1 0001a991 0001a85b 0001a72e     ........[.......
    4a4c:	0001a60a 2f637273 6d726f6e 632e6c61     ....src/normal.c
    4a5c:	00000000 464e495b 20205d4f 25282020     ....[INFO]    (%
    4a6c:	34253a73 203a2964 73696854 6e756620     s:%4d): This fun
    4a7c:	6f697463 7369206e 746f6e20 74657920     ction is not yet
    4a8c:	706d6920 656d656c 6465746e 0000000a      implemented....
    4a9c:	4b524153 6970532f 6b614e4e 33007265     SARK/SpiNNaker.3
    4aac:	312e302e 32313000                                .0.1.

00004ab1 <hex>:
    4ab1:	33323130 37363534 62613938 66656463     0123456789abcdef
    4ac1:	5b090900 5f697061 75626564 52205d67     ...[api_debug] R
    4ad1:	6d205254 20202063 61702020 74656b63     TR mc     packet
    4ae1:	25203a73 09000a64 70615b09 65645f69     s: %d....[api_de
    4af1:	5d677562 52545220 64706420 20636d20     bug] RTR dpd mc 
    4b01:	6b636170 3a737465 0a642520 5b090900     packets: %d....[
    4b11:	5f697061 75626564 49205d67 74205253     api_debug] ISR t
    4b21:	776f7268 6170206e 74656b63 25203a73     hrown packets: %
    4b31:	09000a64 70615b09 65645f69 5d677562     d....[api_debug]
    4b41:	52534920 72687420 206e776f 70205246      ISR thrown FR p
    4b51:	656b6361 203a7374 000a6425 615b0909     ackets: %d....[a
    4b61:	645f6970 67756265 4d44205d 75622041     pi_debug] DMA bu
    4b71:	73747372 2520203a 09000a64 70615b09     rsts:  %d....[ap
    4b81:	61775f69 205d6e72 6e726177 3a676e69     i_warn] warning:
    4b91:	73617420 7571206b 20657565 6c6c7566      task queue full
    4ba1:	75252820 09000a29 70615b09 61775f69      (%u)....[api_wa
    4bb1:	205d6e72 6e726177 3a676e69 414d4420     rn] warning: DMA
    4bc1:	65757120 66206575 206c6c75 29752528      queue full (%u)
    4bd1:	0909000a 6970615b 7261775f 77205d6e     ....[api_warn] w
    4be1:	696e7261 203a676e 6b636170 71207465     arning: packet q
    4bf1:	65756575 6c756620 2528206c 000a2975     ueue full (%u)..
