
build/IHC_AN_float_MAP.elf:     file format elf32-littlearm
build/IHC_AN_float_MAP.elf
architecture: armv5te, flags 0x00000112:
EXEC_P, HAS_SYMS, D_PAGED
start address 0x00000000

Program Header:
    LOAD off    0x00010000 vaddr 0x00000000 paddr 0x00000000 align 2**16
         filesz 0x00005509 memsz 0x00005509 flags r-x
    LOAD off    0x00020000 vaddr 0x00400000 paddr 0x00400000 align 2**16
         filesz 0x00000108 memsz 0x00000c64 flags rw-
private flags = 5000200: [Version5 EABI] [soft-float ABI]

Sections:
Idx Name          Size      VMA       LMA       File off  Algn
  0 RO_DATA       00005509  00000000  00000000  00010000  2**3
                  CONTENTS, ALLOC, LOAD, READONLY, CODE
  1 RW_DATA       00000108  00400000  00400000  00020000  2**2
                  CONTENTS, ALLOC, LOAD, DATA
  2 ZI_DATA       00000b5c  00400108  00400108  00020108  2**2
                  ALLOC
  3 .debug_info   00015a1c  00000000  00000000  00020108  2**0
                  CONTENTS, READONLY, DEBUGGING
  4 .debug_abbrev 00002e7e  00000000  00000000  00035b24  2**0
                  CONTENTS, READONLY, DEBUGGING
  5 .debug_loc    000067c3  00000000  00000000  000389a2  2**0
                  CONTENTS, READONLY, DEBUGGING
  6 .debug_aranges 000006f0  00000000  00000000  0003f165  2**0
                  CONTENTS, READONLY, DEBUGGING
  7 .debug_ranges 00000b18  00000000  00000000  0003f855  2**0
                  CONTENTS, READONLY, DEBUGGING
  8 .debug_line   0000282d  00000000  00000000  0004036d  2**0
                  CONTENTS, READONLY, DEBUGGING
  9 .debug_str    00002c73  00000000  00000000  00042b9a  2**0
                  CONTENTS, READONLY, DEBUGGING
 10 .comment      000000dc  00000000  00000000  0004580d  2**0
                  CONTENTS, READONLY
 11 .ARM.attributes 00000029  00000000  00000000  000458e9  2**0
                  CONTENTS, READONLY
 12 .debug_frame  00001ab0  00000000  00000000  00045914  2**2
                  CONTENTS, READONLY, DEBUGGING
SYMBOL TABLE:
00000000 l    d  RO_DATA	00000000 RO_DATA
00400000 l    d  RW_DATA	00000000 RW_DATA
00400108 l    d  ZI_DATA	00000000 ZI_DATA
00000000 l    d  .debug_info	00000000 .debug_info
00000000 l    d  .debug_abbrev	00000000 .debug_abbrev
00000000 l    d  .debug_loc	00000000 .debug_loc
00000000 l    d  .debug_aranges	00000000 .debug_aranges
00000000 l    d  .debug_ranges	00000000 .debug_ranges
00000000 l    d  .debug_line	00000000 .debug_line
00000000 l    d  .debug_str	00000000 .debug_str
00000000 l    d  .comment	00000000 .comment
00000000 l    d  .ARM.attributes	00000000 .ARM.attributes
00000000 l    d  .debug_frame	00000000 .debug_frame
00000000 l    df *ABS*	00000000 sark.o
00000001 l       *ABS*	00000000 GNU
00000000 l       *ABS*	00000000 NULL
80000000 l       *ABS*	00000000 BIT_31
00000001 l       *ABS*	00000000 BUF_WRITE
00000012 l       *ABS*	00000000 NUM_CPUS
00000006 l       *ABS*	00000000 NUM_LINKS
00000000 l       *ABS*	00000000 ITCM_BASE
00008000 l       *ABS*	00000000 ITCM_SIZE
00008000 l       *ABS*	00000000 ITCM_TOP
00400000 l       *ABS*	00000000 DTCM_BASE
00010000 l       *ABS*	00000000 DTCM_SIZE
00410000 l       *ABS*	00000000 DTCM_TOP
70000000 l       *ABS*	00000000 SDRAM_BASE_UNBUF
60000000 l       *ABS*	00000000 SDRAM_BASE_BUF
60000000 l       *ABS*	00000000 SDRAM_BASE
08000000 l       *ABS*	00000000 SDRAM_SIZE
68000000 l       *ABS*	00000000 SDRAM_TOP
f5000000 l       *ABS*	00000000 SYSRAM_BASE_UNBUF
e5000000 l       *ABS*	00000000 SYSRAM_BASE_BUF
e5000000 l       *ABS*	00000000 SYSRAM_BASE
00008000 l       *ABS*	00000000 SYSRAM_SIZE
e5008000 l       *ABS*	00000000 SYSRAM_TOP
f6000000 l       *ABS*	00000000 ROM_BASE
00008000 l       *ABS*	00000000 ROM_SIZE
f6008000 l       *ABS*	00000000 ROM_TOP
10000000 l       *ABS*	00000000 CC_BASE_UNBUF
20000000 l       *ABS*	00000000 CC_BASE_BUF
20000000 l       *ABS*	00000000 CC_BASE
00000000 l       *ABS*	00000000 CC_TCR
00000004 l       *ABS*	00000000 CC_TXDATA
00000008 l       *ABS*	00000000 CC_TXKEY
0000000c l       *ABS*	00000000 CC_RSR
00000010 l       *ABS*	00000000 CC_RXDATA
00000014 l       *ABS*	00000000 CC_RXKEY
00000018 l       *ABS*	00000000 CC_SAR
0000001c l       *ABS*	00000000 CC_TEST
11000000 l       *ABS*	00000000 TIMER_BASE_UNBUF
21000000 l       *ABS*	00000000 TIMER_BASE_BUF
21000000 l       *ABS*	00000000 TIMER_BASE
00000020 l       *ABS*	00000000 TIMER_OFFSET
21000000 l       *ABS*	00000000 TIMER1_BASE
21000020 l       *ABS*	00000000 TIMER2_BASE
00000000 l       *ABS*	00000000 TC_LOAD
00000004 l       *ABS*	00000000 TC_COUNT
00000008 l       *ABS*	00000000 TC_CONTROL
0000000c l       *ABS*	00000000 TC_INT_CLR
00000010 l       *ABS*	00000000 TC_RAW_INT
00000014 l       *ABS*	00000000 TC_MASK_INT
00000018 l       *ABS*	00000000 TC_BG_LOAD
00000000 l       *ABS*	00000000 T1_LOAD
00000004 l       *ABS*	00000000 T1_COUNT
00000008 l       *ABS*	00000000 T1_CONTROL
0000000c l       *ABS*	00000000 T1_INT_CLR
00000010 l       *ABS*	00000000 T1_RAW_INT
00000014 l       *ABS*	00000000 T1_MASK_INT
00000018 l       *ABS*	00000000 T1_BG_LOAD
00000020 l       *ABS*	00000000 T2_LOAD
00000024 l       *ABS*	00000000 T2_COUNT
00000028 l       *ABS*	00000000 T2_CONTROL
0000002c l       *ABS*	00000000 T2_INT_CLR
00000030 l       *ABS*	00000000 T2_RAW_INT
00000034 l       *ABS*	00000000 T2_MASK_INT
00000038 l       *ABS*	00000000 T2_BG_LOAD
1f000000 l       *ABS*	00000000 VIC_BASE_UNBUF
2f000000 l       *ABS*	00000000 VIC_BASE_BUF
2f000000 l       *ABS*	00000000 VIC_BASE
00000000 l       *ABS*	00000000 VIC_IRQST
00000004 l       *ABS*	00000000 VIC_FIQST
00000008 l       *ABS*	00000000 VIC_RAW
0000000c l       *ABS*	00000000 VIC_SELECT
00000010 l       *ABS*	00000000 VIC_ENABLE
00000014 l       *ABS*	00000000 VIC_DISABLE
00000018 l       *ABS*	00000000 VIC_SOFT_SET
0000001c l       *ABS*	00000000 VIC_SOFT_CLR
00000020 l       *ABS*	00000000 VIC_PROTECT
00000030 l       *ABS*	00000000 VIC_VADDR
00000034 l       *ABS*	00000000 VIC_DEFADDR
00000100 l       *ABS*	00000000 VIC_ADDR
00000100 l       *ABS*	00000000 VIC_ADDR0
00000104 l       *ABS*	00000000 VIC_ADDR1
00000108 l       *ABS*	00000000 VIC_ADDR2
0000010c l       *ABS*	00000000 VIC_ADDR3
00000110 l       *ABS*	00000000 VIC_ADDR4
00000114 l       *ABS*	00000000 VIC_ADDR5
00000118 l       *ABS*	00000000 VIC_ADDR6
0000011c l       *ABS*	00000000 VIC_ADDR7
00000120 l       *ABS*	00000000 VIC_ADDR8
00000124 l       *ABS*	00000000 VIC_ADDR9
00000128 l       *ABS*	00000000 VIC_ADDR10
0000012c l       *ABS*	00000000 VIC_ADDR11
00000130 l       *ABS*	00000000 VIC_ADDR12
00000134 l       *ABS*	00000000 VIC_ADDR13
00000138 l       *ABS*	00000000 VIC_ADDR14
0000013c l       *ABS*	00000000 VIC_ADDR15
00000200 l       *ABS*	00000000 VIC_CNTL
00000200 l       *ABS*	00000000 VIC_CNTL0
00000204 l       *ABS*	00000000 VIC_CNTL1
00000208 l       *ABS*	00000000 VIC_CNTL2
0000020c l       *ABS*	00000000 VIC_CNTL3
00000210 l       *ABS*	00000000 VIC_CNTL4
00000214 l       *ABS*	00000000 VIC_CNTL5
00000218 l       *ABS*	00000000 VIC_CNTL6
0000021c l       *ABS*	00000000 VIC_CNTL7
00000220 l       *ABS*	00000000 VIC_CNTL8
00000224 l       *ABS*	00000000 VIC_CNTL9
00000228 l       *ABS*	00000000 VIC_CNTL10
0000022c l       *ABS*	00000000 VIC_CNTL11
00000230 l       *ABS*	00000000 VIC_CNTL12
00000234 l       *ABS*	00000000 VIC_CNTL13
00000238 l       *ABS*	00000000 VIC_CNTL14
0000023c l       *ABS*	00000000 VIC_CNTL15
00000000 l       *ABS*	00000000 WDOG_INT
00000001 l       *ABS*	00000000 SOFTWARE_INT
00000002 l       *ABS*	00000000 COMM_RX_INT
00000003 l       *ABS*	00000000 COMM_TX_INT
00000004 l       *ABS*	00000000 TIMER1_INT
00000005 l       *ABS*	00000000 TIMER2_INT
00000006 l       *ABS*	00000000 CC_RDY_INT
00000007 l       *ABS*	00000000 CC_RPE_INT
00000008 l       *ABS*	00000000 CC_RFE_INT
00000009 l       *ABS*	00000000 CC_TFL_INT
0000000a l       *ABS*	00000000 CC_TOV_INT
0000000b l       *ABS*	00000000 CC_TMT_INT
0000000c l       *ABS*	00000000 DMA_DONE_INT
0000000d l       *ABS*	00000000 DMA_ERR_INT
0000000e l       *ABS*	00000000 DMA_TO_INT
0000000f l       *ABS*	00000000 RTR_DIAG_INT
00000010 l       *ABS*	00000000 RTR_DUMP_INT
00000011 l       *ABS*	00000000 RTR_ERR_INT
00000012 l       *ABS*	00000000 CPU_INT
00000013 l       *ABS*	00000000 ETH_TX_INT
00000014 l       *ABS*	00000000 ETH_RX_INT
00000015 l       *ABS*	00000000 ETH_PHY_INT
00000016 l       *ABS*	00000000 SLOW_CLK_INT
00000017 l       *ABS*	00000000 CC_TNF_INT
00000018 l       *ABS*	00000000 CC_MC_INT
00000019 l       *ABS*	00000000 CC_P2P_INT
0000001a l       *ABS*	00000000 CC_NN_INT
0000001b l       *ABS*	00000000 CC_FR_INT
0000001c l       *ABS*	00000000 INT0_INT
0000001d l       *ABS*	00000000 INT1_INT
0000001e l       *ABS*	00000000 GPIO8_INT
0000001f l       *ABS*	00000000 GPIO9_INT
30000000 l       *ABS*	00000000 DMA_BASE_UNBUF
40000000 l       *ABS*	00000000 DMA_BASE_BUF
40000000 l       *ABS*	00000000 DMA_BASE
00000004 l       *ABS*	00000000 DMA_ADRS
00000008 l       *ABS*	00000000 DMA_ADRT
0000000c l       *ABS*	00000000 DMA_DESC
00000010 l       *ABS*	00000000 DMA_CTRL
00000014 l       *ABS*	00000000 DMA_STAT
00000018 l       *ABS*	00000000 DMA_GCTL
0000001c l       *ABS*	00000000 DMA_CRCC
00000020 l       *ABS*	00000000 DMA_CRCR
00000024 l       *ABS*	00000000 DMA_TMTV
00000028 l       *ABS*	00000000 DMA_SCTL
00000040 l       *ABS*	00000000 DMA_STAT0
00000044 l       *ABS*	00000000 DMA_STAT1
00000048 l       *ABS*	00000000 DMA_STAT2
0000004c l       *ABS*	00000000 DMA_STAT3
00000050 l       *ABS*	00000000 DMA_STAT4
00000054 l       *ABS*	00000000 DMA_STAT5
00000058 l       *ABS*	00000000 DMA_STAT6
0000005c l       *ABS*	00000000 DMA_STAT7
00000104 l       *ABS*	00000000 DMA_AD2S
00000108 l       *ABS*	00000000 DMA_AD2T
0000010c l       *ABS*	00000000 DMA_DES2
00000180 l       *ABS*	00000000 DMA_CRCT
f0000000 l       *ABS*	00000000 PL340_BASE_UNBUF
e0000000 l       *ABS*	00000000 PL340_BASE_BUF
e0000000 l       *ABS*	00000000 PL340_BASE
00000000 l       *ABS*	00000000 MC_STAT
00000004 l       *ABS*	00000000 MC_CMD
00000008 l       *ABS*	00000000 MC_DIRC
0000000c l       *ABS*	00000000 MC_MCFG
00000010 l       *ABS*	00000000 MC_REFP
00000014 l       *ABS*	00000000 MC_CASL
00000018 l       *ABS*	00000000 MC_DQSS
0000001c l       *ABS*	00000000 MC_MRD
00000020 l       *ABS*	00000000 MC_RAS
00000024 l       *ABS*	00000000 MC_RC
00000028 l       *ABS*	00000000 MC_RCD
0000002c l       *ABS*	00000000 MC_RFC
00000030 l       *ABS*	00000000 MC_RP
00000034 l       *ABS*	00000000 MC_RRD
00000038 l       *ABS*	00000000 MC_WR
0000003c l       *ABS*	00000000 MC_WTR
00000040 l       *ABS*	00000000 MC_XP
00000044 l       *ABS*	00000000 MC_XSR
00000048 l       *ABS*	00000000 MC_ESR
0000004c l       *ABS*	00000000 MC_MCFG2
00000050 l       *ABS*	00000000 MC_MCFG3
00000100 l       *ABS*	00000000 MC_QOS0
00000104 l       *ABS*	00000000 MC_QOS1
00000108 l       *ABS*	00000000 MC_QOS2
0000010c l       *ABS*	00000000 MC_QOS3
00000110 l       *ABS*	00000000 MC_QOS4
00000114 l       *ABS*	00000000 MC_QOS5
00000118 l       *ABS*	00000000 MC_QOS6
0000011c l       *ABS*	00000000 MC_QOS7
00000120 l       *ABS*	00000000 MC_QOS8
00000124 l       *ABS*	00000000 MC_QOS9
00000128 l       *ABS*	00000000 MC_QOS10
0000012c l       *ABS*	00000000 MC_QOS11
00000130 l       *ABS*	00000000 MC_QOS12
00000134 l       *ABS*	00000000 MC_QOS13
00000138 l       *ABS*	00000000 MC_QOS14
0000013c l       *ABS*	00000000 MC_QOS15
00000200 l       *ABS*	00000000 MC_CCFG0
00000204 l       *ABS*	00000000 MC_CCFG1
00000208 l       *ABS*	00000000 MC_CCFG2
0000020c l       *ABS*	00000000 MC_CCFG3
00000300 l       *ABS*	00000000 DLL_STATUS
00000304 l       *ABS*	00000000 DLL_CONFIG0
00000308 l       *ABS*	00000000 DLL_CONFIG1
f1000000 l       *ABS*	00000000 RTR_BASE_UNBUF
e1000000 l       *ABS*	00000000 RTR_BASE_BUF
e1000000 l       *ABS*	00000000 RTR_BASE
00000000 l       *ABS*	00000000 RTR_CONTROL
00000004 l       *ABS*	00000000 RTR_STATUS
00000008 l       *ABS*	00000000 RTR_EHDR
0000000c l       *ABS*	00000000 RTR_EKEY
00000010 l       *ABS*	00000000 RTR_EDAT
00000014 l       *ABS*	00000000 RTR_ESTAT
00000018 l       *ABS*	00000000 RTR_DHDR
0000001c l       *ABS*	00000000 RTR_DKEY
00000020 l       *ABS*	00000000 RTR_DDAT
00000024 l       *ABS*	00000000 RTR_DLINK
00000028 l       *ABS*	00000000 RTR_DSTAT
0000002c l       *ABS*	00000000 RTR_DGEN
00000084 l       *ABS*	00000000 RTR_FR
00000200 l       *ABS*	00000000 RTR_DGF0
00000204 l       *ABS*	00000000 RTR_DGF1
00000208 l       *ABS*	00000000 RTR_DGF2
0000020c l       *ABS*	00000000 RTR_DGF3
00000210 l       *ABS*	00000000 RTR_DGF4
00000214 l       *ABS*	00000000 RTR_DGF5
00000218 l       *ABS*	00000000 RTR_DGF6
0000021c l       *ABS*	00000000 RTR_DGF7
00000220 l       *ABS*	00000000 RTR_DGF8
00000224 l       *ABS*	00000000 RTR_DGF9
00000228 l       *ABS*	00000000 RTR_DGF10
0000022c l       *ABS*	00000000 RTR_DGF11
00000230 l       *ABS*	00000000 RTR_DGF12
00000234 l       *ABS*	00000000 RTR_DGF13
00000238 l       *ABS*	00000000 RTR_DGF14
0000023c l       *ABS*	00000000 RTR_DGF15
00000300 l       *ABS*	00000000 RTR_DGC0
00000304 l       *ABS*	00000000 RTR_DGC1
00000308 l       *ABS*	00000000 RTR_DGC2
0000030c l       *ABS*	00000000 RTR_DGC3
00000310 l       *ABS*	00000000 RTR_DGC4
00000314 l       *ABS*	00000000 RTR_DGC5
00000318 l       *ABS*	00000000 RTR_DGC6
0000031c l       *ABS*	00000000 RTR_DGC7
00000320 l       *ABS*	00000000 RTR_DGC8
00000324 l       *ABS*	00000000 RTR_DGC9
00000328 l       *ABS*	00000000 RTR_DGC10
0000032c l       *ABS*	00000000 RTR_DGC11
00000330 l       *ABS*	00000000 RTR_DGC12
00000334 l       *ABS*	00000000 RTR_DGC13
00000338 l       *ABS*	00000000 RTR_DGC14
0000033c l       *ABS*	00000000 RTR_DGC15
00000f00 l       *ABS*	00000000 RTR_TST1
00000f04 l       *ABS*	00000000 RTR_TST2
00002000 l       *ABS*	00000000 P2P_TABLE_SIZE
00000400 l       *ABS*	00000000 MC_TABLE_SIZE
00000018 l       *ABS*	00000000 MC_RAM_WIDTH
00ffffff l       *ABS*	00000000 MC_RAM_MASK
00000008 l       *ABS*	00000000 P2P_EPW
00000003 l       *ABS*	00000000 P2P_LOG_EPW
00000007 l       *ABS*	00000000 P2P_EMASK
00000003 l       *ABS*	00000000 P2P_BPE
00000007 l       *ABS*	00000000 P2P_BMASK
00db6db6 l       *ABS*	00000000 P2P_INIT
e1004000 l       *ABS*	00000000 RTR_MCRAM_BASE
e1005000 l       *ABS*	00000000 RTR_MCRAM_TOP
e1008000 l       *ABS*	00000000 RTR_MCKEY_BASE
e1009000 l       *ABS*	00000000 RTR_MCKEY_TOP
e100c000 l       *ABS*	00000000 RTR_MCMASK_BASE
e100d000 l       *ABS*	00000000 RTR_MCMASK_TOP
e1010000 l       *ABS*	00000000 RTR_P2P_BASE
e1018000 l       *ABS*	00000000 RTR_P2P_TOP
00000020 l       *ABS*	00000000 MC_CAM_WIDTH
f2000000 l       *ABS*	00000000 SYSCTL_BASE_UNBUF
e2000000 l       *ABS*	00000000 SYSCTL_BASE_BUF
e2000000 l       *ABS*	00000000 SYSCTL_BASE
5ec00000 l       *ABS*	00000000 SC_CODE
59111012 l       *ABS*	00000000 CHIP_ID_CODE
00000000 l       *ABS*	00000000 SC_CHIP_ID
00000004 l       *ABS*	00000000 SC_CPU_DIS
00000008 l       *ABS*	00000000 SC_SET_IRQ
0000000c l       *ABS*	00000000 SC_CLR_IRQ
00000010 l       *ABS*	00000000 SC_SET_OK
00000010 l       *ABS*	00000000 SC_CPU_OK
00000014 l       *ABS*	00000000 SC_CLR_OK
00000018 l       *ABS*	00000000 SC_SOFT_RST_L
0000001c l       *ABS*	00000000 SC_HARD_RST_L
00000020 l       *ABS*	00000000 SC_SUBS_RST_L
00000024 l       *ABS*	00000000 SC_SOFT_RST_P
00000028 l       *ABS*	00000000 SC_HARD_RST_P
0000002c l       *ABS*	00000000 SC_SUBS_RST_P
00000030 l       *ABS*	00000000 SC_RST_CODE
00000034 l       *ABS*	00000000 SC_MON_ID
00000038 l       *ABS*	00000000 SC_MISC_CTRL
0000003c l       *ABS*	00000000 GPIO_RES
00000040 l       *ABS*	00000000 GPIO_PORT
00000044 l       *ABS*	00000000 GPIO_DIR
00000048 l       *ABS*	00000000 GPIO_SET
0000004c l       *ABS*	00000000 GPIO_CLR
00000048 l       *ABS*	00000000 GPIO_READ
00000050 l       *ABS*	00000000 SC_PLL1
00000054 l       *ABS*	00000000 SC_PLL2
00000058 l       *ABS*	00000000 SC_FLAG
00000058 l       *ABS*	00000000 SC_SETFLAG
0000005c l       *ABS*	00000000 SC_CLRFLAG
00000060 l       *ABS*	00000000 SC_CLKMUX
00000064 l       *ABS*	00000000 SC_SLEEP
00000068 l       *ABS*	00000000 SC_TS0
0000006c l       *ABS*	00000000 SC_TS1
00000070 l       *ABS*	00000000 SC_TS2
00000080 l       *ABS*	00000000 SC_ARB0
00000100 l       *ABS*	00000000 SC_TAS0
00000180 l       *ABS*	00000000 SC_TAC0
00000200 l       *ABS*	00000000 SC_LINK_DIS
00000000 l       *ABS*	00000000 RST_POR
00000001 l       *ABS*	00000000 RST_WDT
00000002 l       *ABS*	00000000 RST_USER
00000003 l       *ABS*	00000000 RST_SW
00000004 l       *ABS*	00000000 RST_WDI
f3000000 l       *ABS*	00000000 WDOG_BASE_UNBUF
e3000000 l       *ABS*	00000000 WDOG_BASE_BUF
e3000000 l       *ABS*	00000000 WDOG_BASE
00000000 l       *ABS*	00000000 WD_LOAD
00000004 l       *ABS*	00000000 WD_COUNT
00000008 l       *ABS*	00000000 WD_CTRL
0000000c l       *ABS*	00000000 WD_INTCLR
00000010 l       *ABS*	00000000 WD_RAWINT
00000014 l       *ABS*	00000000 WD_MSKINT
00000c00 l       *ABS*	00000000 WD_LOCK
1acce551 l       *ABS*	00000000 WD_CODE
00000001 l       *ABS*	00000000 WD_INT_B
00000002 l       *ABS*	00000000 WD_RST_B
f4000000 l       *ABS*	00000000 ETH_BASE_UNBUF
e4000000 l       *ABS*	00000000 ETH_BASE_BUF
e4000000 l       *ABS*	00000000 ETH_BASE
e4000000 l       *ABS*	00000000 ETH_TX_BASE
00000600 l       *ABS*	00000000 ETH_TX_SIZE
e4000600 l       *ABS*	00000000 ETH_TX_TOP
e4004000 l       *ABS*	00000000 ETH_RX_BASE
00000c00 l       *ABS*	00000000 ETH_RX_SIZE
e4004c00 l       *ABS*	00000000 ETH_RX_TOP
e4008000 l       *ABS*	00000000 ETH_RX_DESC_RAM
e400c000 l       *ABS*	00000000 ETH_REGS
00000000 l       *ABS*	00000000 ETH_CONTROL
00000004 l       *ABS*	00000000 ETH_STATUS
00000008 l       *ABS*	00000000 ETH_TX_LEN
0000000c l       *ABS*	00000000 ETH_TX_CMD
00000010 l       *ABS*	00000000 ETH_RX_CMD
00000014 l       *ABS*	00000000 ETH_MAC_LO
00000018 l       *ABS*	00000000 ETH_MAC_HI
0000001c l       *ABS*	00000000 ETH_PHY_CTRL
00000020 l       *ABS*	00000000 ETH_INT_CLR
00000024 l       *ABS*	00000000 ETH_RX_BUF_RP
0000002c l       *ABS*	00000000 ETH_RX_DESC_RP
00000001 l       *ABS*	00000000 ETH_TX_CLR
00000010 l       *ABS*	00000000 ETH_RX_CLR
00000001 l       *ABS*	00000000 PHY_CTRL_NRST
00000002 l       *ABS*	00000000 PHY_CTRL_DIN
00000004 l       *ABS*	00000000 PHY_CTRL_DOUT
00000008 l       *ABS*	00000000 PHY_CTRL_OE
00000010 l       *ABS*	00000000 PHY_CTRL_CLK
00000000 l       *ABS*	00000000 PKT_MC
00400000 l       *ABS*	00000000 PKT_P2P
00800000 l       *ABS*	00000000 PKT_NN
00a00000 l       *ABS*	00000000 PKT_NND
00c00000 l       *ABS*	00000000 PKT_FR
00020000 l       *ABS*	00000000 PKT_PL
00020000 l       *ABS*	00000000 PKT_MC_PL
00420000 l       *ABS*	00000000 PKT_P2P_PL
00820000 l       *ABS*	00000000 PKT_NN_PL
00c20000 l       *ABS*	00000000 PKT_FR_PL
0000000a l       *ABS*	00000000 CLK_XTAL_MHZ
0007011a l       *ABS*	00000000 PLL_260
0007011e l       *ABS*	00000000 PLL_300
00070121 l       *ABS*	00000000 PLL_330
00070128 l       *ABS*	00000000 PLL_400
00000050 l       *ABS*	00000000 PLL_LOCK_TIME
809488a5 l       *ABS*	00000000 PLL_CLK_SEL
00000020 l       *ABS*	00000000 SERIAL_NCS
00000010 l       *ABS*	00000000 SERIAL_CLK
00000008 l       *ABS*	00000000 SERIAL_SI
00000004 l       *ABS*	00000000 SERIAL_SO
00000038 l       *ABS*	00000000 SERIAL_OE
80000000 l       *ABS*	00000000 SDRAM_TQ
40000000 l       *ABS*	00000000 SDRAM_DPD
20000000 l       *ABS*	00000000 SDRAM_HERE
08000000 l       *ABS*	00000000 JTAG_NTRST
04000000 l       *ABS*	00000000 JTAG_TMS
02000000 l       *ABS*	00000000 JTAG_TDI
01000000 l       *ABS*	00000000 JTAG_TCK
00100000 l       *ABS*	00000000 JTAG_RTCK
00080000 l       *ABS*	00000000 JTAG_TDO
00008000 l       *ABS*	00000000 JTAG_INT
00000001 l       *ABS*	00000000 LED_0
00000010 l       *ABS*	00000000 MODE_USER
00000011 l       *ABS*	00000000 MODE_FIQ
00000012 l       *ABS*	00000000 MODE_IRQ
00000013 l       *ABS*	00000000 MODE_SVC
00000017 l       *ABS*	00000000 MODE_ABT
0000001b l       *ABS*	00000000 MODE_UND
0000001f l       *ABS*	00000000 MODE_SYS
00000020 l       *ABS*	00000000 THUMB_BIT
00000080 l       *ABS*	00000000 IMASK_IRQ
00000040 l       *ABS*	00000000 IMASK_FIQ
000000c0 l       *ABS*	00000000 IMASK_ALL
00000001 l       *ABS*	00000000 SARK_EVENT
00000180 l       *ABS*	00000000 SVC_STACK
00000100 l       *ABS*	00000000 IRQ_STACK
00000100 l       *ABS*	00000000 FIQ_STACK
00000004 l       *ABS*	00000000 NUM_SDP_MSGS
0000000f l       *ABS*	00000000 SARK_SLOT
00000010 l       *ABS*	00000000 INIT_EVENTS
deaddead l       *ABS*	00000000 DEAD_WORD
00000001 l       *ABS*	00000000 APLX_ACOPY
00000002 l       *ABS*	00000000 APLX_RCOPY
00000003 l       *ABS*	00000000 APLX_FILL
00000004 l       *ABS*	00000000 APLX_EXEC
000000ff l       *ABS*	00000000 APLX_END
00000010 l       *ABS*	00000000 APLX_ENTRY_SIZE
00000040 l       *ABS*	00000000 APLX_BUF_SIZE
00007fc0 l       *ABS*	00000000 APLX_BUFFER
000000ff l       *ABS*	00000000 TAG_NONE
00000000 l       *ABS*	00000000 TAG_HOST
00000001 l       *ABS*	00000000 RTR_ALLOC_FIRST
00000400 l       *ABS*	00000000 RTR_ALLOC_LAST
000003ff l       *ABS*	00000000 RTR_ALLOC_MAX
00000001 l       *ABS*	00000000 ALLOC_LOCK
00000002 l       *ABS*	00000000 ALLOC_ID
00000005 l       *ABS*	00000000 A_LOCK_SEMA
00000001 l       *ABS*	00000000 A_RTE_RESET
00000002 l       *ABS*	00000000 A_RTE_UNDEF
00000003 l       *ABS*	00000000 A_RTE_SVC
00000004 l       *ABS*	00000000 A_RTE_PABT
00000005 l       *ABS*	00000000 A_RTE_DABT
00000006 l       *ABS*	00000000 A_RTE_IRQ
00000007 l       *ABS*	00000000 A_RTE_FIQ
00000008 l       *ABS*	00000000 A_RTE_VIC
00000002 l       *ABS*	00000000 A_STATE_RTE
00000006 l       *ABS*	00000000 EVENT_COUNT
00000000 l       *ABS*	00000000 CMD_VER
00000001 l       *ABS*	00000000 CMD_RUN
00000002 l       *ABS*	00000000 CMD_READ
00000003 l       *ABS*	00000000 CMD_WRITE
00000004 l       *ABS*	00000000 CMD_APLX
00000005 l       *ABS*	00000000 CMD_FILL
00000010 l       *ABS*	00000000 CMD_REMAP
00000011 l       *ABS*	00000000 CMD_LINK_READ
00000012 l       *ABS*	00000000 CMD_LINK_WRITE
00000013 l       *ABS*	00000000 CMD_AR
00000014 l       *ABS*	00000000 CMD_NNP
00000016 l       *ABS*	00000000 CMD_SIG
00000017 l       *ABS*	00000000 CMD_FFD
00000018 l       *ABS*	00000000 CMD_AS
00000019 l       *ABS*	00000000 CMD_LED
0000001a l       *ABS*	00000000 CMD_IPTAG
0000001b l       *ABS*	00000000 CMD_SROM
0000001c l       *ABS*	00000000 CMD_ALLOC
0000001d l       *ABS*	00000000 CMD_RTR
0000001f l       *ABS*	00000000 CMD_INFO
00000040 l       *ABS*	00000000 CMD_TUBE
00000080 l       *ABS*	00000000 RC_OK
00000081 l       *ABS*	00000000 RC_LEN
00000082 l       *ABS*	00000000 RC_SUM
00000083 l       *ABS*	00000000 RC_CMD
00000084 l       *ABS*	00000000 RC_ARG
00000085 l       *ABS*	00000000 RC_PORT
00000086 l       *ABS*	00000000 RC_TIMEOUT
00000087 l       *ABS*	00000000 RC_ROUTE
00000088 l       *ABS*	00000000 RC_CPU
00000089 l       *ABS*	00000000 RC_DEAD
0000008a l       *ABS*	00000000 RC_BUF
0000008b l       *ABS*	00000000 RC_P2P_NOREPLY
0000008c l       *ABS*	00000000 RC_P2P_REJECT
0000008d l       *ABS*	00000000 RC_P2P_BUSY
0000008e l       *ABS*	00000000 RC_P2P_TIMEOUT
0000008f l       *ABS*	00000000 RC_PKT_TX
00000000 l       *ABS*	00000000 TYPE_BYTE
00000001 l       *ABS*	00000000 TYPE_HALF
00000002 l       *ABS*	00000000 TYPE_WORD
00000008 l       *ABS*	00000000 NUM_SDP_PORTS
00000005 l       *ABS*	00000000 PORT_SHIFT
000000e0 l       *ABS*	00000000 PORT_MASK
0000001f l       *ABS*	00000000 CPU_MASK
000000ff l       *ABS*	00000000 PORT_ETH
00000100 l       *ABS*	00000000 SDP_BUF_SIZE
00000080 l       *ABS*	00000000 VCPU_SIZE
0000002c l       *ABS*	00000000 VCPU_RT_CODE
0000002e l       *ABS*	00000000 VCPU_CPU_STATE
0000002f l       *ABS*	00000000 VCPU_APP_ID
0000001c l       *ABS*	00000000 SARK_MSG_INT
0000001d l       *ABS*	00000000 SARK_SIG_INT
00000000 l       *ABS*	00000000 SARK_VIRT_CPU
00000008 l       *ABS*	00000000 SARK_RANDOM
00000030 l       *ABS*	00000000 SARK_CPU_CLK
00000020 l       *ABS*	00000000 SV_SSIZE
00000060 l       *ABS*	00000000 SV_USIZE
00000080 l       *ABS*	00000000 SV_ISIZE
00000020 l       *ABS*	00000000 SV_VSIZE
00000040 l       *ABS*	00000000 SV_RSIZE
00001000 l       *ABS*	00000000 SV_SIZE
e5007fe0 l       *ABS*	00000000 SV_SROM
e5007f80 l       *ABS*	00000000 SV_UBASE
e5007f00 l       *ABS*	00000000 SV_IBASE
e5007f00 l       *ABS*	00000000 SV_SV
00000100 l       *ABS*	00000000 SYS_BOOT
e5007000 l       *ABS*	00000000 SYS_USER_TOP
e5000100 l       *ABS*	00000000 SYS_USER_BASE
e5007ee0 l       *ABS*	00000000 SV_VECTORS
e5007ea0 l       *ABS*	00000000 SV_RANDOM
e5007000 l       *ABS*	00000000 SV_VCPU
e5007900 l       *ABS*	00000000 SV_SPARE
000005a0 l       *ABS*	00000000 SPARE_SIZE
e5007fe0 l       *ABS*	00000000 SROM_FLAG_BASE
e5007f80 l       *ABS*	00000000 STATUS_MAP_BASE
e5007ee0 l       *ABS*	00000000 RST_BLOCK_BASE
00008000 l       *ABS*	00000000 SRF_PRESENT
000000f0 l       *ABS*	00000000 SRF_HW_VER
00000008 l       *ABS*	00000000 SRF_PHY_INIT
00000004 l       *ABS*	00000000 SRF_PHY_RST
00000002 l       *ABS*	00000000 SRF_PHY_WAIT
00000001 l       *ABS*	00000000 SRF_ETH
00000000 l       *ABS*	00000000 SRF_NONE
00000020 l       RO_DATA	00000000 reset_vec
00000004 l       RO_DATA	00000000 undef
00000024 l       RO_DATA	00000000 undef_vec
00000028 l       RO_DATA	00000000 svc_vec
0000002c l       RO_DATA	00000000 pabt_vec
00000030 l       RO_DATA	00000000 dabt_vec
0000003c l       RO_DATA	00000000 fiq_vec
00000078 l       RO_DATA	00000000 reset_entry
000000d8 l       RO_DATA	00000000 undef_error
000000e0 l       RO_DATA	00000000 svc_error
000000e8 l       RO_DATA	00000000 pabt_error
000000f0 l       RO_DATA	00000000 dabt_error
00000034 l       RO_DATA	00000000 aplx_proc
00000038 l       RO_DATA	00000000 irq_vec
000000f8 l       RO_DATA	00000000 irq_error
00000100 l       RO_DATA	00000000 fiq_error
00000040 l       RO_DATA	00000000 svc_stack
00000042 l       RO_DATA	00000000 irq_stack
00000044 l       RO_DATA	00000000 fiq_stack
00000046 l       RO_DATA	00000000 stack_size
00000048 l       RO_DATA	00000000 code_top
0000004c l       RO_DATA	00000000 heap_base
00000050 l       RO_DATA	00000000 stack_top
00000054 l       RO_DATA	00000000 stack_fill
00000058 l       RO_DATA	00000000 num_msgs
00000059 l       RO_DATA	00000000 sark_slot
0000005a l       RO_DATA	00000000 num_events
0000005b l       RO_DATA	00000000 api
0000005c l       RO_DATA	00000000 app_id
0000005d l       RO_DATA	00000000 app_flags
0000005e l       RO_DATA	00000000 __PAD
00000060 l       RO_DATA	00000000 event_vec
000000d0 l       RO_DATA	00000000 reset_error
00000114 l       RO_DATA	00000000 exc_error
00000138 l       RO_DATA	00000000 cc_error
000001ec l       RO_DATA	00000000 lg1
00000228 l       RO_DATA	00000000 ws1
00000288 l       RO_DATA	00000000 wc2
00000270 l       RO_DATA	00000000 wc1
00000368 l       RO_DATA	00000000 aplx_buffer
0000036c l       RO_DATA	00000000 aplx_loader
00000358 l       RO_DATA	00000000 aplx_l0
00000384 l       RO_DATA	00000000 aplx_copy
00000380 l       RO_DATA	00000000 aplx_rcopy
00000392 l       RO_DATA	00000000 aplx_fill
000003a2 l       RO_DATA	00000000 aplx_exec
00000398 l       RO_DATA	00000000 aplx_l1
00000000 l    df *ABS*	00000000 sark_base.c
00000000 l    df *ABS*	00000000 sark_event.c
00000000 l    df *ABS*	00000000 sark_timer.c
00000000 l    df *ABS*	00000000 sark_hw.c
00000000 l    df *ABS*	00000000 sark_isr.c
00000000 l    df *ABS*	00000000 sark_alloc.c
00000000 l    df *ABS*	00000000 sark_io.c
00002b0c l     F RO_DATA	00000040 io_buf_init
00002c38 l     F RO_DATA	000000c4 io_put_fixed
00400190 l     O ZI_DATA	00000004 io_msg
000053b9 l     O RO_DATA	00000011 hex
00400194 l     O ZI_DATA	00000004 io_buf
00400198 l     O ZI_DATA	00000004 buf_ptr
0040019c l     O ZI_DATA	00000004 sp_ptr
00000000 l    df *ABS*	00000000 sark_pkt.c
00000000 l    df *ABS*	00000000 spinn_IHC_AN_softfloat_MAP.c
00000000 l    df *ABS*	00000000 random.c
00400000 l     O RW_DATA	00000004 x.6190
00400004 l     O RW_DATA	00000004 y.6191
00400008 l     O RW_DATA	00000004 z.6192
0040000c l     O RW_DATA	00000004 c.6193
00400010 l     O RW_DATA	00000004 y.6182
00400014 l     O RW_DATA	00000004 w.6184
00400018 l     O RW_DATA	00000004 z.6183
0040001c l     O RW_DATA	00000004 x.6181
00400108 l     O ZI_DATA	00000080 STATE
00400188 l     O ZI_DATA	00000004 state_i.6165
0040018c l     O ZI_DATA	00000004 c.6185
00000000 l    df *ABS*	00000000 stdfix-exp.c
00005168 l     O RO_DATA	000000d0 __exp_hi
00005238 l     O RO_DATA	00000040 __expm1_mid
00000000 l    df *ABS*	00000000 normal.c
00005278 l     O RO_DATA	0000002c leading_terms
000052a4 l     O RO_DATA	00000018 offset
000052bc l     O RO_DATA	00000018 multiplier
000052d4 l     O RO_DATA	00000084 low_values
00400020 l     O RW_DATA	000000dc polynomials
00000000 l    df *ABS*	00000000 spin1_api.c
004001a0 l     O ZI_DATA	00000004 resume_sync
004001a4 l     O ZI_DATA	00000004 timer_tick
004001a8 l     O ZI_DATA	00000004 paused
004001b0 l     O ZI_DATA	00000320 task_queue
004004d0 l     O ZI_DATA	00000004 run
00000000 l    df *ABS*	00000000 spin1_isr.c
00000000 l    df *ABS*	00000000 _udivsi3.o
00003bd4 l       RO_DATA	00000000 .udivsi3_skip_div0_test
00000000 l    df *ABS*	00000000 _dvmd_tls.o
00000000 l    df *ABS*	00000000 _arm_addsubdf3.o
00000000 l    df *ABS*	00000000 _arm_muldivdf3.o
00000000 l    df *ABS*	00000000 _arm_truncdfsf2.o
00000000 l    df *ABS*	00000000 _arm_addsubsf3.o
00000000 l    df *ABS*	00000000 _arm_muldivsf3.o
00000000 l    df *ABS*	00000000 _arm_cmpsf2.o
00000000 l    df *ABS*	00000000 _arm_fixunssfsi.o
00000000 l    df *ABS*	00000000 fixed-bit.c
00000000 l    df *ABS*	00000000 fixed-bit.c
00000000 l    df *ABS*	00000000 fixed-bit.c
00000000 l    df *ABS*	00000000 fixed-bit.c
00000000 l    df *ABS*	00000000 fixed-bit.c
00000000 l    df *ABS*	00000000 fixed-bit.c
00000000 l    df *ABS*	00000000 fixed-bit.c
00000000 l    df *ABS*	00000000 fixed-bit.c
00000000 l    df *ABS*	00000000 _arm_fixsfsi.o
00000000 l    df *ABS*	00000000 memset.c
00000000 l    df *ABS*	00000000 IHC_AN_float_MAP_build.c
00004fa0 l     F RO_DATA	00000008 __spin1_exit_from_arm
00004fa8 l     F RO_DATA	00000008 __io_printf_from_arm
00004fb0 l     F RO_DATA	00000008 __spin1_trigger_user_event_from_arm
004004d4 g     O ZI_DATA	00000004 sdramout_buffer
004009b0 g     O ZI_DATA	00000004 old_vector
000035a0 g     F RO_DATA	0000000a spin1_start
000001d8 g     F RO_DATA	00000000 sark_lock_get
004004d8 g     O ZI_DATA	00000004 dt_spikes
0000372c g     F RO_DATA	00000030 sark_pre_main
0000238c g     F RO_DATA	00000034 sark_shmsg_get
004004dc g     O ZI_DATA	00000034 Cilia
00003654 g     F RO_DATA	0000000c spin1_get_core_id
00400510 g     O ZI_DATA	00000004 max_rate
00003818 g     F RO_DATA	00000074 cc_fr_ready_isr
000001a8 g     F RO_DATA	00000000 spin1_int_enable
00000040 g       *ABS*	00000000 RO_FROM
00000800 g       *ABS*	00000000 STACK_SIZE
000040a8 g     F RO_DATA	00000060 .hidden __floatdidf
0000033e g     F RO_DATA	00000000 sark_bx
00400514 g     O ZI_DATA	00000004 IHCVnow
000032c0 g     F RO_DATA	0000008c spin1_callback_on
00004d64 g     F RO_DATA	00000044 .hidden __gnu_mulhelperusq
00001864 g     F RO_DATA	00000090 app_done
000022c0 g     F RO_DATA	0000002c __norminv_ulrbits
00400518 g     O ZI_DATA	00000004 sdramin_buffer
00000248 g     F RO_DATA	00000000 sark_msg_cpy
000036f8 g     F RO_DATA	00000034 spin1_trigger_user_event
00004a88 g     F RO_DATA	00000160 .hidden __divsf3
0040051c g     O ZI_DATA	00000004 dtcm_buffer_y
0000043c g     F RO_DATA	000000c4 data_read
00002918 g     F RO_DATA	0000003c event_alloc
00003388 g     F RO_DATA	0000006c clean_up
0000231c g     F RO_DATA	0000001e sark_block_init
00004e30 g     F RO_DATA	0000005c .hidden __fixsfsi
00003a54 g     F RO_DATA	00000088 timer1_isr
00001cd0 g     F RO_DATA	00000048 validate_mars_kiss64_seed
000029e4 g     F RO_DATA	00000028 sark_fiq_han
00000010 g       *ABS*	00000000 APLX_ENTRY
0000236c g     F RO_DATA	00000020 sark_msg_free
00003b1c g     F RO_DATA	00000068 soft_int_isr
00002fa4 g     F RO_DATA	00000028 configure_dma_controller
00001e8c g     F RO_DATA	00000140 expk
00004650 g     F RO_DATA	000001bc .hidden __aeabi_fadd
0000464c g     F RO_DATA	000001c0 .hidden __subsf3
000018f4 g     F RO_DATA	000000fc c_main
0000270c g     F RO_DATA	00000170 sark_int
00001a70 g     F RO_DATA	00000084 WELL1024a_simp
00400520 g     O ZI_DATA	00000004 read_switch
00002ffc g     F RO_DATA	0000016c configure_vic
000002dc g     F RO_DATA	00000000 sark_int_han
00400524 g     O ZI_DATA	00000070 Synapse
0000287c g     F RO_DATA	00000058 event_wait
00400594 g     O ZI_DATA	00000004 mICaCurr
00400598 g     O ZI_DATA	00000004 profile_buffer
000026f8 g     F RO_DATA	00000014 sark_wait
00001af4 g     F RO_DATA	0000000c validate_WELL1024a_seed
000001c8 g     F RO_DATA	00000000 spin1_mode_restore
00004ce4 g     F RO_DATA	00000018 .hidden __aeabi_fcmpgt
0000402c g     F RO_DATA	00000028 .hidden __floatsidf
000026e8 g     F RO_DATA	00000010 sark_cmd_fill
0040059c g     O ZI_DATA	00000004 r_max_recip
00002954 g     F RO_DATA	00000050 sark_vic_init
000039dc g     F RO_DATA	00000078 dma_done_fiqsr
00003bd4 g     F RO_DATA	000000f4 .hidden __udivsi3
0000016c g     F RO_DATA	00000000 cpu_shutdown
00004814 g     F RO_DATA	00000020 .hidden __aeabi_i2f
00000500 g     F RO_DATA	000000a8 generateStartupVars
000001c8 g     F RO_DATA	00000000 cpu_int_restore
004009b4 g     O ZI_DATA	00000048 diagnostics
00004bf0 g     F RO_DATA	0000006c .hidden __lesf2
00410000 g       *ABS*	00000000 STACK_TOP
004005a0 g     O ZI_DATA	00000050 ANAvail
004005f0 g     O ZI_DATA	00000004 end_count_process
00400c64 g       ZI_DATA	00000000 HEAP_BASE
00002a0c g     F RO_DATA	000000c8 sark_xalloc
004009fc g     O ZI_DATA	00000004 old_enable
00004008 g     F RO_DATA	00000024 .hidden __aeabi_ui2d
00001d80 g     F RO_DATA	0000001c gaussian_dist_variate
00003cec g     F RO_DATA	00000000 .hidden __aeabi_drsub
00002fcc g     F RO_DATA	00000030 configure_timer1
00000340 g     F RO_DATA	00000000 __gnu_thumb1_case_uqi
004005f4 g     O ZI_DATA	00000004 start_count_process
00004054 g     F RO_DATA	00000040 .hidden __extendsfdf2
00004398 g     F RO_DATA	0000020c .hidden __aeabi_ddiv
00003cf8 g     F RO_DATA	00000310 .hidden __adddf3
00004bf8 g     F RO_DATA	00000064 .hidden __nesf2
00004108 g     F RO_DATA	00000290 .hidden __aeabi_dmul
00400a00 g     O ZI_DATA	00000004 user_arg1
000023c0 g     F RO_DATA	00000024 sark_shmsg_free
004005f8 g     O ZI_DATA	0000003c startupValues
00000310 g     F RO_DATA	00000000 schedule
000038c4 g     F RO_DATA	00000088 cc_tx_empty_isr
00400634 g     O ZI_DATA	00000050 ANCleft
00004008 g     F RO_DATA	00000024 .hidden __floatunsidf
0000012c g     F RO_DATA	00000000 rt_error
00001b94 g     F RO_DATA	00000070 mars_kiss32
000045a4 g     F RO_DATA	000000a0 .hidden __aeabi_d2f
000037e0 g     F RO_DATA	00000038 cc_rx_ready_fiqsr
0000464c g     F RO_DATA	000001c0 .hidden __aeabi_fsub
00003660 g     F RO_DATA	0000000c spin1_get_chip_id
00400100 g     O RW_DATA	00000004 fr_pkt_prio
00004ccc g     F RO_DATA	00000018 .hidden __aeabi_fcmpge
000022f8 g     F RO_DATA	00000010 sark_cpu_state
00400684 g     O ZI_DATA	00000004 dtcm_buffer_b
00004844 g     F RO_DATA	000000ac .hidden __floatdisf
004001ac g     O ZI_DATA	00000001 user_pending
00000fa0 g     F RO_DATA	00000728 process_chan
00001b00 g     F RO_DATA	00000094 WELL1024a_seed
00004be8 g     F RO_DATA	00000074 .hidden __gtsf2
00002028 g     F RO_DATA	00000044 mid_approx
00003cf8 g     F RO_DATA	00000310 .hidden __aeabi_dadd
004000fc g     O RW_DATA	00000004 mc_pkt_prio
00004cb4 g     F RO_DATA	00000018 .hidden __aeabi_fcmple
0000334c g     F RO_DATA	0000000c spin1_get_simulation_time
00004094 g     F RO_DATA	00000074 .hidden __aeabi_ul2d
0000375c g     F RO_DATA	0000000a sark_post_main
0000553c g       *ABS*	00000000 RW_FROM
00400688 g     O ZI_DATA	00000050 CaCurr
00000000 g       RO_DATA	00000000 cpu_reset
000002ac g     F RO_DATA	00000000 sark_div10
004006d8 g     O ZI_DATA	00000004 test_DMA
004006dc g     O ZI_DATA	00000004 index_x
00000108 g       RO_DATA	00000000 vic_error
00002164 g     F RO_DATA	0000015c __norminv_rbits
004006e0 g     O ZI_DATA	00000004 seg_index
00004da8 g     F RO_DATA	00000024 .hidden __gnu_cmpusq2
00400000 g       *ABS*	00000000 DTCM_BASE
004006e4 g     O ZI_DATA	00000050 refrac
00003cf4 g     F RO_DATA	00000314 .hidden __aeabi_dsub
00004094 g     F RO_DATA	00000074 .hidden __floatundidf
00400734 g     O ZI_DATA	00000004 write_switch
00400738 g     O ZI_DATA	00000004 resamp_fac
00005154 g     O RO_DATA	00000010 build_name
00004814 g     F RO_DATA	00000020 .hidden __floatsisf
0000033c  w    F RO_DATA	00000000 sark_config
00001c04 g     F RO_DATA	00000068 mars_kiss64_simp
00004df8 g     F RO_DATA	00000018 .hidden __gnu_fractsasf
00001c6c g     F RO_DATA	00000064 mars_kiss64_seed
00004e30 g     F RO_DATA	0000005c .hidden __aeabi_f2iz
00004bf8 g     F RO_DATA	00000064 .hidden __eqsf2
000028d4 g     F RO_DATA	0000002c event_pause
0040073c g     O ZI_DATA	00000004 start_count_write
00005164 g     O RO_DATA	00000004 build_date
000001fc g     F RO_DATA	00000000 sark_lock_free
00002ad4 g     F RO_DATA	00000018 sark_alloc
00400000 g       *ABS*	00000000 RW_BASE
00004a88 g     F RO_DATA	00000160 .hidden __aeabi_fdiv
00000108 g       ZI_DATA	00000000 RW_LENGTH
0000402c g     F RO_DATA	00000028 .hidden __aeabi_i2d
00003b84 g     F RO_DATA	00000050 soft_int_fiqsr
000031d4 g     F RO_DATA	000000ec dispatch
00000190 g     F RO_DATA	00000000 cpu_init_mode
00004834 g     F RO_DATA	000000bc .hidden __floatundisf
00000258 g     F RO_DATA	00000000 sark_word_cpy
00000040 g       *ABS*	00000000 APLX_SIZE
0000017c g     F RO_DATA	00000000 cpu_sleep
00003ce8  w    F RO_DATA	00000004 .hidden __aeabi_ldiv0
00004398 g     F RO_DATA	0000020c .hidden __divdf3
00400104 g     O RW_DATA	00000004 fiq_event
00400a04 g     O ZI_DATA	00000001 leadAp
004008dc g     O ZI_DATA	0000003c sark
0000480c g     F RO_DATA	00000028 .hidden __aeabi_ui2f
00400740 g     O ZI_DATA	00000004 processing
0000337c g     F RO_DATA	0000000c spin1_set_timer_tick
00004108 g     F RO_DATA	00000290 .hidden __muldf3
00002534 g     F RO_DATA	0000009c sark_msg_send
00400744 g     O ZI_DATA	00000004 end_count_write
000001d0 g     F RO_DATA	00000000 spin1_wfi
000025d0 g     F RO_DATA	00000050 sark_cmd_ver
00004bf8 g     F RO_DATA	00000064 .hidden __cmpsf2
000005a8 g     F RO_DATA	000009f8 app_init
000001d0 g     F RO_DATA	00000000 cpu_wfi
00004e8c g     F RO_DATA	00000114 memset
00002900 g     F RO_DATA	00000018 event_stop
00003168 g     F RO_DATA	00000044 resume
000001b8 g     F RO_DATA	00000000 cpu_int_disable
00004844 g     F RO_DATA	000000ac .hidden __aeabi_l2f
000029a4 g     F RO_DATA	00000040 sark_vic_set
00004bf0 g     F RO_DATA	0000006c .hidden __ltsf2
00002aec g     F RO_DATA	0000001e sark_heap_init
000003a8 g     F RO_DATA	00000094 data_write
0000388c g     F RO_DATA	00000038 cc_fr_ready_fiqsr
00003bd4 g     F RO_DATA	00000000 .hidden __aeabi_uidiv
00003358 g     F RO_DATA	00000024 spin1_exit
00400918 g     O ZI_DATA	00000098 event
00400748 g     O ZI_DATA	00000004 dtcm_buffer_x
000045a4 g     F RO_DATA	000000a0 .hidden __truncdfsf2
00004fb8 g       RO_DATA	00000000 __init_array_end
000040a8 g     F RO_DATA	00000060 .hidden __aeabi_l2d
00002682 g     F RO_DATA	00000066 sark_cmd_write
00003768 g     F RO_DATA	00000078 cc_rx_ready_isr
00004834 g     F RO_DATA	000000bc .hidden __aeabi_ul2f
00004c6c g     F RO_DATA	00000018 .hidden __aeabi_cfcmple
00002400  w    F RO_DATA	00000134 sark_init
000048f0 g     F RO_DATA	00000198 .hidden __mulsf3
000022ec  w    F RO_DATA	0000000c rte_handler
00000350 g     F RO_DATA	00000000 sark_aplx
000033f4 g     F RO_DATA	00000078 report_debug
00002cfc g     F RO_DATA	000002a8 io_printf
00400a08 g     O ZI_DATA	00000148 dma_queue
00000224 g     F RO_DATA	00000000 sark_word_set
000019f0 g     F RO_DATA	00000080 init_WELL1024a_simp
00400b50 g     O ZI_DATA	00000004 old_select
0040074c g     O ZI_DATA	00000004 start_count_read
000020e4 g     F RO_DATA	00000080 central_approx
0000346c g     F RO_DATA	00000048 report_warns
00400750 g     O ZI_DATA	00000004 coreID
00004be8 g     F RO_DATA	00000074 .hidden __gesf2
00001d18 g     F RO_DATA	00000068 exponential_dist_variate
00004644 g     F RO_DATA	000001c8 .hidden __aeabi_frsub
00004c84 g     F RO_DATA	00000018 .hidden __aeabi_fcmpeq
0000394c g     F RO_DATA	00000090 dma_done_isr
00001e04 g     F RO_DATA	00000054 poisson_dist_variate_exp_minus_lambda
00400b54 g     O ZI_DATA	00000004 ticks
000048f0 g     F RO_DATA	00000198 .hidden __aeabi_fmul
00004c5c g     F RO_DATA	00000028 .hidden __aeabi_cfrcmple
0000030c g     F RO_DATA	00000000 null_int_han
000035ac g     F RO_DATA	000000a8 spin1_dma_transfer
0000366c g     F RO_DATA	0000008c schedule_sysmode
00004e18 g     F RO_DATA	00000018 .hidden __gnu_fractsfsa
00400754 g     O ZI_DATA	00000004 chipID
00003adc g     F RO_DATA	00000040 timer1_fiqsr
00400758 g     O ZI_DATA	00000004 dtcm_buffer_a
00004c9c g     F RO_DATA	00000018 .hidden __aeabi_fcmplt
00000210 g     F RO_DATA	00000000 sark_str_cpy
00003cc8 g     F RO_DATA	00000020 .hidden __aeabi_uidivmod
000031ac g     F RO_DATA	00000028 resume_wait
00400108 g       *ABS*	00000000 ZI_BASE
00000000 g       *ABS*	00000000 RO_BASE
000001a8 g     F RO_DATA	00000000 cpu_int_enable
0040075c g     O ZI_DATA	00000050 ANRepro
00400b58 g     O ZI_DATA	00000004 user_arg0
00002308 g     F RO_DATA	00000014 sark_app_lead
00004df0 g     F RO_DATA	00000008 .hidden __gnu_fractsausq
004007ac g     O ZI_DATA	00000004 dt
00004cfc g     F RO_DATA	00000054 .hidden __aeabi_f2uiz
004007b0 g     O ZI_DATA	00000108 preSyn
004008b8 g     O ZI_DATA	00000010 local_seed
00000000 g       *ABS*	00000000 ITCM_BASE
0000480c g     F RO_DATA	00000028 .hidden __floatunsisf
004008c8 g     O ZI_DATA	00000004 index_y
00004c6c g     F RO_DATA	00000018 .hidden __aeabi_cfcmpeq
00004d50 g     F RO_DATA	00000014 .hidden __gnu_mulusq3
000034b4 g     F RO_DATA	000000ec start
004008cc g     O ZI_DATA	00000004 end_count_read
00001e58 g     F RO_DATA	00000034 exp_series
00004dcc g     F RO_DATA	00000024 .hidden __gnu_saturate1usq
00003ce8  w    F RO_DATA	00000004 .hidden __aeabi_idiv0
00004fb8 g       RO_DATA	00000000 __init_array_start
00001fcc g     F RO_DATA	0000005c lo_approx
00004cfc g     F RO_DATA	00000054 .hidden __fixunssfsi
00400b5c g     O ZI_DATA	00000040 callback
0000206c g     F RO_DATA	00000078 tail_approx
000023e4 g     F RO_DATA	0000001c sark_call_cpp_constructors
00001d9c g     F RO_DATA	00000068 poisson_dist_variate
00002b4c g     F RO_DATA	000000ec io_put_char
00004054 g     F RO_DATA	00000040 .hidden __aeabi_f2d
00004e10 g     F RO_DATA	00000008 .hidden __gnu_fractusqsa
004008d0 g     O ZI_DATA	00000004 Fs
00003cf4 g     F RO_DATA	00000314 .hidden __subdf3
000016c8 g     F RO_DATA	0000019c transfer_handler
000001b8 g     F RO_DATA	00000000 spin1_int_disable
004008d4 g     O ZI_DATA	00000004 dtcm_profile_buffer
00004650 g     F RO_DATA	000001bc .hidden __addsf3
00002620 g     F RO_DATA	00000062 sark_cmd_read
00000b5c g       *ABS*	00000000 ZI_LENGTH
0000550c g       RW_DATA	00000000 RO_LENGTH
004008d8 g     O ZI_DATA	00000004 spike_seg_size
0000233c g     F RO_DATA	00000030 sark_msg_get
00400b9c g     O ZI_DATA	000000c8 tx_packet_queue



Disassembly of section RO_DATA:

00000000 <cpu_reset>:
       0:	e59ff018 	ldr	pc, [pc, #24]	; 20 <reset_vec>

00000004 <undef>:
       4:	e59ff018 	ldr	pc, [pc, #24]	; 24 <undef_vec>
       8:	e59ff018 	ldr	pc, [pc, #24]	; 28 <svc_vec>
       c:	e59ff018 	ldr	pc, [pc, #24]	; 2c <pabt_vec>
      10:	e59ff018 	ldr	pc, [pc, #24]	; 30 <dabt_vec>
      14:	ebfffffa 	bl	4 <undef>
      18:	e51ffff0 	ldr	pc, [pc, #-4080]	; fffff030 <ROM_TOP+0x9ff7030>
      1c:	e59ff018 	ldr	pc, [pc, #24]	; 3c <fiq_vec>

00000020 <reset_vec>:
      20:	00000078 	.word	0x00000078

00000024 <undef_vec>:
      24:	000000d8 	.word	0x000000d8

00000028 <svc_vec>:
      28:	000000e0 	.word	0x000000e0

0000002c <pabt_vec>:
      2c:	000000e8 	.word	0x000000e8

00000030 <dabt_vec>:
      30:	000000f0 	.word	0x000000f0

00000034 <aplx_proc>:
      34:	00000351 	.word	0x00000351

00000038 <irq_vec>:
      38:	000000f8 	.word	0x000000f8

0000003c <fiq_vec>:
      3c:	00000100 	.word	0x00000100

00000040 <svc_stack>:
      40:	0060      	.short	0x0060

00000042 <irq_stack>:
      42:	0040      	.short	0x0040

00000044 <fiq_stack>:
      44:	0040      	.short	0x0040

00000046 <stack_size>:
      46:	0800      	.short	0x0800

00000048 <code_top>:
      48:	0000550c 	.word	0x0000550c

0000004c <heap_base>:
      4c:	00400c64 	.word	0x00400c64

00000050 <stack_top>:
      50:	00410000 	.word	0x00410000

00000054 <stack_fill>:
      54:	deaddead 	.word	0xdeaddead

00000058 <num_msgs>:
      58:	04          	.byte	0x04

00000059 <sark_slot>:
      59:	0f          	.byte	0x0f

0000005a <num_events>:
      5a:	10          	.byte	0x10

0000005b <api>:
	...

0000005c <app_id>:
	...

0000005d <app_flags>:
	...

0000005e <__PAD>:
	...

00000060 <event_vec>:
	...

00000078 <reset_entry>:
      78:	e24f1060 	sub	r1, pc, #96	; 0x60
      7c:	e1c103bc 	strh	r0, [r1, #60]	; 0x3c
      80:	e28f0048 	add	r0, pc, #72	; 0x48
      84:	e5810000 	str	r0, [r1]
      88:	e59f00f4 	ldr	r0, [pc, #244]	; 184 <DMA_CRCT+0x4>
      8c:	ee010f10 	mcr	15, 0, r0, cr1, cr0, {0}
      90:	e321f0d3 	msr	CPSR_c, #211	; 0xd3
      94:	e3a0d902 	mov	sp, #32768	; 0x8000
      98:	fa0000a7 	blx	33c <sark_config>
      9c:	e51fd054 	ldr	sp, [pc, #-84]	; 50 <stack_top>
      a0:	e15f26b2 	ldrh	r2, [pc, #-98]	; 46 <stack_size>
      a4:	e51f1058 	ldr	r1, [pc, #-88]	; 54 <stack_fill>
      a8:	e04d0002 	sub	r0, sp, r2
      ac:	eb00005c 	bl	224 <sark_word_set>
      b0:	e1a0000d 	mov	r0, sp
      b4:	fa0008d1 	blx	2400 <sark_init>
      b8:	e121f000 	msr	CPSR_c, r0
      bc:	fa00098d 	blx	26f8 <sark_wait>
      c0:	fa000d99 	blx	372c <sark_pre_main>
      c4:	eb00060a 	bl	18f4 <c_main>
      c8:	fa000da3 	blx	375c <sark_post_main>
      cc:	eb00002a 	bl	17c <cpu_sleep>

000000d0 <reset_error>:
      d0:	e3a00001 	mov	r0, #1
      d4:	ea000014 	b	12c <rt_error>

000000d8 <undef_error>:
      d8:	e3a0b002 	mov	fp, #2
      dc:	ea00000c 	b	114 <exc_error>

000000e0 <svc_error>:
      e0:	e3a0b003 	mov	fp, #3
      e4:	ea00000a 	b	114 <exc_error>

000000e8 <pabt_error>:
      e8:	e3a0b004 	mov	fp, #4
      ec:	ea000008 	b	114 <exc_error>

000000f0 <dabt_error>:
      f0:	e3a0b005 	mov	fp, #5
      f4:	ea000006 	b	114 <exc_error>

000000f8 <irq_error>:
      f8:	e3a0b006 	mov	fp, #6
      fc:	ea000004 	b	114 <exc_error>

00000100 <fiq_error>:
     100:	e3a0b007 	mov	fp, #7
     104:	ea000002 	b	114 <exc_error>

00000108 <vic_error>:
     108:	e3a0b008 	mov	fp, #8
     10c:	e3a0042f 	mov	r0, #788529152	; 0x2f000000
     110:	e5900030 	ldr	r0, [r0, #48]	; 0x30

00000114 <exc_error>:
     114:	e1a0a00e 	mov	sl, lr
     118:	e14f8000 	mrs	r8, SPSR
     11c:	e38890c0 	orr	r9, r8, #192	; 0xc0
     120:	e3c99020 	bic	r9, r9, #32
     124:	e12ff009 	msr	CPSR_fsxc, r9
     128:	ea000002 	b	138 <cc_error>

0000012c <rt_error>:
     12c:	e1a0b000 	mov	fp, r0
     130:	e10f8000 	mrs	r8, CPSR
     134:	e1a0a00e 	mov	sl, lr

00000138 <cc_error>:
     138:	e59fc048 	ldr	ip, [pc, #72]	; 188 <DMA_CRCT+0x8>
     13c:	e59cc000 	ldr	ip, [ip]
     140:	e3a09080 	mov	r9, #128	; 0x80
     144:	e59fe040 	ldr	lr, [pc, #64]	; 18c <DMA_CRCT+0xc>
     148:	e02ee99c 	mla	lr, ip, r9, lr
     14c:	e1a0900d 	mov	r9, sp
     150:	e88e07ff 	stm	lr, {r0, r1, r2, r3, r4, r5, r6, r7, r8, r9, sl}
     154:	e5ceb02c 	strb	fp, [lr, #44]	; 0x2c
     158:	e3a08002 	mov	r8, #2
     15c:	e5ce802e 	strb	r8, [lr, #46]	; 0x2e
     160:	e1a0000b 	mov	r0, fp
     164:	e321f0d3 	msr	CPSR_c, #211	; 0xd3
     168:	fa00085f 	blx	22ec <rte_handler>

0000016c <cpu_shutdown>:
     16c:	e321f0d3 	msr	CPSR_c, #211	; 0xd3
     170:	e3a0042f 	mov	r0, #788529152	; 0x2f000000
     174:	e3e01000 	mvn	r1, #0
     178:	e5801014 	str	r1, [r0, #20]

0000017c <cpu_sleep>:
     17c:	ee070f90 	mcr	15, 0, r0, cr7, cr0, {4}
     180:	eafffffd 	b	17c <cpu_sleep>
     184:	00001f7e 	.word	0x00001f7e
     188:	004008dc 	.word	0x004008dc
     18c:	e5007000 	.word	0xe5007000

00000190 <cpu_init_mode>:
     190:	e10f3000 	mrs	r3, CPSR
     194:	e121f001 	msr	CPSR_c, r1
     198:	e1a0d000 	mov	sp, r0
     19c:	e12ff003 	msr	CPSR_fsxc, r3
     1a0:	e0400102 	sub	r0, r0, r2, lsl #2
     1a4:	e12fff1e 	bx	lr

000001a8 <cpu_int_enable>:
     1a8:	e10f0000 	mrs	r0, CPSR
     1ac:	e3c010c0 	bic	r1, r0, #192	; 0xc0
     1b0:	e121f001 	msr	CPSR_c, r1
     1b4:	e12fff1e 	bx	lr

000001b8 <cpu_int_disable>:
     1b8:	e10f0000 	mrs	r0, CPSR
     1bc:	e38010c0 	orr	r1, r0, #192	; 0xc0
     1c0:	e121f001 	msr	CPSR_c, r1
     1c4:	e12fff1e 	bx	lr

000001c8 <cpu_int_restore>:
     1c8:	e12ff000 	msr	CPSR_fsxc, r0
     1cc:	e12fff1e 	bx	lr

000001d0 <cpu_wfi>:
     1d0:	ee070f90 	mcr	15, 0, r0, cr7, cr0, {4}
     1d4:	e12fff1e 	bx	lr

000001d8 <sark_lock_get>:
     1d8:	e3a0c4e2 	mov	ip, #-503316480	; 0xe2000000
     1dc:	e08cc100 	add	ip, ip, r0, lsl #2
     1e0:	e10f0000 	mrs	r0, CPSR
     1e4:	e38010c0 	orr	r1, r0, #192	; 0xc0
     1e8:	e121f001 	msr	CPSR_c, r1

000001ec <lg1>:
     1ec:	e59c1100 	ldr	r1, [ip, #256]	; 0x100
     1f0:	e3110102 	tst	r1, #-2147483648	; 0x80000000
     1f4:	1afffffc 	bne	1ec <lg1>
     1f8:	e12fff1e 	bx	lr

000001fc <sark_lock_free>:
     1fc:	e3a0c4e2 	mov	ip, #-503316480	; 0xe2000000
     200:	e08c1101 	add	r1, ip, r1, lsl #2
     204:	e5911180 	ldr	r1, [r1, #384]	; 0x180
     208:	e121f000 	msr	CPSR_c, r0
     20c:	e12fff1e 	bx	lr

00000210 <sark_str_cpy>:
     210:	e4d12001 	ldrb	r2, [r1], #1
     214:	e3520000 	cmp	r2, #0
     218:	e4c02001 	strb	r2, [r0], #1
     21c:	1afffffb 	bne	210 <sark_str_cpy>
     220:	e12fff1e 	bx	lr

00000224 <sark_word_set>:
     224:	e1a03001 	mov	r3, r1

00000228 <ws1>:
     228:	e2522010 	subs	r2, r2, #16
     22c:	28a0000a 	stmiacs	r0!, {r1, r3}
     230:	28a0000a 	stmiacs	r0!, {r1, r3}
     234:	2afffffb 	bcs	228 <ws1>
     238:	e1b02e82 	lsls	r2, r2, #29
     23c:	28a0000a 	stmiacs	r0!, {r1, r3}
     240:	48a00002 	stmiami	r0!, {r1}
     244:	e12fff1e 	bx	lr

00000248 <sark_msg_cpy>:
     248:	e2800004 	add	r0, r0, #4
     24c:	e2811004 	add	r1, r1, #4
     250:	e1d120b0 	ldrh	r2, [r1]
     254:	e2822004 	add	r2, r2, #4

00000258 <sark_word_cpy>:
     258:	e3120003 	tst	r2, #3
     25c:	13c22003 	bicne	r2, r2, #3
     260:	12822004 	addne	r2, r2, #4
     264:	e92d4010 	push	{r4, lr}
     268:	e2522020 	subs	r2, r2, #32
     26c:	3a000005 	bcc	288 <wc2>

00000270 <wc1>:
     270:	e8b15018 	ldm	r1!, {r3, r4, ip, lr}
     274:	e8a05018 	stmia	r0!, {r3, r4, ip, lr}
     278:	e8b15018 	ldm	r1!, {r3, r4, ip, lr}
     27c:	e8a05018 	stmia	r0!, {r3, r4, ip, lr}
     280:	e2522020 	subs	r2, r2, #32
     284:	2afffff9 	bcs	270 <wc1>

00000288 <wc2>:
     288:	e1b0ce02 	lsls	ip, r2, #28
     28c:	28b15018 	ldmcs	r1!, {r3, r4, ip, lr}
     290:	28a05018 	stmiacs	r0!, {r3, r4, ip, lr}
     294:	48b10018 	ldmmi	r1!, {r3, r4}
     298:	48a00018 	stmiami	r0!, {r3, r4}
     29c:	e1b0cf02 	lsls	ip, r2, #30
     2a0:	24913004 	ldrcs	r3, [r1], #4
     2a4:	24803004 	strcs	r3, [r0], #4
     2a8:	e8bd8010 	pop	{r4, pc}

000002ac <sark_div10>:
     2ac:	e241200a 	sub	r2, r1, #10
     2b0:	e0411121 	sub	r1, r1, r1, lsr #2
     2b4:	e0811221 	add	r1, r1, r1, lsr #4
     2b8:	e0811421 	add	r1, r1, r1, lsr #8
     2bc:	e0811821 	add	r1, r1, r1, lsr #16
     2c0:	e1a011a1 	lsr	r1, r1, #3
     2c4:	e0813101 	add	r3, r1, r1, lsl #2
     2c8:	e0522083 	subs	r2, r2, r3, lsl #1
     2cc:	52811001 	addpl	r1, r1, #1
     2d0:	4282200a 	addmi	r2, r2, #10
     2d4:	e8800006 	stm	r0, {r1, r2}
     2d8:	e12fff1e 	bx	lr

000002dc <sark_int_han>:
     2dc:	e92d500f 	push	{r0, r1, r2, r3, ip, lr}
     2e0:	e24e0004 	sub	r0, lr, #4
     2e4:	e14fc000 	mrs	ip, SPSR
     2e8:	e321f01f 	msr	CPSR_c, #31
     2ec:	e92d5000 	push	{ip, lr}
     2f0:	fa000905 	blx	270c <sark_int>
     2f4:	e8bd5000 	pop	{ip, lr}
     2f8:	e321f092 	msr	CPSR_c, #146	; 0x92
     2fc:	e16ff00c 	msr	SPSR_fsxc, ip
     300:	e3a0042f 	mov	r0, #788529152	; 0x2f000000
     304:	e5800030 	str	r0, [r0, #48]	; 0x30
     308:	e8bd500f 	pop	{r0, r1, r2, r3, ip, lr}

0000030c <null_int_han>:
     30c:	e25ef004 	subs	pc, lr, #4

00000310 <schedule>:
     310:	e92d5000 	push	{ip, lr}
     314:	e10fc000 	mrs	ip, CPSR
     318:	e3cce01f 	bic	lr, ip, #31
     31c:	e38ee01f 	orr	lr, lr, #31
     320:	e121f00e 	msr	CPSR_c, lr
     324:	e92d5000 	push	{ip, lr}
     328:	fa000ccf 	blx	366c <schedule_sysmode>
     32c:	e8bd5000 	pop	{ip, lr}
     330:	e121f00c 	msr	CPSR_c, ip
     334:	e8bd5000 	pop	{ip, lr}
     338:	e12fff1e 	bx	lr

0000033c <sark_config>:
     33c:	4770      	bx	lr

0000033e <sark_bx>:
     33e:	4700      	bx	r0

00000340 <__gnu_thumb1_case_uqi>:
     340:	468c      	mov	ip, r1
     342:	4671      	mov	r1, lr
     344:	3901      	subs	r1, #1
     346:	5c09      	ldrb	r1, [r1, r0]
     348:	0049      	lsls	r1, r1, #1
     34a:	448e      	add	lr, r1
     34c:	4661      	mov	r1, ip
     34e:	4770      	bx	lr

00000350 <sark_aplx>:
     350:	b5f2      	push	{r1, r4, r5, r6, r7, lr}
     352:	4905      	ldr	r1, [pc, #20]	; (368 <aplx_buffer>)
     354:	a605      	add	r6, pc, #20	; (adr r6, 36c <aplx_loader>)
     356:	2740      	movs	r7, #64	; 0x40

00000358 <aplx_l0>:
     358:	ce3c      	ldmia	r6!, {r2, r3, r4, r5}
     35a:	c13c      	stmia	r1!, {r2, r3, r4, r5}
     35c:	3f10      	subs	r7, #16
     35e:	d1fb      	bne.n	358 <aplx_l0>
     360:	1c04      	adds	r4, r0, #0
     362:	393f      	subs	r1, #63	; 0x3f
     364:	4708      	bx	r1
	...

00000368 <aplx_buffer>:
     368:	00007fc0 	.word	0x00007fc0

0000036c <aplx_loader>:
     36c:	cc0f      	ldmia	r4!, {r0, r1, r2, r3}
     36e:	2801      	cmp	r0, #1
     370:	d008      	beq.n	384 <aplx_copy>
     372:	2802      	cmp	r0, #2
     374:	d004      	beq.n	380 <aplx_rcopy>
     376:	2803      	cmp	r0, #3
     378:	d00b      	beq.n	392 <aplx_fill>
     37a:	2804      	cmp	r0, #4
     37c:	d011      	beq.n	3a2 <aplx_exec>
     37e:	bdf2      	pop	{r1, r4, r5, r6, r7, pc}

00000380 <aplx_rcopy>:
     380:	1912      	adds	r2, r2, r4
     382:	3a10      	subs	r2, #16

00000384 <aplx_copy>:
     384:	cae1      	ldmia	r2!, {r0, r5, r6, r7}
     386:	c1e1      	stmia	r1!, {r0, r5, r6, r7}
     388:	cae1      	ldmia	r2!, {r0, r5, r6, r7}
     38a:	c1e1      	stmia	r1!, {r0, r5, r6, r7}
     38c:	3b20      	subs	r3, #32
     38e:	d8f9      	bhi.n	384 <aplx_copy>
     390:	e7ec      	b.n	36c <aplx_loader>

00000392 <aplx_fill>:
     392:	1c1d      	adds	r5, r3, #0
     394:	1c1e      	adds	r6, r3, #0
     396:	1c1f      	adds	r7, r3, #0

00000398 <aplx_l1>:
     398:	c1e8      	stmia	r1!, {r3, r5, r6, r7}
     39a:	c1e8      	stmia	r1!, {r3, r5, r6, r7}
     39c:	3a20      	subs	r2, #32
     39e:	d8fb      	bhi.n	398 <aplx_l1>
     3a0:	e7e4      	b.n	36c <aplx_loader>

000003a2 <aplx_exec>:
     3a2:	9800      	ldr	r0, [sp, #0]
     3a4:	4788      	blx	r1
     3a6:	e7e1      	b.n	36c <aplx_loader>

000003a8 <data_write>:
     3a8:	e59f306c 	ldr	r3, [pc, #108]	; 41c <MC_TABLE_SIZE+0x1c>
     3ac:	e5933000 	ldr	r3, [r3]
     3b0:	e3530001 	cmp	r3, #1
     3b4:	112fff1e 	bxne	lr
     3b8:	e59f3060 	ldr	r3, [pc, #96]	; 420 <MC_TABLE_SIZE+0x20>
     3bc:	e92d4010 	push	{r4, lr}
     3c0:	e5933000 	ldr	r3, [r3]
     3c4:	e24dd008 	sub	sp, sp, #8
     3c8:	e3530000 	cmp	r3, #0
     3cc:	059f2050 	ldreq	r2, [pc, #80]	; 424 <MC_TABLE_SIZE+0x24>
     3d0:	059f3050 	ldreq	r3, [pc, #80]	; 428 <MC_TABLE_SIZE+0x28>
     3d4:	159f2050 	ldrne	r2, [pc, #80]	; 42c <MC_TABLE_SIZE+0x2c>
     3d8:	159f3050 	ldrne	r3, [pc, #80]	; 430 <MC_TABLE_SIZE+0x30>
     3dc:	e592e000 	ldr	lr, [r2]
     3e0:	e5932000 	ldr	r2, [r3]
     3e4:	e59f3048 	ldr	r3, [pc, #72]	; 434 <MC_TABLE_SIZE+0x34>
     3e8:	e59fc048 	ldr	ip, [pc, #72]	; 438 <MC_TABLE_SIZE+0x38>
     3ec:	e5931000 	ldr	r1, [r3]
     3f0:	e3a00421 	mov	r0, #553648128	; 0x21000000
     3f4:	e3a03001 	mov	r3, #1
     3f8:	e3a04d7d 	mov	r4, #8000	; 0x1f40
     3fc:	e081110e 	add	r1, r1, lr, lsl #2
     400:	e590e024 	ldr	lr, [r0, #36]	; 0x24
     404:	e1a00003 	mov	r0, r3
     408:	e58d4000 	str	r4, [sp]
     40c:	e58ce000 	str	lr, [ip]
     410:	fa000c65 	blx	35ac <spin1_dma_transfer>
     414:	e28dd008 	add	sp, sp, #8
     418:	e8bd8010 	pop	{r4, pc}
     41c:	004006d8 	.word	0x004006d8
     420:	00400734 	.word	0x00400734
     424:	004006dc 	.word	0x004006dc
     428:	00400748 	.word	0x00400748
     42c:	004008c8 	.word	0x004008c8
     430:	0040051c 	.word	0x0040051c
     434:	004004d4 	.word	0x004004d4
     438:	0040073c 	.word	0x0040073c

0000043c <data_read>:
     43c:	e59f309c 	ldr	r3, [pc, #156]	; 4e0 <data_read+0xa4>
     440:	e3a02421 	mov	r2, #553648128	; 0x21000000
     444:	e593c000 	ldr	ip, [r3]
     448:	e59f3094 	ldr	r3, [pc, #148]	; 4e4 <data_read+0xa8>
     44c:	e5922024 	ldr	r2, [r2, #36]	; 0x24
     450:	e35c0001 	cmp	ip, #1
     454:	e92d4030 	push	{r4, r5, lr}
     458:	e1a04000 	mov	r4, r0
     45c:	e24dd00c 	sub	sp, sp, #12
     460:	e5832000 	str	r2, [r3]
     464:	0a00000a 	beq	494 <data_read+0x58>
     468:	e35400c8 	cmp	r4, #200	; 0xc8
     46c:	8a000001 	bhi	478 <data_read+0x3c>
     470:	e28dd00c 	add	sp, sp, #12
     474:	e8bd8030 	pop	{r4, r5, pc}
     478:	e59f1068 	ldr	r1, [pc, #104]	; 4e8 <data_read+0xac>
     47c:	e3a00002 	mov	r0, #2
     480:	fa000a1d 	blx	2cfc <io_printf>
     484:	e3a00000 	mov	r0, #0
     488:	e28dd00c 	add	sp, sp, #12
     48c:	e8bd4030 	pop	{r4, r5, lr}
     490:	ea0012c2 	b	4fa0 <__spin1_exit_from_arm>
     494:	e59fe050 	ldr	lr, [pc, #80]	; 4ec <data_read+0xb0>
     498:	e59f1050 	ldr	r1, [pc, #80]	; 4f0 <data_read+0xb4>
     49c:	e59e3000 	ldr	r3, [lr]
     4a0:	e5911000 	ldr	r1, [r1]
     4a4:	e3530000 	cmp	r3, #0
     4a8:	059f3044 	ldreq	r3, [pc, #68]	; 4f4 <data_read+0xb8>
     4ac:	159f3044 	ldrne	r3, [pc, #68]	; 4f8 <data_read+0xbc>
     4b0:	e3a00e19 	mov	r0, #400	; 0x190
     4b4:	e5932000 	ldr	r2, [r3]
     4b8:	e59f303c 	ldr	r3, [pc, #60]	; 4fc <data_read+0xc0>
     4bc:	13a0c000 	movne	ip, #0
     4c0:	e5935000 	ldr	r5, [r3]
     4c4:	e3a03000 	mov	r3, #0
     4c8:	e58d0000 	str	r0, [sp]
     4cc:	e0211590 	mla	r1, r0, r5, r1
     4d0:	e58ec000 	str	ip, [lr]
     4d4:	e1a00003 	mov	r0, r3
     4d8:	fa000c33 	blx	35ac <spin1_dma_transfer>
     4dc:	eaffffe1 	b	468 <data_read+0x2c>
     4e0:	004006d8 	.word	0x004006d8
     4e4:	0040074c 	.word	0x0040074c
     4e8:	00004fb8 	.word	0x00004fb8
     4ec:	00400520 	.word	0x00400520
     4f0:	00400518 	.word	0x00400518
     4f4:	00400758 	.word	0x00400758
     4f8:	00400684 	.word	0x00400684
     4fc:	004006e0 	.word	0x004006e0

00000500 <generateStartupVars>:
     500:	e59f1074 	ldr	r1, [pc, #116]	; 57c <generateStartupVars+0x7c>
     504:	e59f2074 	ldr	r2, [pc, #116]	; 580 <generateStartupVars+0x80>
     508:	e92d4030 	push	{r4, r5, lr}
     50c:	e59fc070 	ldr	ip, [pc, #112]	; 584 <generateStartupVars+0x84>
     510:	e3a05102 	mov	r5, #-2147483648	; 0x80000000
     514:	e59f406c 	ldr	r4, [pc, #108]	; 588 <generateStartupVars+0x88>
     518:	e59fe06c 	ldr	lr, [pc, #108]	; 58c <generateStartupVars+0x8c>
     51c:	e5801000 	str	r1, [r0]
     520:	e5802004 	str	r2, [r0, #4]
     524:	e59f1064 	ldr	r1, [pc, #100]	; 590 <generateStartupVars+0x90>
     528:	e59f2064 	ldr	r2, [pc, #100]	; 594 <generateStartupVars+0x94>
     52c:	e5805008 	str	r5, [r0, #8]
     530:	e580400c 	str	r4, [r0, #12]
     534:	e3a05441 	mov	r5, #1090519040	; 0x41000000
     538:	e59f4058 	ldr	r4, [pc, #88]	; 598 <generateStartupVars+0x98>
     53c:	e580e010 	str	lr, [r0, #16]
     540:	e580c018 	str	ip, [r0, #24]
     544:	e59fe050 	ldr	lr, [pc, #80]	; 59c <generateStartupVars+0x9c>
     548:	e59fc050 	ldr	ip, [pc, #80]	; 5a0 <SPARE_SIZE>
     54c:	e580101c 	str	r1, [r0, #28]
     550:	e5802020 	str	r2, [r0, #32]
     554:	e59f1048 	ldr	r1, [pc, #72]	; 5a4 <SPARE_SIZE+0x4>
     558:	e3a02000 	mov	r2, #0
     55c:	e5805024 	str	r5, [r0, #36]	; 0x24
     560:	e5804028 	str	r4, [r0, #40]	; 0x28
     564:	e580e030 	str	lr, [r0, #48]	; 0x30
     568:	e580c034 	str	ip, [r0, #52]	; 0x34
     56c:	e5801038 	str	r1, [r0, #56]	; 0x38
     570:	e5802014 	str	r2, [r0, #20]
     574:	e580202c 	str	r2, [r0, #44]	; 0x2c
     578:	e8bd8030 	pop	{r4, r5, pc}
     57c:	3ef6bee8 	.word	0x3ef6bee8
     580:	a7d67ccc 	.word	0xa7d67ccc
     584:	3db582fa 	.word	0x3db582fa
     588:	a88efddd 	.word	0xa88efddd
     58c:	3bd82a26 	.word	0x3bd82a26
     590:	41400000 	.word	0x41400000
     594:	7fc00000 	.word	0x7fc00000
     598:	3d612be7 	.word	0x3d612be7
     59c:	3f3d131a 	.word	0x3f3d131a
     5a0:	bd9ba5e3 	.word	0xbd9ba5e3
     5a4:	bd785f80 	.word	0xbd785f80

000005a8 <app_init>:
     5a8:	e92d4ff0 	push	{r4, r5, r6, r7, r8, r9, sl, fp, lr}
     5ac:	e59f087c 	ldr	r0, [pc, #2172]	; e30 <ETH_RX_SIZE+0x230>
     5b0:	e59fb87c 	ldr	fp, [pc, #2172]	; e34 <ETH_RX_SIZE+0x234>
     5b4:	e59f487c 	ldr	r4, [pc, #2172]	; e38 <ETH_RX_SIZE+0x238>
     5b8:	e59f587c 	ldr	r5, [pc, #2172]	; e3c <ETH_RX_SIZE+0x23c>
     5bc:	e59f787c 	ldr	r7, [pc, #2172]	; e40 <ETH_RX_SIZE+0x240>
     5c0:	e59f187c 	ldr	r1, [pc, #2172]	; e44 <ETH_RX_SIZE+0x244>
     5c4:	e59fe87c 	ldr	lr, [pc, #2172]	; e48 <ETH_RX_SIZE+0x248>
     5c8:	e59fa87c 	ldr	sl, [pc, #2172]	; e4c <ETH_RX_SIZE+0x24c>
     5cc:	e59fc87c 	ldr	ip, [pc, #2172]	; e50 <ETH_RX_SIZE+0x250>
     5d0:	e58ba000 	str	sl, [fp]
     5d4:	e580e000 	str	lr, [r0]
     5d8:	e59f9874 	ldr	r9, [pc, #2164]	; e54 <ETH_RX_SIZE+0x254>
     5dc:	e59f8874 	ldr	r8, [pc, #2164]	; e58 <ETH_RX_SIZE+0x258>
     5e0:	e59f6874 	ldr	r6, [pc, #2164]	; e5c <ETH_RX_SIZE+0x25c>
     5e4:	e3a03005 	mov	r3, #5
     5e8:	e3a0e014 	mov	lr, #20
     5ec:	e59f086c 	ldr	r0, [pc, #2156]	; e60 <ETH_RX_SIZE+0x260>
     5f0:	e59fb86c 	ldr	fp, [pc, #2156]	; e64 <ETH_RX_SIZE+0x264>
     5f4:	e24dd00c 	sub	sp, sp, #12
     5f8:	e5810000 	str	r0, [r1]
     5fc:	e5942000 	ldr	r2, [r4]
     600:	e59fa860 	ldr	sl, [pc, #2144]	; e68 <ETH_RX_SIZE+0x268>
     604:	e5873000 	str	r3, [r7]
     608:	e585e000 	str	lr, [r5]
     60c:	e3a03000 	mov	r3, #0
     610:	e3a0e5be 	mov	lr, #796917760	; 0x2f800000
     614:	e59f1850 	ldr	r1, [pc, #2128]	; e6c <ETH_RX_SIZE+0x26c>
     618:	e3a00002 	mov	r0, #2
     61c:	e58ce000 	str	lr, [ip]
     620:	e5893000 	str	r3, [r9]
     624:	e5883000 	str	r3, [r8]
     628:	e5863000 	str	r3, [r6]
     62c:	e58ba000 	str	sl, [fp]
     630:	fa0009b1 	blx	2cfc <io_printf>
     634:	e5942000 	ldr	r2, [r4]
     638:	e59f1830 	ldr	r1, [pc, #2096]	; e70 <ETH_RX_SIZE+0x270>
     63c:	e3a00002 	mov	r0, #2
     640:	fa0009ad 	blx	2cfc <io_printf>
     644:	e5971000 	ldr	r1, [r7]
     648:	e59f0824 	ldr	r0, [pc, #2084]	; e74 <ETH_RX_SIZE+0x274>
     64c:	eb000d60 	bl	3bd4 <__udivsi3>
     650:	e59f6820 	ldr	r6, [pc, #2080]	; e78 <ETH_RX_SIZE+0x278>
     654:	e5942000 	ldr	r2, [r4]
     658:	e3a03001 	mov	r3, #1
     65c:	e59f8818 	ldr	r8, [pc, #2072]	; e7c <ETH_RX_SIZE+0x27c>
     660:	e59f9818 	ldr	r9, [pc, #2072]	; e80 <ETH_RX_SIZE+0x280>
     664:	e59fa818 	ldr	sl, [pc, #2072]	; e84 <ETH_RX_SIZE+0x284>
     668:	e59fb818 	ldr	fp, [pc, #2072]	; e88 <ETH_RX_SIZE+0x288>
     66c:	e1a01100 	lsl	r1, r0, #2
     670:	e596004c 	ldr	r0, [r6, #76]	; 0x4c
     674:	fa0008e4 	blx	2a0c <sark_xalloc>
     678:	e59fc80c 	ldr	ip, [pc, #2060]	; e8c <ETH_RX_SIZE+0x28c>
     67c:	e5942000 	ldr	r2, [r4]
     680:	e3a03001 	mov	r3, #1
     684:	e3822020 	orr	r2, r2, #32
     688:	e59f1800 	ldr	r1, [pc, #2048]	; e90 <ETH_RX_SIZE+0x290>
     68c:	e58c0000 	str	r0, [ip]
     690:	e596004c 	ldr	r0, [r6, #76]	; 0x4c
     694:	fa0008dc 	blx	2a0c <sark_xalloc>
     698:	e59fc7f4 	ldr	ip, [pc, #2036]	; e94 <ETH_RX_SIZE+0x294>
     69c:	e5942000 	ldr	r2, [r4]
     6a0:	e3a03001 	mov	r3, #1
     6a4:	e3822040 	orr	r2, r2, #64	; 0x40
     6a8:	e59f17e8 	ldr	r1, [pc, #2024]	; e98 <ETH_RX_SIZE+0x298>
     6ac:	e58c0000 	str	r0, [ip]
     6b0:	e596004c 	ldr	r0, [r6, #76]	; 0x4c
     6b4:	fa0008d4 	blx	2a0c <sark_xalloc>
     6b8:	e59f37dc 	ldr	r3, [pc, #2012]	; e9c <ETH_RX_SIZE+0x29c>
     6bc:	e3a01004 	mov	r1, #4
     6c0:	e5830000 	str	r0, [r3]
     6c4:	e3a00064 	mov	r0, #100	; 0x64
     6c8:	fa000901 	blx	2ad4 <sark_alloc>
     6cc:	e3a01004 	mov	r1, #4
     6d0:	e5880000 	str	r0, [r8]
     6d4:	e3a00064 	mov	r0, #100	; 0x64
     6d8:	fa0008fd 	blx	2ad4 <sark_alloc>
     6dc:	e5953000 	ldr	r3, [r5]
     6e0:	e3a01004 	mov	r1, #4
     6e4:	e0833103 	add	r3, r3, r3, lsl #2
     6e8:	e5890000 	str	r0, [r9]
     6ec:	e1a00103 	lsl	r0, r3, #2
     6f0:	fa0008f7 	blx	2ad4 <sark_alloc>
     6f4:	e5953000 	ldr	r3, [r5]
     6f8:	e3a01004 	mov	r1, #4
     6fc:	e0833103 	add	r3, r3, r3, lsl #2
     700:	e58a0000 	str	r0, [sl]
     704:	e1a00103 	lsl	r0, r3, #2
     708:	fa0008f1 	blx	2ad4 <sark_alloc>
     70c:	e3a01004 	mov	r1, #4
     710:	e58b0000 	str	r0, [fp]
     714:	e3a00f96 	mov	r0, #600	; 0x258
     718:	fa0008ed 	blx	2ad4 <sark_alloc>
     71c:	e5988000 	ldr	r8, [r8]
     720:	e59f3778 	ldr	r3, [pc, #1912]	; ea0 <ETH_RX_SIZE+0x2a0>
     724:	e3580000 	cmp	r8, #0
     728:	e5830000 	str	r0, [r3]
     72c:	0a00005d 	beq	8a8 <STACK_SIZE+0xa8>
     730:	e5992000 	ldr	r2, [r9]
     734:	e3520000 	cmp	r2, #0
     738:	0a00005a 	beq	8a8 <STACK_SIZE+0xa8>
     73c:	e1a06000 	mov	r6, r0
     740:	e59a0000 	ldr	r0, [sl]
     744:	e3500000 	cmp	r0, #0
     748:	0a000056 	beq	8a8 <STACK_SIZE+0xa8>
     74c:	e59bc000 	ldr	ip, [fp]
     750:	e35c0000 	cmp	ip, #0
     754:	0a000053 	beq	8a8 <STACK_SIZE+0xa8>
     758:	e59f372c 	ldr	r3, [pc, #1836]	; e8c <ETH_RX_SIZE+0x28c>
     75c:	e593a000 	ldr	sl, [r3]
     760:	e35a0000 	cmp	sl, #0
     764:	0a00004f 	beq	8a8 <STACK_SIZE+0xa8>
     768:	e59f3724 	ldr	r3, [pc, #1828]	; e94 <ETH_RX_SIZE+0x294>
     76c:	e593b000 	ldr	fp, [r3]
     770:	e35b0000 	cmp	fp, #0
     774:	0a00004b 	beq	8a8 <STACK_SIZE+0xa8>
     778:	e59f371c 	ldr	r3, [pc, #1820]	; e9c <ETH_RX_SIZE+0x29c>
     77c:	e5939000 	ldr	r9, [r3]
     780:	e3560000 	cmp	r6, #0
     784:	13590000 	cmpne	r9, #0
     788:	0a000046 	beq	8a8 <STACK_SIZE+0xa8>
     78c:	e59fe710 	ldr	lr, [pc, #1808]	; ea4 <ETH_RX_SIZE+0x2a4>
     790:	e2483004 	sub	r3, r8, #4
     794:	e58d3000 	str	r3, [sp]
     798:	e3a03001 	mov	r3, #1
     79c:	e58e3000 	str	r3, [lr]
     7a0:	e59d3000 	ldr	r3, [sp]
     7a4:	e3a01000 	mov	r1, #0
     7a8:	e2422004 	sub	r2, r2, #4
     7ac:	e288ef63 	add	lr, r8, #396	; 0x18c
     7b0:	e5a31004 	str	r1, [r3, #4]!
     7b4:	e153000e 	cmp	r3, lr
     7b8:	e5a21004 	str	r1, [r2, #4]!
     7bc:	1afffffb 	bne	7b0 <ETH_TX_SIZE+0x1b0>
     7c0:	e5952000 	ldr	r2, [r5]
     7c4:	e0822102 	add	r2, r2, r2, lsl #2
     7c8:	e1b03102 	lsls	r3, r2, #2
     7cc:	13a03000 	movne	r3, #0
     7d0:	10802202 	addne	r2, r0, r2, lsl #4
     7d4:	124cc004 	subne	ip, ip, #4
     7d8:	0a000003 	beq	7ec <ETH_TX_SIZE+0x1ec>
     7dc:	e4803004 	str	r3, [r0], #4
     7e0:	e1520000 	cmp	r2, r0
     7e4:	e5ac3004 	str	r3, [ip, #4]!
     7e8:	1afffffb 	bne	7dc <ETH_TX_SIZE+0x1dc>
     7ec:	e5971000 	ldr	r1, [r7]
     7f0:	e59f06b0 	ldr	r0, [pc, #1712]	; ea8 <ETH_RX_SIZE+0x2a8>
     7f4:	eb000cf6 	bl	3bd4 <__udivsi3>
     7f8:	e0800100 	add	r0, r0, r0, lsl #2
     7fc:	e1b03100 	lsls	r3, r0, #2
     800:	0a000003 	beq	814 <STACK_SIZE+0x14>
     804:	e1a02200 	lsl	r2, r0, #4
     808:	e3a01000 	mov	r1, #0
     80c:	e1a0000a 	mov	r0, sl
     810:	eb00119d 	bl	4e8c <memset>
     814:	e59f2674 	ldr	r2, [pc, #1652]	; e90 <ETH_RX_SIZE+0x290>
     818:	e3a01000 	mov	r1, #0
     81c:	e1a0000b 	mov	r0, fp
     820:	eb001199 	bl	4e8c <memset>
     824:	e2861e95 	add	r1, r6, #2384	; 0x950
     828:	e2492004 	sub	r2, r9, #4
     82c:	e281100c 	add	r1, r1, #12
     830:	e2466004 	sub	r6, r6, #4
     834:	e3a03000 	mov	r3, #0
     838:	e5a63004 	str	r3, [r6, #4]!
     83c:	e1560001 	cmp	r6, r1
     840:	e5a23004 	str	r3, [r2, #4]!
     844:	1afffffb 	bne	838 <STACK_SIZE+0x38>
     848:	e1a03008 	mov	r3, r8
     84c:	e5942000 	ldr	r2, [r4]
     850:	e59f1654 	ldr	r1, [pc, #1620]	; eac <ETH_RX_SIZE+0x2ac>
     854:	e3a00002 	mov	r0, #2
     858:	fa000927 	blx	2cfc <io_printf>
     85c:	e59f3628 	ldr	r3, [pc, #1576]	; e8c <ETH_RX_SIZE+0x28c>
     860:	e5942000 	ldr	r2, [r4]
     864:	e5933000 	ldr	r3, [r3]
     868:	e59f1640 	ldr	r1, [pc, #1600]	; eb0 <ETH_RX_SIZE+0x2b0>
     86c:	e3a00002 	mov	r0, #2
     870:	fa000921 	blx	2cfc <io_printf>
     874:	e59f3618 	ldr	r3, [pc, #1560]	; e94 <ETH_RX_SIZE+0x294>
     878:	e5942000 	ldr	r2, [r4]
     87c:	e5933000 	ldr	r3, [r3]
     880:	e59f162c 	ldr	r1, [pc, #1580]	; eb4 <ETH_RX_SIZE+0x2b4>
     884:	e3a00002 	mov	r0, #2
     888:	fa00091b 	blx	2cfc <io_printf>
     88c:	e59f3608 	ldr	r3, [pc, #1544]	; e9c <ETH_RX_SIZE+0x29c>
     890:	e5942000 	ldr	r2, [r4]
     894:	e5933000 	ldr	r3, [r3]
     898:	e59f1618 	ldr	r1, [pc, #1560]	; eb8 <ETH_RX_SIZE+0x2b8>
     89c:	e3a00002 	mov	r0, #2
     8a0:	fa000915 	blx	2cfc <io_printf>
     8a4:	ea000006 	b	8c4 <STACK_SIZE+0xc4>
     8a8:	e59f35f4 	ldr	r3, [pc, #1524]	; ea4 <ETH_RX_SIZE+0x2a4>
     8ac:	e3a0c000 	mov	ip, #0
     8b0:	e5942000 	ldr	r2, [r4]
     8b4:	e59f1600 	ldr	r1, [pc, #1536]	; ebc <ETH_RX_SIZE+0x2bc>
     8b8:	e3a00002 	mov	r0, #2
     8bc:	e583c000 	str	ip, [r3]
     8c0:	fa00090d 	blx	2cfc <io_printf>
     8c4:	e59f65f4 	ldr	r6, [pc, #1524]	; ec0 <ETH_RX_SIZE+0x2c0>
     8c8:	e59f05f4 	ldr	r0, [pc, #1524]	; ec4 <ETH_RX_SIZE+0x2c4>
     8cc:	e59fc5f4 	ldr	ip, [pc, #1524]	; ec8 <ETH_RX_SIZE+0x2c8>
     8d0:	e3a02102 	mov	r2, #-2147483648	; 0x80000000
     8d4:	e59f15f0 	ldr	r1, [pc, #1520]	; ecc <ETH_RX_SIZE+0x2cc>
     8d8:	e5860000 	str	r0, [r6]
     8dc:	e586c004 	str	ip, [r6, #4]
     8e0:	e59f05e8 	ldr	r0, [pc, #1512]	; ed0 <ETH_RX_SIZE+0x2d0>
     8e4:	e59fc5e8 	ldr	ip, [pc, #1512]	; ed4 <ETH_RX_SIZE+0x2d4>
     8e8:	e5862008 	str	r2, [r6, #8]
     8ec:	e586100c 	str	r1, [r6, #12]
     8f0:	e59f25e0 	ldr	r2, [pc, #1504]	; ed8 <ETH_RX_SIZE+0x2d8>
     8f4:	e59f15e0 	ldr	r1, [pc, #1504]	; edc <ETH_RX_SIZE+0x2dc>
     8f8:	e5860010 	str	r0, [r6, #16]
     8fc:	e586c018 	str	ip, [r6, #24]
     900:	e3a00441 	mov	r0, #1090519040	; 0x41000000
     904:	e59fc5d4 	ldr	ip, [pc, #1492]	; ee0 <ETH_RX_SIZE+0x2e0>
     908:	e59f55d4 	ldr	r5, [pc, #1492]	; ee4 <ETH_RX_SIZE+0x2e4>
     90c:	e586201c 	str	r2, [r6, #28]
     910:	e5861020 	str	r1, [r6, #32]
     914:	e59f25cc 	ldr	r2, [pc, #1484]	; ee8 <ETH_RX_SIZE+0x2e8>
     918:	e59f15cc 	ldr	r1, [pc, #1484]	; eec <ETH_RX_SIZE+0x2ec>
     91c:	e5860024 	str	r0, [r6, #36]	; 0x24
     920:	e586c028 	str	ip, [r6, #40]	; 0x28
     924:	e59f05c4 	ldr	r0, [pc, #1476]	; ef0 <ETH_RX_SIZE+0x2f0>
     928:	e3a0c000 	mov	ip, #0
     92c:	e5862030 	str	r2, [r6, #48]	; 0x30
     930:	e5861034 	str	r1, [r6, #52]	; 0x34
     934:	e5860038 	str	r0, [r6, #56]	; 0x38
     938:	e5953000 	ldr	r3, [r5]
     93c:	e5942000 	ldr	r2, [r4]
     940:	e59f15ac 	ldr	r1, [pc, #1452]	; ef4 <ETH_RX_SIZE+0x2f4>
     944:	e3a00002 	mov	r0, #2
     948:	e586c014 	str	ip, [r6, #20]
     94c:	e586c02c 	str	ip, [r6, #44]	; 0x2c
     950:	fa0008e9 	blx	2cfc <io_printf>
     954:	e59f959c 	ldr	r9, [pc, #1436]	; ef8 <ETH_RX_SIZE+0x2f8>
     958:	e59f859c 	ldr	r8, [pc, #1436]	; efc <ETH_RX_SIZE+0x2fc>
     95c:	e3a0a000 	mov	sl, #0
     960:	e3a07002 	mov	r7, #2
     964:	e5942000 	ldr	r2, [r4]
     968:	e5953000 	ldr	r3, [r5]
     96c:	e1a02a12 	lsl	r2, r2, sl
     970:	e1822403 	orr	r2, r2, r3, lsl #8
     974:	e789210a 	str	r2, [r9, sl, lsl #2]
     978:	e1a01008 	mov	r1, r8
     97c:	e28aa001 	add	sl, sl, #1
     980:	e1a00007 	mov	r0, r7
     984:	fa0008dc 	blx	2cfc <io_printf>
     988:	e35a0004 	cmp	sl, #4
     98c:	1afffff4 	bne	964 <STACK_SIZE+0x164>
     990:	e59f1568 	ldr	r1, [pc, #1384]	; f00 <RTR_TST1>
     994:	e3a00002 	mov	r0, #2
     998:	fa0008d7 	blx	2cfc <io_printf>
     99c:	e59f0554 	ldr	r0, [pc, #1364]	; ef8 <ETH_RX_SIZE+0x2f8>
     9a0:	eb0004ca 	bl	1cd0 <validate_mars_kiss64_seed>
     9a4:	e59f3488 	ldr	r3, [pc, #1160]	; e34 <ETH_RX_SIZE+0x234>
     9a8:	e59fa554 	ldr	sl, [pc, #1364]	; f04 <RTR_TST2>
     9ac:	e5933000 	ldr	r3, [r3]
     9b0:	e59fe550 	ldr	lr, [pc, #1360]	; f08 <RTR_TST2+0x4>
     9b4:	e1a02003 	mov	r2, r3
     9b8:	e59f354c 	ldr	r3, [pc, #1356]	; f0c <RTR_TST2+0x8>
     9bc:	e59fc54c 	ldr	ip, [pc, #1356]	; f10 <RTR_TST2+0xc>
     9c0:	e58d2004 	str	r2, [sp, #4]
     9c4:	e58a3000 	str	r3, [sl]
     9c8:	e1a00002 	mov	r0, r2
     9cc:	e59f3540 	ldr	r3, [pc, #1344]	; f14 <RTR_TST2+0x10>
     9d0:	e59f2540 	ldr	r2, [pc, #1344]	; f18 <RTR_TST2+0x14>
     9d4:	e59f5540 	ldr	r5, [pc, #1344]	; f1c <RTR_TST2+0x18>
     9d8:	e59f4540 	ldr	r4, [pc, #1344]	; f20 <RTR_TST2+0x1c>
     9dc:	e59f1540 	ldr	r1, [pc, #1344]	; f24 <RTR_TST2+0x20>
     9e0:	e58ae00c 	str	lr, [sl, #12]
     9e4:	e58ac010 	str	ip, [sl, #16]
     9e8:	e58a5004 	str	r5, [sl, #4]
     9ec:	e58a4008 	str	r4, [sl, #8]
     9f0:	e58a2018 	str	r2, [sl, #24]
     9f4:	e58a301c 	str	r3, [sl, #28]
     9f8:	e58a1014 	str	r1, [sl, #20]
     9fc:	eb000d94 	bl	4054 <__aeabi_f2d>
     a00:	e3a024a2 	mov	r2, #-1577058304	; 0xa2000000
     a04:	e59f351c 	ldr	r3, [pc, #1308]	; f28 <RTR_TST2+0x24>
     a08:	eb000dbe 	bl	4108 <__aeabi_dmul>
     a0c:	eb000ee4 	bl	45a4 <__aeabi_d2f>
     a10:	e59f3514 	ldr	r3, [pc, #1300]	; f2c <RTR_TST2+0x28>
     a14:	e59f1514 	ldr	r1, [pc, #1300]	; f30 <RTR_TST2+0x2c>
     a18:	e59f7514 	ldr	r7, [pc, #1300]	; f34 <RTR_TST2+0x30>
     a1c:	e58a1030 	str	r1, [sl, #48]	; 0x30
     a20:	e5961000 	ldr	r1, [r6]
     a24:	e5831000 	str	r1, [r3]
     a28:	e59f2508 	ldr	r2, [pc, #1288]	; f38 <RTR_TST2+0x34>
     a2c:	e596101c 	ldr	r1, [r6, #28]
     a30:	e59fb504 	ldr	fp, [pc, #1284]	; f3c <RTR_TST2+0x38>
     a34:	e59f4504 	ldr	r4, [pc, #1284]	; f40 <RTR_TST2+0x3c>
     a38:	e59f5504 	ldr	r5, [pc, #1284]	; f44 <RTR_TST2+0x40>
     a3c:	e59f9504 	ldr	r9, [pc, #1284]	; f48 <RTR_TST2+0x44>
     a40:	e59f8504 	ldr	r8, [pc, #1284]	; f4c <RTR_TST2+0x48>
     a44:	e58ab024 	str	fp, [sl, #36]	; 0x24
     a48:	e5871000 	str	r1, [r7]
     a4c:	e596b038 	ldr	fp, [r6, #56]	; 0x38
     a50:	e5871004 	str	r1, [r7, #4]
     a54:	e59fe4f4 	ldr	lr, [pc, #1268]	; f50 <RTR_TST2+0x4c>
     a58:	e59f14f4 	ldr	r1, [pc, #1268]	; f54 <RTR_TST2+0x50>
     a5c:	e59fc4f4 	ldr	ip, [pc, #1268]	; f58 <RTR_TST2+0x54>
     a60:	e59f34f4 	ldr	r3, [pc, #1268]	; f5c <RTR_TST2+0x58>
     a64:	e58ae028 	str	lr, [sl, #40]	; 0x28
     a68:	e58ac02c 	str	ip, [sl, #44]	; 0x2c
     a6c:	e596e010 	ldr	lr, [r6, #16]
     a70:	e596c004 	ldr	ip, [r6, #4]
     a74:	e582b000 	str	fp, [r2]
     a78:	e59fb4e0 	ldr	fp, [pc, #1248]	; f60 <RTR_TST2+0x5c>
     a7c:	e5843018 	str	r3, [r4, #24]
     a80:	e584301c 	str	r3, [r4, #28]
     a84:	e589c000 	str	ip, [r9]
     a88:	e589c004 	str	ip, [r9, #4]
     a8c:	e58a0020 	str	r0, [sl, #32]
     a90:	e59fa440 	ldr	sl, [pc, #1088]	; ed8 <ETH_RX_SIZE+0x2d8>
     a94:	e5960028 	ldr	r0, [r6, #40]	; 0x28
     a98:	e589c008 	str	ip, [r9, #8]
     a9c:	e588e000 	str	lr, [r8]
     aa0:	e588e004 	str	lr, [r8, #4]
     aa4:	e5810000 	str	r0, [r1]
     aa8:	e5810004 	str	r0, [r1, #4]
     aac:	e584b068 	str	fp, [r4, #104]	; 0x68
     ab0:	e584b06c 	str	fp, [r4, #108]	; 0x6c
     ab4:	e585a020 	str	sl, [r5, #32]
     ab8:	e585a024 	str	sl, [r5, #36]	; 0x24
     abc:	e588e008 	str	lr, [r8, #8]
     ac0:	e596101c 	ldr	r1, [r6, #28]
     ac4:	e5871008 	str	r1, [r7, #8]
     ac8:	e59f1484 	ldr	r1, [pc, #1156]	; f54 <RTR_TST2+0x50>
     acc:	e5843020 	str	r3, [r4, #32]
     ad0:	e5810008 	str	r0, [r1, #8]
     ad4:	e596101c 	ldr	r1, [r6, #28]
     ad8:	e587100c 	str	r1, [r7, #12]
     adc:	e59f1470 	ldr	r1, [pc, #1136]	; f54 <RTR_TST2+0x50>
     ae0:	e5843024 	str	r3, [r4, #36]	; 0x24
     ae4:	e581000c 	str	r0, [r1, #12]
     ae8:	e596101c 	ldr	r1, [r6, #28]
     aec:	e5871010 	str	r1, [r7, #16]
     af0:	e59f145c 	ldr	r1, [pc, #1116]	; f54 <RTR_TST2+0x50>
     af4:	e5843028 	str	r3, [r4, #40]	; 0x28
     af8:	e5810010 	str	r0, [r1, #16]
     afc:	e596101c 	ldr	r1, [r6, #28]
     b00:	e5871014 	str	r1, [r7, #20]
     b04:	e59f1448 	ldr	r1, [pc, #1096]	; f54 <RTR_TST2+0x50>
     b08:	e584302c 	str	r3, [r4, #44]	; 0x2c
     b0c:	e584b070 	str	fp, [r4, #112]	; 0x70
     b10:	e589c00c 	str	ip, [r9, #12]
     b14:	e588e00c 	str	lr, [r8, #12]
     b18:	e584b074 	str	fp, [r4, #116]	; 0x74
     b1c:	e589c010 	str	ip, [r9, #16]
     b20:	e588e010 	str	lr, [r8, #16]
     b24:	e584b078 	str	fp, [r4, #120]	; 0x78
     b28:	e589c014 	str	ip, [r9, #20]
     b2c:	e588e014 	str	lr, [r8, #20]
     b30:	e584b07c 	str	fp, [r4, #124]	; 0x7c
     b34:	e589c018 	str	ip, [r9, #24]
     b38:	e588e018 	str	lr, [r8, #24]
     b3c:	e585a028 	str	sl, [r5, #40]	; 0x28
     b40:	e585a02c 	str	sl, [r5, #44]	; 0x2c
     b44:	e585a030 	str	sl, [r5, #48]	; 0x30
     b48:	e5810014 	str	r0, [r1, #20]
     b4c:	e585a034 	str	sl, [r5, #52]	; 0x34
     b50:	e596101c 	ldr	r1, [r6, #28]
     b54:	e5871018 	str	r1, [r7, #24]
     b58:	e59f13f4 	ldr	r1, [pc, #1012]	; f54 <RTR_TST2+0x50>
     b5c:	e589c01c 	str	ip, [r9, #28]
     b60:	e5810018 	str	r0, [r1, #24]
     b64:	e596101c 	ldr	r1, [r6, #28]
     b68:	e587101c 	str	r1, [r7, #28]
     b6c:	e59f13e0 	ldr	r1, [pc, #992]	; f54 <RTR_TST2+0x50>
     b70:	e589c020 	str	ip, [r9, #32]
     b74:	e581001c 	str	r0, [r1, #28]
     b78:	e596101c 	ldr	r1, [r6, #28]
     b7c:	e5871020 	str	r1, [r7, #32]
     b80:	e589c024 	str	ip, [r9, #36]	; 0x24
     b84:	e59f13c8 	ldr	r1, [pc, #968]	; f54 <RTR_TST2+0x50>
     b88:	e596c01c 	ldr	ip, [r6, #28]
     b8c:	e587c024 	str	ip, [r7, #36]	; 0x24
     b90:	e59fc3bc 	ldr	ip, [pc, #956]	; f54 <RTR_TST2+0x50>
     b94:	e588e01c 	str	lr, [r8, #28]
     b98:	e588e020 	str	lr, [r8, #32]
     b9c:	e5810020 	str	r0, [r1, #32]
     ba0:	e588e024 	str	lr, [r8, #36]	; 0x24
     ba4:	e3a02028 	mov	r2, #40	; 0x28
     ba8:	e596e028 	ldr	lr, [r6, #40]	; 0x28
     bac:	e3a01000 	mov	r1, #0
     bb0:	e59f03ac 	ldr	r0, [pc, #940]	; f64 <RTR_TST2+0x60>
     bb4:	e584b080 	str	fp, [r4, #128]	; 0x80
     bb8:	e5843030 	str	r3, [r4, #48]	; 0x30
     bbc:	e584b084 	str	fp, [r4, #132]	; 0x84
     bc0:	e5843034 	str	r3, [r4, #52]	; 0x34
     bc4:	e584b088 	str	fp, [r4, #136]	; 0x88
     bc8:	e5843038 	str	r3, [r4, #56]	; 0x38
     bcc:	e58ce024 	str	lr, [ip, #36]	; 0x24
     bd0:	e584b08c 	str	fp, [r4, #140]	; 0x8c
     bd4:	e584303c 	str	r3, [r4, #60]	; 0x3c
     bd8:	e585a038 	str	sl, [r5, #56]	; 0x38
     bdc:	e585a03c 	str	sl, [r5, #60]	; 0x3c
     be0:	e585a040 	str	sl, [r5, #64]	; 0x40
     be4:	e585a044 	str	sl, [r5, #68]	; 0x44
     be8:	eb0010a7 	bl	4e8c <memset>
     bec:	e5963024 	ldr	r3, [r6, #36]	; 0x24
     bf0:	e5873028 	str	r3, [r7, #40]	; 0x28
     bf4:	e587302c 	str	r3, [r7, #44]	; 0x2c
     bf8:	e5873030 	str	r3, [r7, #48]	; 0x30
     bfc:	e58d3000 	str	r3, [sp]
     c00:	e5873034 	str	r3, [r7, #52]	; 0x34
     c04:	e59f3348 	ldr	r3, [pc, #840]	; f54 <RTR_TST2+0x50>
     c08:	e596c018 	ldr	ip, [r6, #24]
     c0c:	e59fe354 	ldr	lr, [pc, #852]	; f68 <RTR_TST2+0x64>
     c10:	e596000c 	ldr	r0, [r6, #12]
     c14:	e5966030 	ldr	r6, [r6, #48]	; 0x30
     c18:	e584e040 	str	lr, [r4, #64]	; 0x40
     c1c:	e584e044 	str	lr, [r4, #68]	; 0x44
     c20:	e584e048 	str	lr, [r4, #72]	; 0x48
     c24:	e588c028 	str	ip, [r8, #40]	; 0x28
     c28:	e588c02c 	str	ip, [r8, #44]	; 0x2c
     c2c:	e588c030 	str	ip, [r8, #48]	; 0x30
     c30:	e588c034 	str	ip, [r8, #52]	; 0x34
     c34:	e584b090 	str	fp, [r4, #144]	; 0x90
     c38:	e584b094 	str	fp, [r4, #148]	; 0x94
     c3c:	e584b098 	str	fp, [r4, #152]	; 0x98
     c40:	e584b09c 	str	fp, [r4, #156]	; 0x9c
     c44:	e5890028 	str	r0, [r9, #40]	; 0x28
     c48:	e589002c 	str	r0, [r9, #44]	; 0x2c
     c4c:	e5890030 	str	r0, [r9, #48]	; 0x30
     c50:	e5890034 	str	r0, [r9, #52]	; 0x34
     c54:	e5836028 	str	r6, [r3, #40]	; 0x28
     c58:	e583602c 	str	r6, [r3, #44]	; 0x2c
     c5c:	e5836030 	str	r6, [r3, #48]	; 0x30
     c60:	e5836034 	str	r6, [r3, #52]	; 0x34
     c64:	e585a048 	str	sl, [r5, #72]	; 0x48
     c68:	e585a04c 	str	sl, [r5, #76]	; 0x4c
     c6c:	e585a050 	str	sl, [r5, #80]	; 0x50
     c70:	e585a054 	str	sl, [r5, #84]	; 0x54
     c74:	e584e04c 	str	lr, [r4, #76]	; 0x4c
     c78:	e59d3000 	ldr	r3, [sp]
     c7c:	e5873038 	str	r3, [r7, #56]	; 0x38
     c80:	e59f32cc 	ldr	r3, [pc, #716]	; f54 <RTR_TST2+0x50>
     c84:	e584e050 	str	lr, [r4, #80]	; 0x50
     c88:	e5836038 	str	r6, [r3, #56]	; 0x38
     c8c:	e59d3000 	ldr	r3, [sp]
     c90:	e587303c 	str	r3, [r7, #60]	; 0x3c
     c94:	e59f32b8 	ldr	r3, [pc, #696]	; f54 <RTR_TST2+0x50>
     c98:	e584e054 	str	lr, [r4, #84]	; 0x54
     c9c:	e583603c 	str	r6, [r3, #60]	; 0x3c
     ca0:	e59d3000 	ldr	r3, [sp]
     ca4:	e5873040 	str	r3, [r7, #64]	; 0x40
     ca8:	e59f32a4 	ldr	r3, [pc, #676]	; f54 <RTR_TST2+0x50>
     cac:	e584e058 	str	lr, [r4, #88]	; 0x58
     cb0:	e5836040 	str	r6, [r3, #64]	; 0x40
     cb4:	e59d3000 	ldr	r3, [sp]
     cb8:	e5873044 	str	r3, [r7, #68]	; 0x44
     cbc:	e59f3290 	ldr	r3, [pc, #656]	; f54 <RTR_TST2+0x50>
     cc0:	e584e05c 	str	lr, [r4, #92]	; 0x5c
     cc4:	e5836044 	str	r6, [r3, #68]	; 0x44
     cc8:	e59d3000 	ldr	r3, [sp]
     ccc:	e5873048 	str	r3, [r7, #72]	; 0x48
     cd0:	e59f327c 	ldr	r3, [pc, #636]	; f54 <RTR_TST2+0x50>
     cd4:	e588c038 	str	ip, [r8, #56]	; 0x38
     cd8:	e588c03c 	str	ip, [r8, #60]	; 0x3c
     cdc:	e588c040 	str	ip, [r8, #64]	; 0x40
     ce0:	e588c044 	str	ip, [r8, #68]	; 0x44
     ce4:	e588c048 	str	ip, [r8, #72]	; 0x48
     ce8:	e5890038 	str	r0, [r9, #56]	; 0x38
     cec:	e589003c 	str	r0, [r9, #60]	; 0x3c
     cf0:	e5890040 	str	r0, [r9, #64]	; 0x40
     cf4:	e5890044 	str	r0, [r9, #68]	; 0x44
     cf8:	e5890048 	str	r0, [r9, #72]	; 0x48
     cfc:	e5836048 	str	r6, [r3, #72]	; 0x48
     d00:	e584b0a0 	str	fp, [r4, #160]	; 0xa0
     d04:	e584b0a4 	str	fp, [r4, #164]	; 0xa4
     d08:	e585a058 	str	sl, [r5, #88]	; 0x58
     d0c:	e585a05c 	str	sl, [r5, #92]	; 0x5c
     d10:	e59d3000 	ldr	r3, [sp]
     d14:	e587304c 	str	r3, [r7, #76]	; 0x4c
     d18:	e59f3234 	ldr	r3, [pc, #564]	; f54 <RTR_TST2+0x50>
     d1c:	e589004c 	str	r0, [r9, #76]	; 0x4c
     d20:	e3a02028 	mov	r2, #40	; 0x28
     d24:	e3a01000 	mov	r1, #0
     d28:	e59f023c 	ldr	r0, [pc, #572]	; f6c <RTR_TST2+0x68>
     d2c:	e584e060 	str	lr, [r4, #96]	; 0x60
     d30:	e584e064 	str	lr, [r4, #100]	; 0x64
     d34:	e588c04c 	str	ip, [r8, #76]	; 0x4c
     d38:	e584b0a8 	str	fp, [r4, #168]	; 0xa8
     d3c:	e584b0ac 	str	fp, [r4, #172]	; 0xac
     d40:	e584b0b0 	str	fp, [r4, #176]	; 0xb0
     d44:	e583604c 	str	r6, [r3, #76]	; 0x4c
     d48:	e584b0b4 	str	fp, [r4, #180]	; 0xb4
     d4c:	e585a060 	str	sl, [r5, #96]	; 0x60
     d50:	e585a064 	str	sl, [r5, #100]	; 0x64
     d54:	e585a068 	str	sl, [r5, #104]	; 0x68
     d58:	e585a06c 	str	sl, [r5, #108]	; 0x6c
     d5c:	eb00104a 	bl	4e8c <memset>
     d60:	e59f2208 	ldr	r2, [pc, #520]	; f70 <RTR_TST2+0x6c>
     d64:	e59f3208 	ldr	r3, [pc, #520]	; f74 <RTR_TST2+0x70>
     d68:	e59d0004 	ldr	r0, [sp, #4]
     d6c:	e5842004 	str	r2, [r4, #4]
     d70:	e5843008 	str	r3, [r4, #8]
     d74:	e59f11fc 	ldr	r1, [pc, #508]	; f78 <RTR_TST2+0x74>
     d78:	eb000edc 	bl	48f0 <__aeabi_fmul>
     d7c:	e59f30e0 	ldr	r3, [pc, #224]	; e64 <ETH_RX_SIZE+0x264>
     d80:	e59f21f4 	ldr	r2, [pc, #500]	; f7c <RTR_TST2+0x78>
     d84:	e5936000 	ldr	r6, [r3]
     d88:	e59f31f0 	ldr	r3, [pc, #496]	; f80 <RTR_TST2+0x7c>
     d8c:	e5843000 	str	r3, [r4]
     d90:	e59f31ec 	ldr	r3, [pc, #492]	; f84 <RTR_TST2+0x80>
     d94:	e5842010 	str	r2, [r4, #16]
     d98:	e5843014 	str	r3, [r4, #20]
     d9c:	e59f11e4 	ldr	r1, [pc, #484]	; f88 <RTR_TST2+0x84>
     da0:	e3a075fe 	mov	r7, #1065353216	; 0x3f800000
     da4:	e584000c 	str	r0, [r4, #12]
     da8:	e1a00006 	mov	r0, r6
     dac:	eb000ecf 	bl	48f0 <__aeabi_fmul>
     db0:	e59f11d4 	ldr	r1, [pc, #468]	; f8c <RTR_TST2+0x88>
     db4:	e5850018 	str	r0, [r5, #24]
     db8:	e1a00006 	mov	r0, r6
     dbc:	eb000ecb 	bl	48f0 <__aeabi_fmul>
     dc0:	e1a01007 	mov	r1, r7
     dc4:	e1a04000 	mov	r4, r0
     dc8:	eb000fc5 	bl	4ce4 <__aeabi_fcmpgt>
     dcc:	e59f11bc 	ldr	r1, [pc, #444]	; f90 <RTR_TST2+0x8c>
     dd0:	e3500000 	cmp	r0, #0
     dd4:	05854010 	streq	r4, [r5, #16]
     dd8:	15857010 	strne	r7, [r5, #16]
     ddc:	e1a00006 	mov	r0, r6
     de0:	eb000ec2 	bl	48f0 <__aeabi_fmul>
     de4:	e59f11a8 	ldr	r1, [pc, #424]	; f94 <RTR_TST2+0x90>
     de8:	e5850014 	str	r0, [r5, #20]
     dec:	e1a00006 	mov	r0, r6
     df0:	eb000ebe 	bl	48f0 <__aeabi_fmul>
     df4:	e585001c 	str	r0, [r5, #28]
     df8:	e1a00006 	mov	r0, r6
     dfc:	eb000c94 	bl	4054 <__aeabi_f2d>
     e00:	e1a02000 	mov	r2, r0
     e04:	e1a03001 	mov	r3, r1
     e08:	e59f0188 	ldr	r0, [pc, #392]	; f98 <RTR_TST2+0x94>
     e0c:	e59f1188 	ldr	r1, [pc, #392]	; f9c <RTR_TST2+0x98>
     e10:	eb000d60 	bl	4398 <__aeabi_ddiv>
     e14:	eb000de2 	bl	45a4 <__aeabi_d2f>
     e18:	e3a03421 	mov	r3, #553648128	; 0x21000000
     e1c:	e3a02082 	mov	r2, #130	; 0x82
     e20:	e5832028 	str	r2, [r3, #40]	; 0x28
     e24:	e5850004 	str	r0, [r5, #4]
     e28:	e28dd00c 	add	sp, sp, #12
     e2c:	e8bd8ff0 	pop	{r4, r5, r6, r7, r8, r9, sl, fp, pc}
     e30:	004008d0 	.word	0x004008d0
     e34:	004007ac 	.word	0x004007ac
     e38:	00400750 	.word	0x00400750
     e3c:	004008d8 	.word	0x004008d8
     e40:	00400738 	.word	0x00400738
     e44:	00400510 	.word	0x00400510
     e48:	472c4400 	.word	0x472c4400
     e4c:	37be37c6 	.word	0x37be37c6
     e50:	0040059c 	.word	0x0040059c
     e54:	004006e0 	.word	0x004006e0
     e58:	00400520 	.word	0x00400520
     e5c:	00400734 	.word	0x00400734
     e60:	4609d000 	.word	0x4609d000
     e64:	004004d8 	.word	0x004004d8
     e68:	38edc5b8 	.word	0x38edc5b8
     e6c:	00004fc4 	.word	0x00004fc4
     e70:	00004fe8 	.word	0x00004fe8
     e74:	000d7550 	.word	0x000d7550
     e78:	e5007f00 	.word	0xe5007f00
     e7c:	00400758 	.word	0x00400758
     e80:	00400684 	.word	0x00400684
     e84:	00400748 	.word	0x00400748
     e88:	0040051c 	.word	0x0040051c
     e8c:	004004d4 	.word	0x004004d4
     e90:	0002b110 	.word	0x0002b110
     e94:	00400518 	.word	0x00400518
     e98:	000014ac 	.word	0x000014ac
     e9c:	00400598 	.word	0x00400598
     ea0:	004008d4 	.word	0x004008d4
     ea4:	004006d8 	.word	0x004006d8
     ea8:	0000ac44 	.word	0x0000ac44
     eac:	00005034 	.word	0x00005034
     eb0:	00005058 	.word	0x00005058
     eb4:	00005080 	.word	0x00005080
     eb8:	000050a4 	.word	0x000050a4
     ebc:	00005008 	.word	0x00005008
     ec0:	004005f8 	.word	0x004005f8
     ec4:	3ef6bee8 	.word	0x3ef6bee8
     ec8:	a7d67ccc 	.word	0xa7d67ccc
     ecc:	a88efddd 	.word	0xa88efddd
     ed0:	3bd82a26 	.word	0x3bd82a26
     ed4:	3db582fa 	.word	0x3db582fa
     ed8:	41400000 	.word	0x41400000
     edc:	7fc00000 	.word	0x7fc00000
     ee0:	3d612be7 	.word	0x3d612be7
     ee4:	00400754 	.word	0x00400754
     ee8:	3f3d131a 	.word	0x3f3d131a
     eec:	bd9ba5e3 	.word	0xbd9ba5e3
     ef0:	bd785f80 	.word	0xbd785f80
     ef4:	000050c8 	.word	0x000050c8
     ef8:	004008b8 	.word	0x004008b8
     efc:	000050e8 	.word	0x000050e8
     f00:	000053a0 	.word	0x000053a0
     f04:	004004dc 	.word	0x004004dc
     f08:	31abcc77 	.word	0x31abcc77
     f0c:	305be6ff 	.word	0x305be6ff
     f10:	4bfe502b 	.word	0x4bfe502b
     f14:	31ce288f 	.word	0x31ce288f
     f18:	4e6e6b28 	.word	0x4e6e6b28
     f1c:	38fba882 	.word	0x38fba882
     f20:	3da3d70a 	.word	0x3da3d70a
     f24:	3089705f 	.word	0x3089705f
     f28:	424d1a94 	.word	0x424d1a94
     f2c:	00400594 	.word	0x00400594
     f30:	3d23d70a 	.word	0x3d23d70a
     f34:	004005a0 	.word	0x004005a0
     f38:	00400514 	.word	0x00400514
     f3c:	3dcccccd 	.word	0x3dcccccd
     f40:	004007b0 	.word	0x004007b0
     f44:	00400524 	.word	0x00400524
     f48:	00400688 	.word	0x00400688
     f4c:	00400634 	.word	0x00400634
     f50:	32abcc77 	.word	0x32abcc77
     f54:	0040075c 	.word	0x0040075c
     f58:	bda3d70a 	.word	0xbda3d70a
     f5c:	37fba882 	.word	0x37fba882
     f60:	327084a7 	.word	0x327084a7
     f64:	004006e4 	.word	0x004006e4
     f68:	38a7c5ac 	.word	0x38a7c5ac
     f6c:	0040070c 	.word	0x0040070c
     f70:	3b23d70a 	.word	0x3b23d70a
     f74:	42c80000 	.word	0x42c80000
     f78:	469c4000 	.word	0x469c4000
     f7c:	40400000 	.word	0x40400000
     f80:	3d872b02 	.word	0x3d872b02
     f84:	629953ef 	.word	0x629953ef
     f88:	437a0000 	.word	0x437a0000
     f8c:	40c00000 	.word	0x40c00000
     f90:	42700000 	.word	0x42700000
     f94:	43fa0000 	.word	0x43fa0000
     f98:	bc6a7efa 	.word	0xbc6a7efa
     f9c:	3f489374 	.word	0x3f489374

00000fa0 <process_chan>:
     fa0:	e59f36d0 	ldr	r3, [pc, #1744]	; 1678 <SV_SIZE+0x678>
     fa4:	e59f26d0 	ldr	r2, [pc, #1744]	; 167c <SV_SIZE+0x67c>
     fa8:	e5933000 	ldr	r3, [r3]
     fac:	e5922000 	ldr	r2, [r2]
     fb0:	e0833103 	add	r3, r3, r3, lsl #2
     fb4:	e1a03103 	lsl	r3, r3, #2
     fb8:	e2422001 	sub	r2, r2, #1
     fbc:	e00c0293 	mul	ip, r3, r2
     fc0:	e92d4ff0 	push	{r4, r5, r6, r7, r8, r9, sl, fp, lr}
     fc4:	e3a03000 	mov	r3, #0
     fc8:	e24dd02c 	sub	sp, sp, #44	; 0x2c
     fcc:	e2412004 	sub	r2, r1, #4
     fd0:	e58dc024 	str	ip, [sp, #36]	; 0x24
     fd4:	e58d3018 	str	r3, [sp, #24]
     fd8:	e58d001c 	str	r0, [sp, #28]
     fdc:	e58d2020 	str	r2, [sp, #32]
     fe0:	e58d3008 	str	r3, [sp, #8]
     fe4:	e59f3694 	ldr	r3, [pc, #1684]	; 1680 <SV_SIZE+0x680>
     fe8:	e5931008 	ldr	r1, [r3, #8]
     fec:	e59d3020 	ldr	r3, [sp, #32]
     ff0:	e5b30004 	ldr	r0, [r3, #4]!
     ff4:	e58d3020 	str	r3, [sp, #32]
     ff8:	eb000e3c 	bl	48f0 <__aeabi_fmul>
     ffc:	e59f367c 	ldr	r3, [pc, #1660]	; 1680 <SV_SIZE+0x680>
    1000:	e5931014 	ldr	r1, [r3, #20]
    1004:	e1a05000 	mov	r5, r0
    1008:	eb000d8f 	bl	464c <__aeabi_fsub>
    100c:	e59f366c 	ldr	r3, [pc, #1644]	; 1680 <SV_SIZE+0x680>
    1010:	e5931018 	ldr	r1, [r3, #24]
    1014:	e2800102 	add	r0, r0, #-2147483648	; 0x80000000
    1018:	eb000e34 	bl	48f0 <__aeabi_fmul>
    101c:	eb000f7d 	bl	4e18 <__gnu_fractsfsa>
    1020:	eb000399 	bl	1e8c <expk>
    1024:	e59f3654 	ldr	r3, [pc, #1620]	; 1680 <SV_SIZE+0x680>
    1028:	e593100c 	ldr	r1, [r3, #12]
    102c:	e1a04000 	mov	r4, r0
    1030:	e1a00005 	mov	r0, r5
    1034:	eb000d84 	bl	464c <__aeabi_fsub>
    1038:	e59f3640 	ldr	r3, [pc, #1600]	; 1680 <SV_SIZE+0x680>
    103c:	e5931010 	ldr	r1, [r3, #16]
    1040:	e2800102 	add	r0, r0, #-2147483648	; 0x80000000
    1044:	eb000e29 	bl	48f0 <__aeabi_fmul>
    1048:	eb000f72 	bl	4e18 <__gnu_fractsfsa>
    104c:	eb00038e 	bl	1e8c <expk>
    1050:	e1a05000 	mov	r5, r0
    1054:	e1a00004 	mov	r0, r4
    1058:	eb000f66 	bl	4df8 <__gnu_fractsasf>
    105c:	e3a015fe 	mov	r1, #1065353216	; 0x3f800000
    1060:	eb000d7a 	bl	4650 <__addsf3>
    1064:	e1a04000 	mov	r4, r0
    1068:	e1a00005 	mov	r0, r5
    106c:	eb000f61 	bl	4df8 <__gnu_fractsasf>
    1070:	e1a01000 	mov	r1, r0
    1074:	e1a00004 	mov	r0, r4
    1078:	eb000e1c 	bl	48f0 <__aeabi_fmul>
    107c:	e3a015fe 	mov	r1, #1065353216	; 0x3f800000
    1080:	eb000d72 	bl	4650 <__addsf3>
    1084:	e59f35f4 	ldr	r3, [pc, #1524]	; 1680 <SV_SIZE+0x680>
    1088:	e1a01000 	mov	r1, r0
    108c:	e593001c 	ldr	r0, [r3, #28]
    1090:	eb000e7c 	bl	4a88 <__aeabi_fdiv>
    1094:	e59f35e4 	ldr	r3, [pc, #1508]	; 1680 <SV_SIZE+0x680>
    1098:	e5931000 	ldr	r1, [r3]
    109c:	eb000d6b 	bl	4650 <__addsf3>
    10a0:	e59f35dc 	ldr	r3, [pc, #1500]	; 1684 <SV_SIZE+0x684>
    10a4:	e5934000 	ldr	r4, [r3]
    10a8:	e59f35d0 	ldr	r3, [pc, #1488]	; 1680 <SV_SIZE+0x680>
    10ac:	e5931024 	ldr	r1, [r3, #36]	; 0x24
    10b0:	e2805102 	add	r5, r0, #-2147483648	; 0x80000000
    10b4:	e1a00004 	mov	r0, r4
    10b8:	eb000d63 	bl	464c <__aeabi_fsub>
    10bc:	e1a01000 	mov	r1, r0
    10c0:	e1a00005 	mov	r0, r5
    10c4:	eb000e09 	bl	48f0 <__aeabi_fmul>
    10c8:	e59f35b8 	ldr	r3, [pc, #1464]	; 1688 <SV_SIZE+0x688>
    10cc:	e1a01004 	mov	r1, r4
    10d0:	e1a05000 	mov	r5, r0
    10d4:	e5930034 	ldr	r0, [r3, #52]	; 0x34
    10d8:	eb000d5b 	bl	464c <__aeabi_fsub>
    10dc:	e59f359c 	ldr	r3, [pc, #1436]	; 1680 <SV_SIZE+0x680>
    10e0:	e5931028 	ldr	r1, [r3, #40]	; 0x28
    10e4:	eb000e01 	bl	48f0 <__aeabi_fmul>
    10e8:	e1a01000 	mov	r1, r0
    10ec:	e1a00005 	mov	r0, r5
    10f0:	eb000d56 	bl	4650 <__addsf3>
    10f4:	e59f3584 	ldr	r3, [pc, #1412]	; 1680 <SV_SIZE+0x680>
    10f8:	e5931020 	ldr	r1, [r3, #32]
    10fc:	eb000dfb 	bl	48f0 <__aeabi_fmul>
    1100:	e1a01004 	mov	r1, r4
    1104:	eb000d51 	bl	4650 <__addsf3>
    1108:	e59f357c 	ldr	r3, [pc, #1404]	; 168c <SV_SIZE+0x68c>
    110c:	e1a04000 	mov	r4, r0
    1110:	e5930008 	ldr	r0, [r3, #8]
    1114:	e59f3568 	ldr	r3, [pc, #1384]	; 1684 <SV_SIZE+0x684>
    1118:	e2800102 	add	r0, r0, #-2147483648	; 0x80000000
    111c:	e5834000 	str	r4, [r3]
    1120:	eb000f3c 	bl	4e18 <__gnu_fractsfsa>
    1124:	eb000f33 	bl	4df8 <__gnu_fractsasf>
    1128:	e1a01004 	mov	r1, r4
    112c:	eb000def 	bl	48f0 <__aeabi_fmul>
    1130:	eb000f38 	bl	4e18 <__gnu_fractsfsa>
    1134:	eb000354 	bl	1e8c <expk>
    1138:	eb000f2e 	bl	4df8 <__gnu_fractsasf>
    113c:	e59f3548 	ldr	r3, [pc, #1352]	; 168c <SV_SIZE+0x68c>
    1140:	e5931004 	ldr	r1, [r3, #4]
    1144:	eb000de9 	bl	48f0 <__aeabi_fmul>
    1148:	e3a015fe 	mov	r1, #1065353216	; 0x3f800000
    114c:	eb000d3f 	bl	4650 <__addsf3>
    1150:	e59f3538 	ldr	r3, [pc, #1336]	; 1690 <SV_SIZE+0x690>
    1154:	e5934000 	ldr	r4, [r3]
    1158:	e1a01000 	mov	r1, r0
    115c:	e3a005fe 	mov	r0, #1065353216	; 0x3f800000
    1160:	eb000e48 	bl	4a88 <__aeabi_fdiv>
    1164:	e1a01004 	mov	r1, r4
    1168:	eb000d37 	bl	464c <__aeabi_fsub>
    116c:	e59f3518 	ldr	r3, [pc, #1304]	; 168c <SV_SIZE+0x68c>
    1170:	e593100c 	ldr	r1, [r3, #12]
    1174:	eb000ddd 	bl	48f0 <__aeabi_fmul>
    1178:	e1a01004 	mov	r1, r4
    117c:	eb000d33 	bl	4650 <__addsf3>
    1180:	e59f3504 	ldr	r3, [pc, #1284]	; 168c <SV_SIZE+0x68c>
    1184:	e3a015fe 	mov	r1, #1065353216	; 0x3f800000
    1188:	e5934010 	ldr	r4, [r3, #16]
    118c:	e59f34fc 	ldr	r3, [pc, #1276]	; 1690 <SV_SIZE+0x690>
    1190:	e1a05000 	mov	r5, r0
    1194:	e5830000 	str	r0, [r3]
    1198:	e1a00004 	mov	r0, r4
    119c:	eb000d2a 	bl	464c <__aeabi_fsub>
    11a0:	e3a015fe 	mov	r1, #1065353216	; 0x3f800000
    11a4:	e1a06000 	mov	r6, r0
    11a8:	e1a00004 	mov	r0, r4
    11ac:	eb000ecc 	bl	4ce4 <__aeabi_fcmpgt>
    11b0:	e3500000 	cmp	r0, #0
    11b4:	0a00012d 	beq	1670 <SV_SIZE+0x670>
    11b8:	e1a07005 	mov	r7, r5
    11bc:	e3a04000 	mov	r4, #0
    11c0:	e1a01005 	mov	r1, r5
    11c4:	e1a00007 	mov	r0, r7
    11c8:	eb000dc8 	bl	48f0 <__aeabi_fmul>
    11cc:	e2844001 	add	r4, r4, #1
    11d0:	e1a07000 	mov	r7, r0
    11d4:	e1a00004 	mov	r0, r4
    11d8:	eb000d8b 	bl	480c <__aeabi_ui2f>
    11dc:	e1a01006 	mov	r1, r6
    11e0:	eb000ead 	bl	4c9c <__aeabi_fcmplt>
    11e4:	e3500000 	cmp	r0, #0
    11e8:	1afffff4 	bne	11c0 <SV_SIZE+0x1c0>
    11ec:	e58d700c 	str	r7, [sp, #12]
    11f0:	e59f349c 	ldr	r3, [pc, #1180]	; 1694 <SV_SIZE+0x694>
    11f4:	e59d0008 	ldr	r0, [sp, #8]
    11f8:	e5937000 	ldr	r7, [r3]
    11fc:	e3a0b000 	mov	fp, #0
    1200:	e1a01007 	mov	r1, r7
    1204:	eb000aaf 	bl	3cc8 <__aeabi_uidivmod>
    1208:	e3510000 	cmp	r1, #0
    120c:	059d3018 	ldreq	r3, [sp, #24]
    1210:	02833001 	addeq	r3, r3, #1
    1214:	058d3018 	streq	r3, [sp, #24]
    1218:	e59f3478 	ldr	r3, [pc, #1144]	; 1698 <SV_SIZE+0x698>
    121c:	e58d3000 	str	r3, [sp]
    1220:	e59d9000 	ldr	r9, [sp]
    1224:	e59f3470 	ldr	r3, [pc, #1136]	; 169c <SV_SIZE+0x69c>
    1228:	e58d3004 	str	r3, [sp, #4]
    122c:	e59f346c 	ldr	r3, [pc, #1132]	; 16a0 <SV_SIZE+0x6a0>
    1230:	e5936000 	ldr	r6, [r3]
    1234:	e59f3450 	ldr	r3, [pc, #1104]	; 168c <SV_SIZE+0x68c>
    1238:	e5931000 	ldr	r1, [r3]
    123c:	e59f3440 	ldr	r3, [pc, #1088]	; 1684 <SV_SIZE+0x684>
    1240:	e5930000 	ldr	r0, [r3]
    1244:	eb000d00 	bl	464c <__aeabi_fsub>
    1248:	e1a01006 	mov	r1, r6
    124c:	eb000da7 	bl	48f0 <__aeabi_fmul>
    1250:	e59d100c 	ldr	r1, [sp, #12]
    1254:	eb000da5 	bl	48f0 <__aeabi_fmul>
    1258:	e59f3444 	ldr	r3, [pc, #1092]	; 16a4 <SV_SIZE+0x6a4>
    125c:	e5991050 	ldr	r1, [r9, #80]	; 0x50
    1260:	e793510b 	ldr	r5, [r3, fp, lsl #2]
    1264:	eb000da1 	bl	48f0 <__aeabi_fmul>
    1268:	e1a01005 	mov	r1, r5
    126c:	eb000cf7 	bl	4650 <__addsf3>
    1270:	e1a01006 	mov	r1, r6
    1274:	e1a08000 	mov	r8, r0
    1278:	e1a00005 	mov	r0, r5
    127c:	eb000d9b 	bl	48f0 <__aeabi_fmul>
    1280:	e5991000 	ldr	r1, [r9]
    1284:	eb000dff 	bl	4a88 <__aeabi_fdiv>
    1288:	e1a01000 	mov	r1, r0
    128c:	e1a00008 	mov	r0, r8
    1290:	eb000ced 	bl	464c <__aeabi_fsub>
    1294:	e59f3408 	ldr	r3, [pc, #1032]	; 16a4 <SV_SIZE+0x6a4>
    1298:	e1a01007 	mov	r1, r7
    129c:	e783010b 	str	r0, [r3, fp, lsl #2]
    12a0:	e1a05000 	mov	r5, r0
    12a4:	e59d0008 	ldr	r0, [sp, #8]
    12a8:	eb000a86 	bl	3cc8 <__aeabi_uidivmod>
    12ac:	e2893004 	add	r3, r9, #4
    12b0:	e58d3000 	str	r3, [sp]
    12b4:	e1a0910b 	lsl	r9, fp, #2
    12b8:	e2514000 	subs	r4, r1, #0
    12bc:	1a0000ba 	bne	15ac <SV_SIZE+0x5ac>
    12c0:	e59f33c4 	ldr	r3, [pc, #964]	; 168c <SV_SIZE+0x68c>
    12c4:	e2855102 	add	r5, r5, #-2147483648	; 0x80000000
    12c8:	e5937014 	ldr	r7, [r3, #20]
    12cc:	e1a00005 	mov	r0, r5
    12d0:	e1a01007 	mov	r1, r7
    12d4:	eb000d85 	bl	48f0 <__aeabi_fmul>
    12d8:	e59f33ac 	ldr	r3, [pc, #940]	; 168c <SV_SIZE+0x68c>
    12dc:	e1a0a000 	mov	sl, r0
    12e0:	e5930010 	ldr	r0, [r3, #16]
    12e4:	eb000e84 	bl	4cfc <__aeabi_f2uiz>
    12e8:	e2506001 	subs	r6, r0, #1
    12ec:	0a000007 	beq	1310 <SV_SIZE+0x310>
    12f0:	e1a08004 	mov	r8, r4
    12f4:	e1a0000a 	mov	r0, sl
    12f8:	e2888001 	add	r8, r8, #1
    12fc:	e1a01005 	mov	r1, r5
    1300:	eb000d7a 	bl	48f0 <__aeabi_fmul>
    1304:	e1580006 	cmp	r8, r6
    1308:	1afffffa 	bne	12f8 <SV_SIZE+0x2f8>
    130c:	e1a0a000 	mov	sl, r0
    1310:	e59f3390 	ldr	r3, [pc, #912]	; 16a8 <SV_SIZE+0x6a8>
    1314:	e1a00007 	mov	r0, r7
    1318:	e5931000 	ldr	r1, [r3]
    131c:	eb000d73 	bl	48f0 <__aeabi_fmul>
    1320:	e1a0100a 	mov	r1, sl
    1324:	eb000d71 	bl	48f0 <__aeabi_fmul>
    1328:	e59f337c 	ldr	r3, [pc, #892]	; 16ac <SV_SIZE+0x6ac>
    132c:	e7936009 	ldr	r6, [r3, r9]
    1330:	e59f3378 	ldr	r3, [pc, #888]	; 16b0 <SV_SIZE+0x6b0>
    1334:	e1a01006 	mov	r1, r6
    1338:	e0833009 	add	r3, r3, r9
    133c:	e1a07000 	mov	r7, r0
    1340:	e5930020 	ldr	r0, [r3, #32]
    1344:	eb000cc0 	bl	464c <__aeabi_fsub>
    1348:	e3a01000 	mov	r1, #0
    134c:	e1a05000 	mov	r5, r0
    1350:	eb000e5d 	bl	4ccc <__aeabi_fcmpge>
    1354:	e3500000 	cmp	r0, #0
    1358:	e1a00006 	mov	r0, r6
    135c:	03a05000 	moveq	r5, #0
    1360:	eb000e65 	bl	4cfc <__aeabi_f2uiz>
    1364:	e2506000 	subs	r6, r0, #0
    1368:	0a0000bb 	beq	165c <SV_SIZE+0x65c>
    136c:	e1a01007 	mov	r1, r7
    1370:	e3a005fe 	mov	r0, #1065353216	; 0x3f800000
    1374:	eb000cb4 	bl	464c <__aeabi_fsub>
    1378:	e1a08004 	mov	r8, r4
    137c:	e1a07000 	mov	r7, r0
    1380:	e3a005fe 	mov	r0, #1065353216	; 0x3f800000
    1384:	e2888001 	add	r8, r8, #1
    1388:	e1a01007 	mov	r1, r7
    138c:	eb000d57 	bl	48f0 <__aeabi_fmul>
    1390:	e1560008 	cmp	r6, r8
    1394:	1afffffa 	bne	1384 <SV_SIZE+0x384>
    1398:	e1a01000 	mov	r1, r0
    139c:	e3a005fe 	mov	r0, #1065353216	; 0x3f800000
    13a0:	eb000ca9 	bl	464c <__aeabi_fsub>
    13a4:	e1a06000 	mov	r6, r0
    13a8:	e59d2004 	ldr	r2, [sp, #4]
    13ac:	e59f0300 	ldr	r0, [pc, #768]	; 16b4 <SV_SIZE+0x6b4>
    13b0:	e5923000 	ldr	r3, [r2]
    13b4:	e3530000 	cmp	r3, #0
    13b8:	12433001 	subne	r3, r3, #1
    13bc:	15823000 	strne	r3, [r2]
    13c0:	eb000229 	bl	1c6c <mars_kiss64_seed>
    13c4:	eb000d10 	bl	480c <__aeabi_ui2f>
    13c8:	e59f32e8 	ldr	r3, [pc, #744]	; 16b8 <SV_SIZE+0x6b8>
    13cc:	e5931000 	ldr	r1, [r3]
    13d0:	eb000d46 	bl	48f0 <__aeabi_fmul>
    13d4:	e1a01006 	mov	r1, r6
    13d8:	eb000e2f 	bl	4c9c <__aeabi_fcmplt>
    13dc:	e3500000 	cmp	r0, #0
    13e0:	0a00007d 	beq	15dc <SV_SIZE+0x5dc>
    13e4:	e59d3004 	ldr	r3, [sp, #4]
    13e8:	e5933000 	ldr	r3, [r3]
    13ec:	e3530000 	cmp	r3, #0
    13f0:	0a00007d 	beq	15ec <SV_SIZE+0x5ec>
    13f4:	e3a03000 	mov	r3, #0
    13f8:	e58d3014 	str	r3, [sp, #20]
    13fc:	e3a035fe 	mov	r3, #1065353216	; 0x3f800000
    1400:	e58d3010 	str	r3, [sp, #16]
    1404:	e59f32a4 	ldr	r3, [pc, #676]	; 16b0 <SV_SIZE+0x6b0>
    1408:	e5931014 	ldr	r1, [r3, #20]
    140c:	e59f32a8 	ldr	r3, [pc, #680]	; 16bc <SV_SIZE+0x6bc>
    1410:	e7930009 	ldr	r0, [r3, r9]
    1414:	eb000d35 	bl	48f0 <__aeabi_fmul>
    1418:	e1a07000 	mov	r7, r0
    141c:	e1a00005 	mov	r0, r5
    1420:	eb000e35 	bl	4cfc <__aeabi_f2uiz>
    1424:	e2506000 	subs	r6, r0, #0
    1428:	0a00008d 	beq	1664 <SV_SIZE+0x664>
    142c:	e1a01007 	mov	r1, r7
    1430:	e3a005fe 	mov	r0, #1065353216	; 0x3f800000
    1434:	eb000c84 	bl	464c <__aeabi_fsub>
    1438:	e59f3270 	ldr	r3, [pc, #624]	; 16b0 <SV_SIZE+0x6b0>
    143c:	e5931010 	ldr	r1, [r3, #16]
    1440:	e1a08000 	mov	r8, r0
    1444:	e3a005fe 	mov	r0, #1065353216	; 0x3f800000
    1448:	e1a05000 	mov	r5, r0
    144c:	eb000c7e 	bl	464c <__aeabi_fsub>
    1450:	e1a0a005 	mov	sl, r5
    1454:	e1a07000 	mov	r7, r0
    1458:	e1a0000a 	mov	r0, sl
    145c:	e1a01008 	mov	r1, r8
    1460:	eb000d22 	bl	48f0 <__aeabi_fmul>
    1464:	e1a01007 	mov	r1, r7
    1468:	e2844001 	add	r4, r4, #1
    146c:	e1a0a000 	mov	sl, r0
    1470:	e1a00005 	mov	r0, r5
    1474:	eb000d1d 	bl	48f0 <__aeabi_fmul>
    1478:	e1540006 	cmp	r4, r6
    147c:	e1a05000 	mov	r5, r0
    1480:	1afffff4 	bne	1458 <SV_SIZE+0x458>
    1484:	e1a0100a 	mov	r1, sl
    1488:	e3a005fe 	mov	r0, #1065353216	; 0x3f800000
    148c:	eb000c6e 	bl	464c <__aeabi_fsub>
    1490:	e1a01005 	mov	r1, r5
    1494:	e1a04000 	mov	r4, r0
    1498:	e3a005fe 	mov	r0, #1065353216	; 0x3f800000
    149c:	eb000c6a 	bl	464c <__aeabi_fsub>
    14a0:	e1a05000 	mov	r5, r0
    14a4:	e59f0208 	ldr	r0, [pc, #520]	; 16b4 <SV_SIZE+0x6b4>
    14a8:	eb0001ef 	bl	1c6c <mars_kiss64_seed>
    14ac:	eb000cd6 	bl	480c <__aeabi_ui2f>
    14b0:	e59f3200 	ldr	r3, [pc, #512]	; 16b8 <SV_SIZE+0x6b8>
    14b4:	e59f7204 	ldr	r7, [pc, #516]	; 16c0 <SV_SIZE+0x6c0>
    14b8:	e5931000 	ldr	r1, [r3]
    14bc:	eb000d0b 	bl	48f0 <__aeabi_fmul>
    14c0:	e1a01004 	mov	r1, r4
    14c4:	eb000df4 	bl	4c9c <__aeabi_fcmplt>
    14c8:	e3500000 	cmp	r0, #0
    14cc:	e59f01e0 	ldr	r0, [pc, #480]	; 16b4 <SV_SIZE+0x6b4>
    14d0:	13a045fe 	movne	r4, #1065353216	; 0x3f800000
    14d4:	03a04000 	moveq	r4, #0
    14d8:	eb0001e3 	bl	1c6c <mars_kiss64_seed>
    14dc:	eb000cca 	bl	480c <__aeabi_ui2f>
    14e0:	e59f31d0 	ldr	r3, [pc, #464]	; 16b8 <SV_SIZE+0x6b8>
    14e4:	e5931000 	ldr	r1, [r3]
    14e8:	eb000d00 	bl	48f0 <__aeabi_fmul>
    14ec:	e1a01005 	mov	r1, r5
    14f0:	eb000de9 	bl	4c9c <__aeabi_fcmplt>
    14f4:	e59f31b0 	ldr	r3, [pc, #432]	; 16ac <SV_SIZE+0x6ac>
    14f8:	e59d8010 	ldr	r8, [sp, #16]
    14fc:	e1a01008 	mov	r1, r8
    1500:	e3500000 	cmp	r0, #0
    1504:	e7930009 	ldr	r0, [r3, r9]
    1508:	13a055fe 	movne	r5, #1065353216	; 0x3f800000
    150c:	03a05000 	moveq	r5, #0
    1510:	eb000c4d 	bl	464c <__aeabi_fsub>
    1514:	e1a01004 	mov	r1, r4
    1518:	eb000c4c 	bl	4650 <__addsf3>
    151c:	e1a01005 	mov	r1, r5
    1520:	eb000c4a 	bl	4650 <__addsf3>
    1524:	e59f3184 	ldr	r3, [pc, #388]	; 16b0 <SV_SIZE+0x6b0>
    1528:	e7995007 	ldr	r5, [r9, r7]
    152c:	e593601c 	ldr	r6, [r3, #28]
    1530:	e5931018 	ldr	r1, [r3, #24]
    1534:	e59f3170 	ldr	r3, [pc, #368]	; 16ac <SV_SIZE+0x6ac>
    1538:	e7830009 	str	r0, [r3, r9]
    153c:	e1a00006 	mov	r0, r6
    1540:	eb000c42 	bl	4650 <__addsf3>
    1544:	e1a01005 	mov	r1, r5
    1548:	eb000ce8 	bl	48f0 <__aeabi_fmul>
    154c:	e1a01000 	mov	r1, r0
    1550:	e1a00005 	mov	r0, r5
    1554:	eb000c3c 	bl	464c <__aeabi_fsub>
    1558:	e1a01008 	mov	r1, r8
    155c:	eb000c3b 	bl	4650 <__addsf3>
    1560:	e1a01005 	mov	r1, r5
    1564:	e7870009 	str	r0, [r7, r9]
    1568:	e1a00006 	mov	r0, r6
    156c:	eb000cdf 	bl	48f0 <__aeabi_fmul>
    1570:	e59f3144 	ldr	r3, [pc, #324]	; 16bc <SV_SIZE+0x6bc>
    1574:	e7931009 	ldr	r1, [r3, r9]
    1578:	eb000c34 	bl	4650 <__addsf3>
    157c:	e1a01004 	mov	r1, r4
    1580:	eb000c31 	bl	464c <__aeabi_fsub>
    1584:	e59f30ec 	ldr	r3, [pc, #236]	; 1678 <SV_SIZE+0x678>
    1588:	e59d2018 	ldr	r2, [sp, #24]
    158c:	e5933000 	ldr	r3, [r3]
    1590:	e59d1014 	ldr	r1, [sp, #20]
    1594:	e0222b93 	mla	r2, r3, fp, r2
    1598:	e2423107 	sub	r3, r2, #-1073741823	; 0xc0000001
    159c:	e59f2118 	ldr	r2, [pc, #280]	; 16bc <SV_SIZE+0x6bc>
    15a0:	e7820009 	str	r0, [r2, r9]
    15a4:	e59d201c 	ldr	r2, [sp, #28]
    15a8:	e7821103 	str	r1, [r2, r3, lsl #2]
    15ac:	e59f3110 	ldr	r3, [pc, #272]	; 16c4 <SV_SIZE+0x6c4>
    15b0:	e59d2000 	ldr	r2, [sp]
    15b4:	e28bb001 	add	fp, fp, #1
    15b8:	e1530002 	cmp	r3, r2
    15bc:	e59d3004 	ldr	r3, [sp, #4]
    15c0:	e2833004 	add	r3, r3, #4
    15c4:	e58d3004 	str	r3, [sp, #4]
    15c8:	0a00001b 	beq	163c <SV_SIZE+0x63c>
    15cc:	e59f30c0 	ldr	r3, [pc, #192]	; 1694 <SV_SIZE+0x694>
    15d0:	e1a09002 	mov	r9, r2
    15d4:	e5937000 	ldr	r7, [r3]
    15d8:	eaffff13 	b	122c <SV_SIZE+0x22c>
    15dc:	e3a03000 	mov	r3, #0
    15e0:	e58d3014 	str	r3, [sp, #20]
    15e4:	e58d3010 	str	r3, [sp, #16]
    15e8:	eaffff85 	b	1404 <SV_SIZE+0x404>
    15ec:	e59f00c0 	ldr	r0, [pc, #192]	; 16b4 <SV_SIZE+0x6b4>
    15f0:	eb00019d 	bl	1c6c <mars_kiss64_seed>
    15f4:	eb000c84 	bl	480c <__aeabi_ui2f>
    15f8:	e59f30b8 	ldr	r3, [pc, #184]	; 16b8 <SV_SIZE+0x6b8>
    15fc:	e5931000 	ldr	r1, [r3]
    1600:	eb000cba 	bl	48f0 <__aeabi_fmul>
    1604:	e3a015fe 	mov	r1, #1065353216	; 0x3f800000
    1608:	eb000c10 	bl	4650 <__addsf3>
    160c:	e59f309c 	ldr	r3, [pc, #156]	; 16b0 <SV_SIZE+0x6b0>
    1610:	e5931004 	ldr	r1, [r3, #4]
    1614:	eb000cb5 	bl	48f0 <__aeabi_fmul>
    1618:	e3a0143f 	mov	r1, #1056964608	; 0x3f000000
    161c:	eb000c0b 	bl	4650 <__addsf3>
    1620:	eb000db5 	bl	4cfc <__aeabi_f2uiz>
    1624:	e3a035fe 	mov	r3, #1065353216	; 0x3f800000
    1628:	e58d3014 	str	r3, [sp, #20]
    162c:	e58d3010 	str	r3, [sp, #16]
    1630:	e59d3004 	ldr	r3, [sp, #4]
    1634:	e5830000 	str	r0, [r3]
    1638:	eaffff71 	b	1404 <SV_SIZE+0x404>
    163c:	e59d3008 	ldr	r3, [sp, #8]
    1640:	e2833001 	add	r3, r3, #1
    1644:	e3530064 	cmp	r3, #100	; 0x64
    1648:	e58d3008 	str	r3, [sp, #8]
    164c:	1afffe64 	bne	fe4 <process_chan+0x44>
    1650:	e59d0024 	ldr	r0, [sp, #36]	; 0x24
    1654:	e28dd02c 	add	sp, sp, #44	; 0x2c
    1658:	e8bd8ff0 	pop	{r4, r5, r6, r7, r8, r9, sl, fp, pc}
    165c:	e3a06000 	mov	r6, #0
    1660:	eaffff50 	b	13a8 <SV_SIZE+0x3a8>
    1664:	e3a04000 	mov	r4, #0
    1668:	e1a05004 	mov	r5, r4
    166c:	eaffff8c 	b	14a4 <SV_SIZE+0x4a4>
    1670:	e58d500c 	str	r5, [sp, #12]
    1674:	eafffedd 	b	11f0 <SV_SIZE+0x1f0>
    1678:	004008d8 	.word	0x004008d8
    167c:	004006e0 	.word	0x004006e0
    1680:	004004dc 	.word	0x004004dc
    1684:	00400514 	.word	0x00400514
    1688:	004005f8 	.word	0x004005f8
    168c:	004007b0 	.word	0x004007b0
    1690:	00400594 	.word	0x00400594
    1694:	00400738 	.word	0x00400738
    1698:	004007c8 	.word	0x004007c8
    169c:	004006e4 	.word	0x004006e4
    16a0:	004007ac 	.word	0x004007ac
    16a4:	00400688 	.word	0x00400688
    16a8:	004004d8 	.word	0x004004d8
    16ac:	004005a0 	.word	0x004005a0
    16b0:	00400524 	.word	0x00400524
    16b4:	004008b8 	.word	0x004008b8
    16b8:	0040059c 	.word	0x0040059c
    16bc:	0040075c 	.word	0x0040075c
    16c0:	00400634 	.word	0x00400634
    16c4:	00400818 	.word	0x00400818

000016c8 <transfer_handler>:
    16c8:	e3510000 	cmp	r1, #0
    16cc:	e92d47f0 	push	{r4, r5, r6, r7, r8, r9, sl, lr}
    16d0:	1a000032 	bne	17a0 <transfer_handler+0xd8>
    16d4:	e59f3148 	ldr	r3, [pc, #328]	; 1824 <transfer_handler+0x15c>
    16d8:	e3a09421 	mov	r9, #553648128	; 0x21000000
    16dc:	e5930000 	ldr	r0, [r3]
    16e0:	e59f2140 	ldr	r2, [pc, #320]	; 1828 <transfer_handler+0x160>
    16e4:	e5993024 	ldr	r3, [r9, #36]	; 0x24
    16e8:	e5823000 	str	r3, [r2]
    16ec:	e0400003 	sub	r0, r0, r3
    16f0:	eb000c47 	bl	4814 <__aeabi_i2f>
    16f4:	e59f5130 	ldr	r5, [pc, #304]	; 182c <transfer_handler+0x164>
    16f8:	e59f7130 	ldr	r7, [pc, #304]	; 1830 <transfer_handler+0x168>
    16fc:	e5954000 	ldr	r4, [r5]
    1700:	e5973000 	ldr	r3, [r7]
    1704:	e0846084 	add	r6, r4, r4, lsl #1
    1708:	e59f2124 	ldr	r2, [pc, #292]	; 1834 <transfer_handler+0x16c>
    170c:	e1a06106 	lsl	r6, r6, #2
    1710:	e2844001 	add	r4, r4, #1
    1714:	e59f811c 	ldr	r8, [pc, #284]	; 1838 <transfer_handler+0x170>
    1718:	e5922000 	ldr	r2, [r2]
    171c:	e3520000 	cmp	r2, #0
    1720:	e7830006 	str	r0, [r3, r6]
    1724:	e5854000 	str	r4, [r5]
    1728:	e5993024 	ldr	r3, [r9, #36]	; 0x24
    172c:	e5883000 	str	r3, [r8]
    1730:	e59f3104 	ldr	r3, [pc, #260]	; 183c <transfer_handler+0x174>
    1734:	e5933000 	ldr	r3, [r3]
    1738:	1a00002f 	bne	17fc <transfer_handler+0x134>
    173c:	e3530000 	cmp	r3, #0
    1740:	e59f20f8 	ldr	r2, [pc, #248]	; 1840 <transfer_handler+0x178>
    1744:	0a00002f 	beq	1808 <transfer_handler+0x140>
    1748:	e59f30f4 	ldr	r3, [pc, #244]	; 1844 <transfer_handler+0x17c>
    174c:	e5921000 	ldr	r1, [r2]
    1750:	e5930000 	ldr	r0, [r3]
    1754:	ebfffe11 	bl	fa0 <process_chan>
    1758:	e59f30e8 	ldr	r3, [pc, #232]	; 1848 <transfer_handler+0x180>
    175c:	e5830000 	str	r0, [r3]
    1760:	e3a02421 	mov	r2, #553648128	; 0x21000000
    1764:	e5922024 	ldr	r2, [r2, #36]	; 0x24
    1768:	e5953000 	ldr	r3, [r5]
    176c:	e5980000 	ldr	r0, [r8]
    1770:	e59f10d4 	ldr	r1, [pc, #212]	; 184c <transfer_handler+0x184>
    1774:	e5974000 	ldr	r4, [r7]
    1778:	e0833083 	add	r3, r3, r3, lsl #1
    177c:	e5812000 	str	r2, [r1]
    1780:	e0400002 	sub	r0, r0, r2
    1784:	e0844103 	add	r4, r4, r3, lsl #2
    1788:	eb000c21 	bl	4814 <__aeabi_i2f>
    178c:	e3a01000 	mov	r1, #0
    1790:	e5040008 	str	r0, [r4, #-8]
    1794:	e1a00001 	mov	r0, r1
    1798:	e8bd47f0 	pop	{r4, r5, r6, r7, r8, r9, sl, lr}
    179c:	ea000e03 	b	4fb0 <__spin1_trigger_user_event_from_arm>
    17a0:	e3510001 	cmp	r1, #1
    17a4:	18bd87f0 	popne	{r4, r5, r6, r7, r8, r9, sl, pc}
    17a8:	e59f10a0 	ldr	r1, [pc, #160]	; 1850 <transfer_handler+0x188>
    17ac:	e59f3078 	ldr	r3, [pc, #120]	; 182c <transfer_handler+0x164>
    17b0:	e59fc078 	ldr	ip, [pc, #120]	; 1830 <transfer_handler+0x168>
    17b4:	e3a02421 	mov	r2, #553648128	; 0x21000000
    17b8:	e5922024 	ldr	r2, [r2, #36]	; 0x24
    17bc:	e5910000 	ldr	r0, [r1]
    17c0:	e5933000 	ldr	r3, [r3]
    17c4:	e59f1088 	ldr	r1, [pc, #136]	; 1854 <transfer_handler+0x18c>
    17c8:	e59c4000 	ldr	r4, [ip]
    17cc:	e0833083 	add	r3, r3, r3, lsl #1
    17d0:	e0400002 	sub	r0, r0, r2
    17d4:	e5812000 	str	r2, [r1]
    17d8:	e0844103 	add	r4, r4, r3, lsl #2
    17dc:	eb000c0c 	bl	4814 <__aeabi_i2f>
    17e0:	e59f2054 	ldr	r2, [pc, #84]	; 183c <transfer_handler+0x174>
    17e4:	e5923000 	ldr	r3, [r2]
    17e8:	e16f3f13 	clz	r3, r3
    17ec:	e1a032a3 	lsr	r3, r3, #5
    17f0:	e5040004 	str	r0, [r4, #-4]
    17f4:	e5823000 	str	r3, [r2]
    17f8:	e8bd87f0 	pop	{r4, r5, r6, r7, r8, r9, sl, pc}
    17fc:	e3530000 	cmp	r3, #0
    1800:	e59f2050 	ldr	r2, [pc, #80]	; 1858 <transfer_handler+0x190>
    1804:	1affffcf 	bne	1748 <transfer_handler+0x80>
    1808:	e59f304c 	ldr	r3, [pc, #76]	; 185c <transfer_handler+0x194>
    180c:	e5921000 	ldr	r1, [r2]
    1810:	e5930000 	ldr	r0, [r3]
    1814:	ebfffde1 	bl	fa0 <process_chan>
    1818:	e59f3040 	ldr	r3, [pc, #64]	; 1860 <transfer_handler+0x198>
    181c:	e5830000 	str	r0, [r3]
    1820:	eaffffce 	b	1760 <transfer_handler+0x98>
    1824:	0040074c 	.word	0x0040074c
    1828:	004008cc 	.word	0x004008cc
    182c:	004006e0 	.word	0x004006e0
    1830:	004008d4 	.word	0x004008d4
    1834:	00400520 	.word	0x00400520
    1838:	004005f4 	.word	0x004005f4
    183c:	00400734 	.word	0x00400734
    1840:	00400684 	.word	0x00400684
    1844:	0040051c 	.word	0x0040051c
    1848:	004008c8 	.word	0x004008c8
    184c:	004005f0 	.word	0x004005f0
    1850:	0040073c 	.word	0x0040073c
    1854:	00400744 	.word	0x00400744
    1858:	00400758 	.word	0x00400758
    185c:	00400748 	.word	0x00400748
    1860:	004006dc 	.word	0x004006dc

00001864 <app_done>:
    1864:	e92d4070 	push	{r4, r5, r6, lr}
    1868:	e59f406c 	ldr	r4, [pc, #108]	; 18dc <app_done+0x78>
    186c:	e5945000 	ldr	r5, [r4]
    1870:	fa0006b5 	blx	334c <spin1_get_simulation_time>
    1874:	e1a02005 	mov	r2, r5
    1878:	e59f1060 	ldr	r1, [pc, #96]	; 18e0 <app_done+0x7c>
    187c:	e1a03000 	mov	r3, r0
    1880:	e3a00002 	mov	r0, #2
    1884:	fa00051c 	blx	2cfc <io_printf>
    1888:	e59f3054 	ldr	r3, [pc, #84]	; 18e4 <app_done+0x80>
    188c:	e59f2054 	ldr	r2, [pc, #84]	; 18e8 <app_done+0x84>
    1890:	e5933000 	ldr	r3, [r3]
    1894:	e5922000 	ldr	r2, [r2]
    1898:	e2830e95 	add	r0, r3, #2384	; 0x950
    189c:	e280000c 	add	r0, r0, #12
    18a0:	e2433004 	sub	r3, r3, #4
    18a4:	e2422004 	sub	r2, r2, #4
    18a8:	e5b31004 	ldr	r1, [r3, #4]!
    18ac:	e5a21004 	str	r1, [r2, #4]!
    18b0:	e1530000 	cmp	r3, r0
    18b4:	1afffffb 	bne	18a8 <app_done+0x44>
    18b8:	e5942000 	ldr	r2, [r4]
    18bc:	e59f1028 	ldr	r1, [pc, #40]	; 18ec <app_done+0x88>
    18c0:	e3a00002 	mov	r0, #2
    18c4:	fa00050c 	blx	2cfc <io_printf>
    18c8:	e5942000 	ldr	r2, [r4]
    18cc:	e59f101c 	ldr	r1, [pc, #28]	; 18f0 <app_done+0x8c>
    18d0:	e3a00002 	mov	r0, #2
    18d4:	e8bd4070 	pop	{r4, r5, r6, lr}
    18d8:	ea000db2 	b	4fa8 <__io_printf_from_arm>
    18dc:	00400750 	.word	0x00400750
    18e0:	000050ec 	.word	0x000050ec
    18e4:	004008d4 	.word	0x004008d4
    18e8:	00400598 	.word	0x00400598
    18ec:	00005114 	.word	0x00005114
    18f0:	00005134 	.word	0x00005134

000018f4 <c_main>:
    18f4:	e92d4070 	push	{r4, r5, r6, lr}
    18f8:	fa000755 	blx	3654 <spin1_get_core_id>
    18fc:	e59f40c0 	ldr	r4, [pc, #192]	; 19c4 <c_main+0xd0>
    1900:	e5840000 	str	r0, [r4]
    1904:	fa000755 	blx	3660 <spin1_get_chip_id>
    1908:	e59f30b8 	ldr	r3, [pc, #184]	; 19c8 <c_main+0xd4>
    190c:	e5830000 	str	r0, [r3]
    1910:	e59f00b4 	ldr	r0, [pc, #180]	; 19cc <c_main+0xd8>
    1914:	fa000698 	blx	337c <spin1_set_timer_tick>
    1918:	e3a02000 	mov	r2, #0
    191c:	e59f10ac 	ldr	r1, [pc, #172]	; 19d0 <c_main+0xdc>
    1920:	e3a00001 	mov	r0, #1
    1924:	fa000665 	blx	32c0 <spin1_callback_on>
    1928:	e3e02000 	mvn	r2, #0
    192c:	e59f10a0 	ldr	r1, [pc, #160]	; 19d4 <c_main+0xe0>
    1930:	e3a00002 	mov	r0, #2
    1934:	fa000661 	blx	32c0 <spin1_callback_on>
    1938:	e3a02000 	mov	r2, #0
    193c:	e59f1094 	ldr	r1, [pc, #148]	; 19d8 <c_main+0xe4>
    1940:	e3a00004 	mov	r0, #4
    1944:	fa00065d 	blx	32c0 <spin1_callback_on>
    1948:	ebfffb16 	bl	5a8 <app_init>
    194c:	e3a00001 	mov	r0, #1
    1950:	fa000712 	blx	35a0 <spin1_start>
    1954:	e5945000 	ldr	r5, [r4]
    1958:	fa00067b 	blx	334c <spin1_get_simulation_time>
    195c:	e1a02005 	mov	r2, r5
    1960:	e59f1074 	ldr	r1, [pc, #116]	; 19dc <c_main+0xe8>
    1964:	e1a03000 	mov	r3, r0
    1968:	e3a00002 	mov	r0, #2
    196c:	fa0004e2 	blx	2cfc <io_printf>
    1970:	e59f3068 	ldr	r3, [pc, #104]	; 19e0 <c_main+0xec>
    1974:	e59f2068 	ldr	r2, [pc, #104]	; 19e4 <c_main+0xf0>
    1978:	e5933000 	ldr	r3, [r3]
    197c:	e5922000 	ldr	r2, [r2]
    1980:	e2830e95 	add	r0, r3, #2384	; 0x950
    1984:	e280000c 	add	r0, r0, #12
    1988:	e2433004 	sub	r3, r3, #4
    198c:	e2422004 	sub	r2, r2, #4
    1990:	e5b31004 	ldr	r1, [r3, #4]!
    1994:	e5a21004 	str	r1, [r2, #4]!
    1998:	e1530000 	cmp	r3, r0
    199c:	1afffffb 	bne	1990 <c_main+0x9c>
    19a0:	e5942000 	ldr	r2, [r4]
    19a4:	e59f103c 	ldr	r1, [pc, #60]	; 19e8 <c_main+0xf4>
    19a8:	e3a00002 	mov	r0, #2
    19ac:	fa0004d2 	blx	2cfc <io_printf>
    19b0:	e5942000 	ldr	r2, [r4]
    19b4:	e59f1030 	ldr	r1, [pc, #48]	; 19ec <c_main+0xf8>
    19b8:	e3a00002 	mov	r0, #2
    19bc:	e8bd4070 	pop	{r4, r5, r6, lr}
    19c0:	ea000d78 	b	4fa8 <__io_printf_from_arm>
    19c4:	00400750 	.word	0x00400750
    19c8:	00400754 	.word	0x00400754
    19cc:	0000ea60 	.word	0x0000ea60
    19d0:	000016c8 	.word	0x000016c8
    19d4:	0000043c 	.word	0x0000043c
    19d8:	000003a8 	.word	0x000003a8
    19dc:	000050ec 	.word	0x000050ec
    19e0:	004008d4 	.word	0x004008d4
    19e4:	00400598 	.word	0x00400598
    19e8:	00005114 	.word	0x00005114
    19ec:	00005134 	.word	0x00005134

000019f0 <init_WELL1024a_simp>:
    19f0:	e92d41f0 	push	{r4, r5, r6, r7, r8, lr}
    19f4:	e59f7060 	ldr	r7, [pc, #96]	; 1a5c <init_WELL1024a_simp+0x6c>
    19f8:	e59fe060 	ldr	lr, [pc, #96]	; 1a60 <init_WELL1024a_simp+0x70>
    19fc:	e897110c 	ldm	r7, {r2, r3, r8, ip}
    1a00:	e59f605c 	ldr	r6, [pc, #92]	; 1a64 <init_WELL1024a_simp+0x74>
    1a04:	e59f505c 	ldr	r5, [pc, #92]	; 1a68 <init_WELL1024a_simp+0x78>
    1a08:	e28e4080 	add	r4, lr, #128	; 0x80
    1a0c:	e1a0000c 	mov	r0, ip
    1a10:	e3a01000 	mov	r1, #0
    1a14:	e00c0296 	mul	ip, r6, r2
    1a18:	e0a10895 	umlal	r0, r1, r5, r8
    1a1c:	e59f2048 	ldr	r2, [pc, #72]	; 1a6c <init_WELL1024a_simp+0x7c>
    1a20:	e0233283 	eor	r3, r3, r3, lsl #5
    1a24:	e02333a3 	eor	r3, r3, r3, lsr #7
    1a28:	e08c2002 	add	r2, ip, r2
    1a2c:	e0233b03 	eor	r3, r3, r3, lsl #22
    1a30:	e082c000 	add	ip, r2, r0
    1a34:	e08cc003 	add	ip, ip, r3
    1a38:	e5aec004 	str	ip, [lr, #4]!
    1a3c:	e15e0004 	cmp	lr, r4
    1a40:	e1a0c001 	mov	ip, r1
    1a44:	e1a08000 	mov	r8, r0
    1a48:	1affffef 	bne	1a0c <init_WELL1024a_simp+0x1c>
    1a4c:	e887000c 	stm	r7, {r2, r3}
    1a50:	e587100c 	str	r1, [r7, #12]
    1a54:	e5870008 	str	r0, [r7, #8]
    1a58:	e8bd81f0 	pop	{r4, r5, r6, r7, r8, pc}
    1a5c:	00400000 	.word	0x00400000
    1a60:	00400104 	.word	0x00400104
    1a64:	12bf507d 	.word	0x12bf507d
    1a68:	fffa2849 	.word	0xfffa2849
    1a6c:	0012d687 	.word	0x0012d687

00001a70 <WELL1024a_simp>:
    1a70:	e59f1078 	ldr	r1, [pc, #120]	; 1af0 <WELL1024a_simp+0x80>
    1a74:	e92d4030 	push	{r4, r5, lr}
    1a78:	e591e080 	ldr	lr, [r1, #128]	; 0x80
    1a7c:	e28e4003 	add	r4, lr, #3
    1a80:	e28e3018 	add	r3, lr, #24
    1a84:	e28e200a 	add	r2, lr, #10
    1a88:	e204401f 	and	r4, r4, #31
    1a8c:	e7914104 	ldr	r4, [r1, r4, lsl #2]
    1a90:	e791010e 	ldr	r0, [r1, lr, lsl #2]
    1a94:	e202201f 	and	r2, r2, #31
    1a98:	e28ec01f 	add	ip, lr, #31
    1a9c:	e203301f 	and	r3, r3, #31
    1aa0:	e7915102 	ldr	r5, [r1, r2, lsl #2]
    1aa4:	e7913103 	ldr	r3, [r1, r3, lsl #2]
    1aa8:	e20cc01f 	and	ip, ip, #31
    1aac:	e791210c 	ldr	r2, [r1, ip, lsl #2]
    1ab0:	e0200004 	eor	r0, r0, r4
    1ab4:	e0200424 	eor	r0, r0, r4, lsr #8
    1ab8:	e0234005 	eor	r4, r3, r5
    1abc:	e0243983 	eor	r3, r4, r3, lsl #19
    1ac0:	e0222582 	eor	r2, r2, r2, lsl #11
    1ac4:	e0233705 	eor	r3, r3, r5, lsl #14
    1ac8:	e0222000 	eor	r2, r2, r0
    1acc:	e0222003 	eor	r2, r2, r3
    1ad0:	e0222380 	eor	r2, r2, r0, lsl #7
    1ad4:	e0200003 	eor	r0, r0, r3
    1ad8:	e0223683 	eor	r3, r2, r3, lsl #13
    1adc:	e781010e 	str	r0, [r1, lr, lsl #2]
    1ae0:	e581c080 	str	ip, [r1, #128]	; 0x80
    1ae4:	e1a00003 	mov	r0, r3
    1ae8:	e781310c 	str	r3, [r1, ip, lsl #2]
    1aec:	e8bd8030 	pop	{r4, r5, pc}
    1af0:	00400108 	.word	0x00400108

00001af4 <validate_WELL1024a_seed>:
    1af4:	e3a03000 	mov	r3, #0
    1af8:	e5803084 	str	r3, [r0, #132]	; 0x84
    1afc:	e12fff1e 	bx	lr

00001b00 <WELL1024a_seed>:
    1b00:	e92d4070 	push	{r4, r5, r6, lr}
    1b04:	e590e084 	ldr	lr, [r0, #132]	; 0x84
    1b08:	e28e3018 	add	r3, lr, #24
    1b0c:	e28ec00a 	add	ip, lr, #10
    1b10:	e28e4003 	add	r4, lr, #3
    1b14:	e203301f 	and	r3, r3, #31
    1b18:	e20cc01f 	and	ip, ip, #31
    1b1c:	e7901103 	ldr	r1, [r0, r3, lsl #2]
    1b20:	e790510c 	ldr	r5, [r0, ip, lsl #2]
    1b24:	e204401f 	and	r4, r4, #31
    1b28:	e7906104 	ldr	r6, [r0, r4, lsl #2]
    1b2c:	e790c10e 	ldr	ip, [r0, lr, lsl #2]
    1b30:	e28e401f 	add	r4, lr, #31
    1b34:	e0212005 	eor	r2, r1, r5
    1b38:	e204401f 	and	r4, r4, #31
    1b3c:	e7903104 	ldr	r3, [r0, r4, lsl #2]
    1b40:	e02cc006 	eor	ip, ip, r6
    1b44:	e0222981 	eor	r2, r2, r1, lsl #19
    1b48:	e0221705 	eor	r1, r2, r5, lsl #14
    1b4c:	e02cc426 	eor	ip, ip, r6, lsr #8
    1b50:	e02c4001 	eor	r4, ip, r1
    1b54:	e0232583 	eor	r2, r3, r3, lsl #11
    1b58:	e780410e 	str	r4, [r0, lr, lsl #2]
    1b5c:	e022200c 	eor	r2, r2, ip
    1b60:	e590e084 	ldr	lr, [r0, #132]	; 0x84
    1b64:	e0222001 	eor	r2, r2, r1
    1b68:	e022338c 	eor	r3, r2, ip, lsl #7
    1b6c:	e28e201f 	add	r2, lr, #31
    1b70:	e0233681 	eor	r3, r3, r1, lsl #13
    1b74:	e202201f 	and	r2, r2, #31
    1b78:	e7803102 	str	r3, [r0, r2, lsl #2]
    1b7c:	e5903084 	ldr	r3, [r0, #132]	; 0x84
    1b80:	e283301f 	add	r3, r3, #31
    1b84:	e203301f 	and	r3, r3, #31
    1b88:	e5803084 	str	r3, [r0, #132]	; 0x84
    1b8c:	e7900103 	ldr	r0, [r0, r3, lsl #2]
    1b90:	e8bd8070 	pop	{r4, r5, r6, pc}

00001b94 <mars_kiss32>:
    1b94:	e59f205c 	ldr	r2, [pc, #92]	; 1bf8 <mars_kiss32+0x64>
    1b98:	e92d4030 	push	{r4, r5, lr}
    1b9c:	e59f4058 	ldr	r4, [pc, #88]	; 1bfc <mars_kiss32+0x68>
    1ba0:	e5925014 	ldr	r5, [r2, #20]
    1ba4:	e5921018 	ldr	r1, [r2, #24]
    1ba8:	e594e084 	ldr	lr, [r4, #132]	; 0x84
    1bac:	e5923010 	ldr	r3, [r2, #16]
    1bb0:	e592001c 	ldr	r0, [r2, #28]
    1bb4:	e0851001 	add	r1, r5, r1
    1bb8:	e59fc040 	ldr	ip, [pc, #64]	; 1c00 <mars_kiss32+0x6c>
    1bbc:	e081100e 	add	r1, r1, lr
    1bc0:	e0233283 	eor	r3, r3, r3, lsl #5
    1bc4:	e3c1e102 	bic	lr, r1, #-2147483648	; 0x80000000
    1bc8:	e080c00c 	add	ip, r0, ip
    1bcc:	e02333a3 	eor	r3, r3, r3, lsr #7
    1bd0:	e0233b03 	eor	r3, r3, r3, lsl #22
    1bd4:	e1a01fa1 	lsr	r1, r1, #31
    1bd8:	e08e000c 	add	r0, lr, ip
    1bdc:	e5825018 	str	r5, [r2, #24]
    1be0:	e5841084 	str	r1, [r4, #132]	; 0x84
    1be4:	e582e014 	str	lr, [r2, #20]
    1be8:	e582c01c 	str	ip, [r2, #28]
    1bec:	e0800003 	add	r0, r0, r3
    1bf0:	e5823010 	str	r3, [r2, #16]
    1bf4:	e8bd8030 	pop	{r4, r5, pc}
    1bf8:	00400000 	.word	0x00400000
    1bfc:	00400108 	.word	0x00400108
    1c00:	542023ab 	.word	0x542023ab

00001c04 <mars_kiss64_simp>:
    1c04:	e59f2050 	ldr	r2, [pc, #80]	; 1c5c <mars_kiss64_simp+0x58>
    1c08:	e92d4030 	push	{r4, r5, lr}
    1c0c:	e59f304c 	ldr	r3, [pc, #76]	; 1c60 <mars_kiss64_simp+0x5c>
    1c10:	e592400c 	ldr	r4, [r2, #12]
    1c14:	e592e008 	ldr	lr, [r2, #8]
    1c18:	e592c000 	ldr	ip, [r2]
    1c1c:	e59f0040 	ldr	r0, [pc, #64]	; 1c64 <mars_kiss64_simp+0x60>
    1c20:	e3a05000 	mov	r5, #0
    1c24:	e59f103c 	ldr	r1, [pc, #60]	; 1c68 <mars_kiss64_simp+0x64>
    1c28:	e0a54e93 	umlal	r4, r5, r3, lr
    1c2c:	e5923004 	ldr	r3, [r2, #4]
    1c30:	e0211c90 	mla	r1, r0, ip, r1
    1c34:	e0233283 	eor	r3, r3, r3, lsl #5
    1c38:	e02333a3 	eor	r3, r3, r3, lsr #7
    1c3c:	e0233b03 	eor	r3, r3, r3, lsl #22
    1c40:	e0810004 	add	r0, r1, r4
    1c44:	e582500c 	str	r5, [r2, #12]
    1c48:	e5824008 	str	r4, [r2, #8]
    1c4c:	e5821000 	str	r1, [r2]
    1c50:	e0800003 	add	r0, r0, r3
    1c54:	e5823004 	str	r3, [r2, #4]
    1c58:	e8bd8030 	pop	{r4, r5, pc}
    1c5c:	00400000 	.word	0x00400000
    1c60:	fffa2849 	.word	0xfffa2849
    1c64:	12bf507d 	.word	0x12bf507d
    1c68:	0012d687 	.word	0x0012d687

00001c6c <mars_kiss64_seed>:
    1c6c:	e92d4030 	push	{r4, r5, lr}
    1c70:	e59f304c 	ldr	r3, [pc, #76]	; 1cc4 <mars_kiss64_seed+0x58>
    1c74:	e590400c 	ldr	r4, [r0, #12]
    1c78:	e590e008 	ldr	lr, [r0, #8]
    1c7c:	e1a02000 	mov	r2, r0
    1c80:	e590c000 	ldr	ip, [r0]
    1c84:	e3a05000 	mov	r5, #0
    1c88:	e59f0038 	ldr	r0, [pc, #56]	; 1cc8 <mars_kiss64_seed+0x5c>
    1c8c:	e59f1038 	ldr	r1, [pc, #56]	; 1ccc <mars_kiss64_seed+0x60>
    1c90:	e0a54e93 	umlal	r4, r5, r3, lr
    1c94:	e5923004 	ldr	r3, [r2, #4]
    1c98:	e0211c90 	mla	r1, r0, ip, r1
    1c9c:	e0233283 	eor	r3, r3, r3, lsl #5
    1ca0:	e02333a3 	eor	r3, r3, r3, lsr #7
    1ca4:	e0233b03 	eor	r3, r3, r3, lsl #22
    1ca8:	e0810004 	add	r0, r1, r4
    1cac:	e582500c 	str	r5, [r2, #12]
    1cb0:	e5824008 	str	r4, [r2, #8]
    1cb4:	e5821000 	str	r1, [r2]
    1cb8:	e0800003 	add	r0, r0, r3
    1cbc:	e5823004 	str	r3, [r2, #4]
    1cc0:	e8bd8030 	pop	{r4, r5, pc}
    1cc4:	fffa2849 	.word	0xfffa2849
    1cc8:	12bf507d 	.word	0x12bf507d
    1ccc:	0012d687 	.word	0x0012d687

00001cd0 <validate_mars_kiss64_seed>:
    1cd0:	e5903004 	ldr	r3, [r0, #4]
    1cd4:	e59f2030 	ldr	r2, [pc, #48]	; 1d0c <validate_mars_kiss64_seed+0x3c>
    1cd8:	e3530000 	cmp	r3, #0
    1cdc:	059f302c 	ldreq	r3, [pc, #44]	; 1d10 <validate_mars_kiss64_seed+0x40>
    1ce0:	05803004 	streq	r3, [r0, #4]
    1ce4:	e590300c 	ldr	r3, [r0, #12]
    1ce8:	e1a01123 	lsr	r1, r3, #2
    1cec:	e082c291 	umull	ip, r2, r1, r2
    1cf0:	e59f101c 	ldr	r1, [pc, #28]	; 1d14 <validate_mars_kiss64_seed+0x44>
    1cf4:	e1a02d22 	lsr	r2, r2, #26
    1cf8:	e0020291 	mul	r2, r1, r2
    1cfc:	e0623003 	rsb	r3, r2, r3
    1d00:	e2833001 	add	r3, r3, #1
    1d04:	e580300c 	str	r3, [r0, #12]
    1d08:	e12fff1e 	bx	lr
    1d0c:	6257f735 	.word	0x6257f735
    1d10:	00c6d785 	.word	0x00c6d785
    1d14:	29a65eac 	.word	0x29a65eac

00001d18 <exponential_dist_variate>:
    1d18:	e92d47f0 	push	{r4, r5, r6, r7, r8, r9, sl, lr}
    1d1c:	e1a07000 	mov	r7, r0
    1d20:	e1a06001 	mov	r6, r1
    1d24:	e3a08000 	mov	r8, #0
    1d28:	e1a00006 	mov	r0, r6
    1d2c:	e12fff37 	blx	r7
    1d30:	e1a09000 	mov	r9, r0
    1d34:	e1a04000 	mov	r4, r0
    1d38:	ea000003 	b	1d4c <exponential_dist_variate+0x34>
    1d3c:	e12fff37 	blx	r7
    1d40:	e1550000 	cmp	r5, r0
    1d44:	e1a04000 	mov	r4, r0
    1d48:	9a000009 	bls	1d74 <exponential_dist_variate+0x5c>
    1d4c:	e1a00006 	mov	r0, r6
    1d50:	e12fff37 	blx	r7
    1d54:	e1a05000 	mov	r5, r0
    1d58:	e1540005 	cmp	r4, r5
    1d5c:	e1a00006 	mov	r0, r6
    1d60:	2afffff5 	bcs	1d3c <exponential_dist_variate+0x24>
    1d64:	e1a00009 	mov	r0, r9
    1d68:	eb000c28 	bl	4e10 <__gnu_fractusqsa>
    1d6c:	e0800008 	add	r0, r0, r8
    1d70:	e8bd87f0 	pop	{r4, r5, r6, r7, r8, r9, sl, pc}
    1d74:	e3a03902 	mov	r3, #32768	; 0x8000
    1d78:	e0888003 	add	r8, r8, r3
    1d7c:	eaffffe9 	b	1d28 <exponential_dist_variate+0x10>

00001d80 <gaussian_dist_variate>:
    1d80:	e1a03000 	mov	r3, r0
    1d84:	e92d4010 	push	{r4, lr}
    1d88:	e1a00001 	mov	r0, r1
    1d8c:	e12fff33 	blx	r3
    1d90:	e1a00840 	asr	r0, r0, #16
    1d94:	eb0000f2 	bl	2164 <__norminv_rbits>
    1d98:	e8bd8010 	pop	{r4, pc}

00001d9c <poisson_dist_variate>:
    1d9c:	e3a03000 	mov	r3, #0
    1da0:	e92d41f0 	push	{r4, r5, r6, r7, r8, lr}
    1da4:	e1a08000 	mov	r8, r0
    1da8:	e0430002 	sub	r0, r3, r2
    1dac:	e1a07001 	mov	r7, r1
    1db0:	eb000035 	bl	1e8c <expk>
    1db4:	eb000c0d 	bl	4df0 <__gnu_fractsausq>
    1db8:	e3a04000 	mov	r4, #0
    1dbc:	e3e05000 	mvn	r5, #0
    1dc0:	e1a06000 	mov	r6, r0
    1dc4:	ea000000 	b	1dcc <poisson_dist_variate+0x30>
    1dc8:	e1a04003 	mov	r4, r3
    1dcc:	e1a00007 	mov	r0, r7
    1dd0:	e12fff38 	blx	r8
    1dd4:	e1a01000 	mov	r1, r0
    1dd8:	e1a00005 	mov	r0, r5
    1ddc:	eb000bdb 	bl	4d50 <__gnu_mulusq3>
    1de0:	e1a01000 	mov	r1, r0
    1de4:	e1a05000 	mov	r5, r0
    1de8:	e1a00006 	mov	r0, r6
    1dec:	eb000bed 	bl	4da8 <__gnu_cmpusq2>
    1df0:	e2843001 	add	r3, r4, #1
    1df4:	e3500001 	cmp	r0, #1
    1df8:	3afffff2 	bcc	1dc8 <poisson_dist_variate+0x2c>
    1dfc:	e1a00004 	mov	r0, r4
    1e00:	e8bd81f0 	pop	{r4, r5, r6, r7, r8, pc}

00001e04 <poisson_dist_variate_exp_minus_lambda>:
    1e04:	e92d41f0 	push	{r4, r5, r6, r7, r8, lr}
    1e08:	e1a08000 	mov	r8, r0
    1e0c:	e1a07001 	mov	r7, r1
    1e10:	e1a06002 	mov	r6, r2
    1e14:	e3a04000 	mov	r4, #0
    1e18:	e3e05000 	mvn	r5, #0
    1e1c:	ea000000 	b	1e24 <poisson_dist_variate_exp_minus_lambda+0x20>
    1e20:	e1a04003 	mov	r4, r3
    1e24:	e1a00007 	mov	r0, r7
    1e28:	e12fff38 	blx	r8
    1e2c:	e1a01000 	mov	r1, r0
    1e30:	e1a00005 	mov	r0, r5
    1e34:	eb000bc5 	bl	4d50 <__gnu_mulusq3>
    1e38:	e1a01006 	mov	r1, r6
    1e3c:	e1a05000 	mov	r5, r0
    1e40:	eb000bd8 	bl	4da8 <__gnu_cmpusq2>
    1e44:	e2843001 	add	r3, r4, #1
    1e48:	e3500001 	cmp	r0, #1
    1e4c:	8afffff3 	bhi	1e20 <poisson_dist_variate_exp_minus_lambda+0x1c>
    1e50:	e1a00004 	mov	r0, r4
    1e54:	e8bd81f0 	pop	{r4, r5, r6, r7, r8, pc}

00001e58 <exp_series>:
    1e58:	e59f1028 	ldr	r1, [pc, #40]	; 1e88 <exp_series+0x30>
    1e5c:	e92d0030 	push	{r4, r5}
    1e60:	e0832190 	umull	r2, r3, r0, r1
    1e64:	e26334ff 	rsb	r3, r3, #-16777216	; 0xff000000
    1e68:	e283373a 	add	r3, r3, #15204352	; 0xe80000
    1e6c:	e2833c9d 	add	r3, r3, #40192	; 0x9d00
    1e70:	e2833060 	add	r3, r3, #96	; 0x60
    1e74:	e0854093 	umull	r4, r5, r3, r0
    1e78:	e2850d52 	add	r0, r5, #5248	; 0x1480
    1e7c:	e280002e 	add	r0, r0, #46	; 0x2e
    1e80:	e8bd0030 	pop	{r4, r5}
    1e84:	e12fff1e 	bx	lr
    1e88:	7c130fe0 	.word	0x7c130fe0

00001e8c <expk>:
    1e8c:	e59f3124 	ldr	r3, [pc, #292]	; 1fb8 <expk+0x12c>
    1e90:	e1500003 	cmp	r0, r3
    1e94:	ca00003f 	bgt	1f98 <expk+0x10c>
    1e98:	e59f311c 	ldr	r3, [pc, #284]	; 1fbc <expk+0x130>
    1e9c:	e1500003 	cmp	r0, r3
    1ea0:	ba00003a 	blt	1f90 <expk+0x104>
    1ea4:	e1a027c0 	asr	r2, r0, #15
    1ea8:	e0400782 	sub	r0, r0, r2, lsl #15
    1eac:	e3500000 	cmp	r0, #0
    1eb0:	da00003a 	ble	1fa0 <expk+0x114>
    1eb4:	e59f3104 	ldr	r3, [pc, #260]	; 1fc0 <expk+0x134>
    1eb8:	e2600902 	rsb	r0, r0, #32768	; 0x8000
    1ebc:	e1a015c0 	asr	r1, r0, #11
    1ec0:	e0831101 	add	r1, r3, r1, lsl #2
    1ec4:	e0833182 	add	r3, r3, r2, lsl #3
    1ec8:	e92d43f0 	push	{r4, r5, r6, r7, r8, r9, lr}
    1ecc:	e591c0d0 	ldr	ip, [r1, #208]	; 0xd0
    1ed0:	e1c347d0 	ldrd	r4, [r3, #112]	; 0x70
    1ed4:	e3a07000 	mov	r7, #0
    1ed8:	e0898c94 	umull	r8, r9, r4, ip
    1edc:	e1a06009 	mov	r6, r9
    1ee0:	e3a09000 	mov	r9, #0
    1ee4:	e1a02008 	mov	r2, r8
    1ee8:	e1570009 	cmp	r7, r9
    1eec:	e3e08106 	mvn	r8, #-2147483647	; 0x80000001
    1ef0:	01520008 	cmpeq	r2, r8
    1ef4:	9a000001 	bls	1f00 <expk+0x74>
    1ef8:	e2966001 	adds	r6, r6, #1
    1efc:	e2a77000 	adc	r7, r7, #0
    1f00:	e59fe0bc 	ldr	lr, [pc, #188]	; 1fc4 <expk+0x138>
    1f04:	e1a00880 	lsl	r0, r0, #17
    1f08:	e59f10b8 	ldr	r1, [pc, #184]	; 1fc8 <expk+0x13c>
    1f0c:	e00ee000 	and	lr, lr, r0
    1f10:	e083219e 	umull	r2, r3, lr, r1
    1f14:	e0810c95 	umull	r0, r1, r5, ip
    1f18:	e26334ff 	rsb	r3, r3, #-16777216	; 0xff000000
    1f1c:	e283373a 	add	r3, r3, #15204352	; 0xe80000
    1f20:	e2833c9d 	add	r3, r3, #40192	; 0x9d00
    1f24:	e2833060 	add	r3, r3, #96	; 0x60
    1f28:	e089839e 	umull	r8, r9, lr, r3
    1f2c:	e0544000 	subs	r4, r4, r0
    1f30:	e2893d52 	add	r3, r9, #5248	; 0x1480
    1f34:	e0c55001 	sbc	r5, r5, r1
    1f38:	e283302e 	add	r3, r3, #46	; 0x2e
    1f3c:	e0540006 	subs	r0, r4, r6
    1f40:	e0898390 	umull	r8, r9, r0, r3
    1f44:	e0c51007 	sbc	r1, r5, r7
    1f48:	e1a04009 	mov	r4, r9
    1f4c:	e3a05000 	mov	r5, #0
    1f50:	e3a09000 	mov	r9, #0
    1f54:	e1a06008 	mov	r6, r8
    1f58:	e1550009 	cmp	r5, r9
    1f5c:	e3e08106 	mvn	r8, #-2147483647	; 0x80000001
    1f60:	01560008 	cmpeq	r6, r8
    1f64:	9a000001 	bls	1f70 <expk+0xe4>
    1f68:	e2944001 	adds	r4, r4, #1
    1f6c:	e2a55000 	adc	r5, r5, #0
    1f70:	e0876391 	umull	r6, r7, r1, r3
    1f74:	e0500006 	subs	r0, r0, r6
    1f78:	e0c11007 	sbc	r1, r1, r7
    1f7c:	e0502004 	subs	r2, r0, r4
    1f80:	e0c13005 	sbc	r3, r1, r5
    1f84:	e1a008a2 	lsr	r0, r2, #17
    1f88:	e1800783 	orr	r0, r0, r3, lsl #15
    1f8c:	e8bd83f0 	pop	{r4, r5, r6, r7, r8, r9, pc}
    1f90:	e3a00000 	mov	r0, #0
    1f94:	e12fff1e 	bx	lr
    1f98:	e3e00102 	mvn	r0, #-2147483648	; 0x80000000
    1f9c:	e12fff1e 	bx	lr
    1fa0:	e59f3018 	ldr	r3, [pc, #24]	; 1fc0 <expk+0x134>
    1fa4:	e0833182 	add	r3, r3, r2, lsl #3
    1fa8:	e1c326d8 	ldrd	r2, [r3, #104]	; 0x68
    1fac:	e1a008a2 	lsr	r0, r2, #17
    1fb0:	e1800783 	orr	r0, r0, r3, lsl #15
    1fb4:	e12fff1e 	bx	lr
    1fb8:	00058b90 	.word	0x00058b90
    1fbc:	fffacd29 	.word	0xfffacd29
    1fc0:	00005168 	.word	0x00005168
    1fc4:	0ffe0000 	.word	0x0ffe0000
    1fc8:	7c130fe0 	.word	0x7c130fe0

00001fcc <lo_approx>:
    1fcc:	e59fc04c 	ldr	ip, [pc, #76]	; 2020 <P2P_TABLE_SIZE+0x20>
    1fd0:	e0803100 	add	r3, r0, r0, lsl #2
    1fd4:	e1a03103 	lsl	r3, r3, #2
    1fd8:	e08c2003 	add	r2, ip, r3
    1fdc:	e79c3003 	ldr	r3, [ip, r3]
    1fe0:	e592c004 	ldr	ip, [r2, #4]
    1fe4:	e123c183 	smlawb	r3, r3, r1, ip
    1fe8:	e592c008 	ldr	ip, [r2, #8]
    1fec:	e123c183 	smlawb	r3, r3, r1, ip
    1ff0:	e592c00c 	ldr	ip, [r2, #12]
    1ff4:	e123c183 	smlawb	r3, r3, r1, ip
    1ff8:	e5922010 	ldr	r2, [r2, #16]
    1ffc:	e1212183 	smlawb	r1, r3, r1, r2
    2000:	e59f201c 	ldr	r2, [pc, #28]	; 2024 <P2P_TABLE_SIZE+0x24>
    2004:	e1a03741 	asr	r3, r1, #14
    2008:	e2033001 	and	r3, r3, #1
    200c:	e7920100 	ldr	r0, [r2, r0, lsl #2]
    2010:	e08317c1 	add	r1, r3, r1, asr #15
    2014:	e1a01781 	lsl	r1, r1, #15
    2018:	e0800841 	add	r0, r0, r1, asr #16
    201c:	e12fff1e 	bx	lr
    2020:	00400020 	.word	0x00400020
    2024:	00005278 	.word	0x00005278

00002028 <mid_approx>:
    2028:	e2800005 	add	r0, r0, #5
    202c:	e59fc034 	ldr	ip, [pc, #52]	; 2068 <mid_approx+0x40>
    2030:	e0800100 	add	r0, r0, r0, lsl #2
    2034:	e1a03100 	lsl	r3, r0, #2
    2038:	e08c2003 	add	r2, ip, r3
    203c:	e5920004 	ldr	r0, [r2, #4]
    2040:	e79c3003 	ldr	r3, [ip, r3]
    2044:	e1230183 	smlawb	r3, r3, r1, r0
    2048:	e5920008 	ldr	r0, [r2, #8]
    204c:	e1230183 	smlawb	r3, r3, r1, r0
    2050:	e592000c 	ldr	r0, [r2, #12]
    2054:	e1230183 	smlawb	r3, r3, r1, r0
    2058:	e5920010 	ldr	r0, [r2, #16]
    205c:	e1200183 	smlawb	r0, r3, r1, r0
    2060:	e0800701 	add	r0, r0, r1, lsl #14
    2064:	e12fff1e 	bx	lr
    2068:	00400020 	.word	0x00400020

0000206c <tail_approx>:
    206c:	e2602009 	rsb	r2, r0, #9
    2070:	e92d4010 	push	{r4, lr}
    2074:	e260c00e 	rsb	ip, r0, #14
    2078:	e59f405c 	ldr	r4, [pc, #92]	; 20dc <tail_approx+0x70>
    207c:	e3a03001 	mov	r3, #1
    2080:	e082e102 	add	lr, r2, r2, lsl #2
    2084:	e0411c13 	sub	r1, r1, r3, lsl ip
    2088:	e1a0e10e 	lsl	lr, lr, #2
    208c:	e084c00e 	add	ip, r4, lr
    2090:	e0800003 	add	r0, r0, r3
    2094:	e1a00011 	lsl	r0, r1, r0
    2098:	e794300e 	ldr	r3, [r4, lr]
    209c:	e59ce004 	ldr	lr, [ip, #4]
    20a0:	e123e083 	smlawb	r3, r3, r0, lr
    20a4:	e59c1008 	ldr	r1, [ip, #8]
    20a8:	e1231083 	smlawb	r3, r3, r0, r1
    20ac:	e59c100c 	ldr	r1, [ip, #12]
    20b0:	e1231083 	smlawb	r3, r3, r0, r1
    20b4:	e59c1010 	ldr	r1, [ip, #16]
    20b8:	e1211083 	smlawb	r1, r3, r0, r1
    20bc:	e59f001c 	ldr	r0, [pc, #28]	; 20e0 <tail_approx+0x74>
    20c0:	e1a03741 	asr	r3, r1, #14
    20c4:	e2033001 	and	r3, r3, #1
    20c8:	e7900102 	ldr	r0, [r0, r2, lsl #2]
    20cc:	e08317c1 	add	r1, r3, r1, asr #15
    20d0:	e1a01781 	lsl	r1, r1, #15
    20d4:	e0800841 	add	r0, r0, r1, asr #16
    20d8:	e8bd8010 	pop	{r4, pc}
    20dc:	00400020 	.word	0x00400020
    20e0:	00005278 	.word	0x00005278

000020e4 <central_approx>:
    20e4:	e92d40f0 	push	{r4, r5, r6, r7, lr}
    20e8:	e1630181 	smulbb	r3, r1, r1
    20ec:	e59f7068 	ldr	r7, [pc, #104]	; 215c <central_approx+0x78>
    20f0:	e2602005 	rsb	r2, r0, #5
    20f4:	e0872102 	add	r2, r7, r2, lsl #2
    20f8:	e592c02c 	ldr	ip, [r2, #44]	; 0x2c
    20fc:	e5922044 	ldr	r2, [r2, #68]	; 0x44
    2100:	e06c38c3 	rsb	r3, ip, r3, asr #17
    2104:	e260e00a 	rsb	lr, r0, #10
    2108:	e0040392 	mul	r4, r2, r3
    210c:	e59f204c 	ldr	r2, [pc, #76]	; 2160 <central_approx+0x7c>
    2110:	e08e310e 	add	r3, lr, lr, lsl #2
    2114:	e1a03103 	lsl	r3, r3, #2
    2118:	e0826003 	add	r6, r2, r3
    211c:	e792c003 	ldr	ip, [r2, r3]
    2120:	e1a05084 	lsl	r5, r4, #1
    2124:	e5962004 	ldr	r2, [r6, #4]
    2128:	e12c258c 	smlawb	ip, ip, r5, r2
    212c:	e5962008 	ldr	r2, [r6, #8]
    2130:	e12c258c 	smlawb	ip, ip, r5, r2
    2134:	e596200c 	ldr	r2, [r6, #12]
    2138:	e12c258c 	smlawb	ip, ip, r5, r2
    213c:	e5963010 	ldr	r3, [r6, #16]
    2140:	e122358c 	smlawb	r2, ip, r5, r3
    2144:	e797010e 	ldr	r0, [r7, lr, lsl #2]
    2148:	e0823784 	add	r3, r2, r4, lsl #15
    214c:	e1a00680 	lsl	r0, r0, #13
    2150:	e0803843 	add	r3, r0, r3, asr #16
    2154:	e12001a3 	smulwb	r0, r3, r1
    2158:	e8bd80f0 	pop	{r4, r5, r6, r7, pc}
    215c:	00005278 	.word	0x00005278
    2160:	00400020 	.word	0x00400020

00002164 <__norminv_rbits>:
    2164:	e59f2148 	ldr	r2, [pc, #328]	; 22b4 <__norminv_rbits+0x150>
    2168:	e1a03000 	mov	r3, r0
    216c:	e1500002 	cmp	r0, r2
    2170:	aa000005 	bge	218c <__norminv_rbits+0x28>
    2174:	e59f213c 	ldr	r2, [pc, #316]	; 22b8 <__norminv_rbits+0x154>
    2178:	e2803902 	add	r3, r0, #32768	; 0x8000
    217c:	e0823103 	add	r3, r2, r3, lsl #2
    2180:	e593005c 	ldr	r0, [r3, #92]	; 0x5c
    2184:	e2600000 	rsb	r0, r0, #0
    2188:	e12fff1e 	bx	lr
    218c:	e2602902 	rsb	r2, r0, #32768	; 0x8000
    2190:	e352001f 	cmp	r2, #31
    2194:	e92d41f0 	push	{r4, r5, r6, r7, r8, lr}
    2198:	ca000005 	bgt	21b4 <__norminv_rbits+0x50>
    219c:	e59f1114 	ldr	r1, [pc, #276]	; 22b8 <__norminv_rbits+0x154>
    21a0:	e0812102 	add	r2, r1, r2, lsl #2
    21a4:	e592005c 	ldr	r0, [r2, #92]	; 0x5c
    21a8:	e3530000 	cmp	r3, #0
    21ac:	b2600000 	rsblt	r0, r0, #0
    21b0:	e8bd81f0 	pop	{r4, r5, r6, r7, r8, pc}
    21b4:	e0204fc0 	eor	r4, r0, r0, asr #31
    21b8:	e0444fc0 	sub	r4, r4, r0, asr #31
    21bc:	e2641902 	rsb	r1, r4, #32768	; 0x8000
    21c0:	e16fcf11 	clz	ip, r1
    21c4:	e24c2011 	sub	r2, ip, #17
    21c8:	e3520004 	cmp	r2, #4
    21cc:	da00001a 	ble	223c <__norminv_rbits+0xd8>
    21d0:	e262e009 	rsb	lr, r2, #9
    21d4:	e59f50e0 	ldr	r5, [pc, #224]	; 22bc <__norminv_rbits+0x158>
    21d8:	e262200e 	rsb	r2, r2, #14
    21dc:	e3a00001 	mov	r0, #1
    21e0:	e08e410e 	add	r4, lr, lr, lsl #2
    21e4:	e0411210 	sub	r1, r1, r0, lsl r2
    21e8:	e1a04104 	lsl	r4, r4, #2
    21ec:	e24c2010 	sub	r2, ip, #16
    21f0:	e0850004 	add	r0, r5, r4
    21f4:	e1a02211 	lsl	r2, r1, r2
    21f8:	e590c004 	ldr	ip, [r0, #4]
    21fc:	e7951004 	ldr	r1, [r5, r4]
    2200:	e121c281 	smlawb	r1, r1, r2, ip
    2204:	e590c008 	ldr	ip, [r0, #8]
    2208:	e121c281 	smlawb	r1, r1, r2, ip
    220c:	e590c00c 	ldr	ip, [r0, #12]
    2210:	e121c281 	smlawb	r1, r1, r2, ip
    2214:	e5900010 	ldr	r0, [r0, #16]
    2218:	e1210281 	smlawb	r1, r1, r2, r0
    221c:	e59f2094 	ldr	r2, [pc, #148]	; 22b8 <__norminv_rbits+0x154>
    2220:	e1a00741 	asr	r0, r1, #14
    2224:	e2000001 	and	r0, r0, #1
    2228:	e792210e 	ldr	r2, [r2, lr, lsl #2]
    222c:	e08007c1 	add	r0, r0, r1, asr #15
    2230:	e1a00780 	lsl	r0, r0, #15
    2234:	e0820840 	add	r0, r2, r0, asr #16
    2238:	eaffffda 	b	21a8 <__norminv_rbits+0x44>
    223c:	e24cc010 	sub	ip, ip, #16
    2240:	e1650484 	smulbb	r5, r4, r4
    2244:	e59f806c 	ldr	r8, [pc, #108]	; 22b8 <__norminv_rbits+0x154>
    2248:	e26c1005 	rsb	r1, ip, #5
    224c:	e0881101 	add	r1, r8, r1, lsl #2
    2250:	e591602c 	ldr	r6, [r1, #44]	; 0x2c
    2254:	e5910044 	ldr	r0, [r1, #68]	; 0x44
    2258:	e26ce00a 	rsb	lr, ip, #10
    225c:	e06628c5 	rsb	r2, r6, r5, asr #17
    2260:	e0050290 	mul	r5, r0, r2
    2264:	e59f1050 	ldr	r1, [pc, #80]	; 22bc <__norminv_rbits+0x158>
    2268:	e08e210e 	add	r2, lr, lr, lsl #2
    226c:	e1a02102 	lsl	r2, r2, #2
    2270:	e0817002 	add	r7, r1, r2
    2274:	e791c002 	ldr	ip, [r1, r2]
    2278:	e1a06085 	lsl	r6, r5, #1
    227c:	e5971004 	ldr	r1, [r7, #4]
    2280:	e12c168c 	smlawb	ip, ip, r6, r1
    2284:	e5971008 	ldr	r1, [r7, #8]
    2288:	e12c168c 	smlawb	ip, ip, r6, r1
    228c:	e597100c 	ldr	r1, [r7, #12]
    2290:	e12c168c 	smlawb	ip, ip, r6, r1
    2294:	e5970010 	ldr	r0, [r7, #16]
    2298:	e121068c 	smlawb	r1, ip, r6, r0
    229c:	e798210e 	ldr	r2, [r8, lr, lsl #2]
    22a0:	e0810785 	add	r0, r1, r5, lsl #15
    22a4:	e1a02682 	lsl	r2, r2, #13
    22a8:	e0822840 	add	r2, r2, r0, asr #16
    22ac:	e12004a2 	smulwb	r0, r2, r4
    22b0:	eaffffbc 	b	21a8 <__norminv_rbits+0x44>
    22b4:	ffff8020 	.word	0xffff8020
    22b8:	00005278 	.word	0x00005278
    22bc:	00400020 	.word	0x00400020

000022c0 <__norminv_ulrbits>:
    22c0:	e92d4010 	push	{r4, lr}
    22c4:	e3a030f3 	mov	r3, #243	; 0xf3
    22c8:	e1a04000 	mov	r4, r0
    22cc:	e59f2010 	ldr	r2, [pc, #16]	; 22e4 <__norminv_ulrbits+0x24>
    22d0:	e59f1010 	ldr	r1, [pc, #16]	; 22e8 <__norminv_ulrbits+0x28>
    22d4:	e3a00002 	mov	r0, #2
    22d8:	fa000287 	blx	2cfc <io_printf>
    22dc:	e1a00004 	mov	r0, r4
    22e0:	e8bd8010 	pop	{r4, pc}
    22e4:	00005358 	.word	0x00005358
    22e8:	00005368 	.word	0x00005368

000022ec <rte_handler>:
    22ec:	4b01      	ldr	r3, [pc, #4]	; (22f4 <rte_handler+0x8>)
    22ee:	2208      	movs	r2, #8
    22f0:	701a      	strb	r2, [r3, #0]
    22f2:	4770      	bx	lr
    22f4:	e5007f2b 	.word	0xe5007f2b

000022f8 <sark_cpu_state>:
    22f8:	4b02      	ldr	r3, [pc, #8]	; (2304 <sark_cpu_state+0xc>)
    22fa:	69db      	ldr	r3, [r3, #28]
    22fc:	332e      	adds	r3, #46	; 0x2e
    22fe:	7018      	strb	r0, [r3, #0]
    2300:	4770      	bx	lr
    2302:	46c0      	nop			; (mov r8, r8)
    2304:	004008dc 	.word	0x004008dc

00002308 <sark_app_lead>:
    2308:	235c      	movs	r3, #92	; 0x5c
    230a:	4a03      	ldr	r2, [pc, #12]	; (2318 <sark_app_lead+0x10>)
    230c:	781b      	ldrb	r3, [r3, #0]
    230e:	6812      	ldr	r2, [r2, #0]
    2310:	00db      	lsls	r3, r3, #3
    2312:	18d3      	adds	r3, r2, r3
    2314:	78d8      	ldrb	r0, [r3, #3]
    2316:	4770      	bx	lr
    2318:	e5007fe4 	.word	0xe5007fe4

0000231c <sark_block_init>:
    231c:	b530      	push	{r4, r5, lr}
    231e:	000b      	movs	r3, r1
    2320:	0004      	movs	r4, r0
    2322:	3b01      	subs	r3, #1
    2324:	2b00      	cmp	r3, #0
    2326:	d003      	beq.n	2330 <sark_block_init+0x14>
    2328:	18a5      	adds	r5, r4, r2
    232a:	6025      	str	r5, [r4, #0]
    232c:	002c      	movs	r4, r5
    232e:	e7f8      	b.n	2322 <sark_block_init+0x6>
    2330:	3901      	subs	r1, #1
    2332:	4351      	muls	r1, r2
    2334:	1840      	adds	r0, r0, r1
    2336:	6003      	str	r3, [r0, #0]
    2338:	bd30      	pop	{r4, r5, pc}
	...

0000233c <sark_msg_get>:
    233c:	b510      	push	{r4, lr}
    233e:	f7fd ef3c 	blx	1b8 <cpu_int_disable>
    2342:	4a09      	ldr	r2, [pc, #36]	; (2368 <sark_msg_get+0x2c>)
    2344:	6a14      	ldr	r4, [r2, #32]
    2346:	2c00      	cmp	r4, #0
    2348:	d00a      	beq.n	2360 <sark_msg_get+0x24>
    234a:	6823      	ldr	r3, [r4, #0]
    234c:	6213      	str	r3, [r2, #32]
    234e:	8c93      	ldrh	r3, [r2, #36]	; 0x24
    2350:	8cd1      	ldrh	r1, [r2, #38]	; 0x26
    2352:	3301      	adds	r3, #1
    2354:	041b      	lsls	r3, r3, #16
    2356:	0c1b      	lsrs	r3, r3, #16
    2358:	8493      	strh	r3, [r2, #36]	; 0x24
    235a:	4299      	cmp	r1, r3
    235c:	d200      	bcs.n	2360 <sark_msg_get+0x24>
    235e:	84d3      	strh	r3, [r2, #38]	; 0x26
    2360:	f7fd ef32 	blx	1c8 <cpu_int_restore>
    2364:	0020      	movs	r0, r4
    2366:	bd10      	pop	{r4, pc}
    2368:	004008dc 	.word	0x004008dc

0000236c <sark_msg_free>:
    236c:	b510      	push	{r4, lr}
    236e:	0004      	movs	r4, r0
    2370:	f7fd ef22 	blx	1b8 <cpu_int_disable>
    2374:	4b04      	ldr	r3, [pc, #16]	; (2388 <sark_msg_free+0x1c>)
    2376:	6a1a      	ldr	r2, [r3, #32]
    2378:	6022      	str	r2, [r4, #0]
    237a:	8c9a      	ldrh	r2, [r3, #36]	; 0x24
    237c:	621c      	str	r4, [r3, #32]
    237e:	3a01      	subs	r2, #1
    2380:	849a      	strh	r2, [r3, #36]	; 0x24
    2382:	f7fd ef22 	blx	1c8 <cpu_int_restore>
    2386:	bd10      	pop	{r4, pc}
    2388:	004008dc 	.word	0x004008dc

0000238c <sark_shmsg_get>:
    238c:	b510      	push	{r4, lr}
    238e:	2000      	movs	r0, #0
    2390:	f7fd ef22 	blx	1d8 <sark_lock_get>
    2394:	4a09      	ldr	r2, [pc, #36]	; (23bc <sark_shmsg_get+0x30>)
    2396:	6814      	ldr	r4, [r2, #0]
    2398:	2c00      	cmp	r4, #0
    239a:	d00a      	beq.n	23b2 <sark_shmsg_get+0x26>
    239c:	6823      	ldr	r3, [r4, #0]
    239e:	6013      	str	r3, [r2, #0]
    23a0:	8893      	ldrh	r3, [r2, #4]
    23a2:	88d1      	ldrh	r1, [r2, #6]
    23a4:	3301      	adds	r3, #1
    23a6:	041b      	lsls	r3, r3, #16
    23a8:	0c1b      	lsrs	r3, r3, #16
    23aa:	8093      	strh	r3, [r2, #4]
    23ac:	4299      	cmp	r1, r3
    23ae:	d200      	bcs.n	23b2 <sark_shmsg_get+0x26>
    23b0:	80d3      	strh	r3, [r2, #6]
    23b2:	2100      	movs	r1, #0
    23b4:	f7fd ef22 	blx	1fc <sark_lock_free>
    23b8:	0020      	movs	r0, r4
    23ba:	bd10      	pop	{r4, pc}
    23bc:	e5007f68 	.word	0xe5007f68

000023c0 <sark_shmsg_free>:
    23c0:	b510      	push	{r4, lr}
    23c2:	0004      	movs	r4, r0
    23c4:	2000      	movs	r0, #0
    23c6:	f7fd ef08 	blx	1d8 <sark_lock_get>
    23ca:	4b05      	ldr	r3, [pc, #20]	; (23e0 <sark_shmsg_free+0x20>)
    23cc:	2100      	movs	r1, #0
    23ce:	681a      	ldr	r2, [r3, #0]
    23d0:	6022      	str	r2, [r4, #0]
    23d2:	889a      	ldrh	r2, [r3, #4]
    23d4:	601c      	str	r4, [r3, #0]
    23d6:	3a01      	subs	r2, #1
    23d8:	809a      	strh	r2, [r3, #4]
    23da:	f7fd ef10 	blx	1fc <sark_lock_free>
    23de:	bd10      	pop	{r4, pc}
    23e0:	e5007f68 	.word	0xe5007f68

000023e4 <sark_call_cpp_constructors>:
    23e4:	b510      	push	{r4, lr}
    23e6:	4c04      	ldr	r4, [pc, #16]	; (23f8 <sark_call_cpp_constructors+0x14>)
    23e8:	4b04      	ldr	r3, [pc, #16]	; (23fc <sark_call_cpp_constructors+0x18>)
    23ea:	429c      	cmp	r4, r3
    23ec:	d202      	bcs.n	23f4 <sark_call_cpp_constructors+0x10>
    23ee:	cc08      	ldmia	r4!, {r3}
    23f0:	4798      	blx	r3
    23f2:	e7f9      	b.n	23e8 <sark_call_cpp_constructors+0x4>
    23f4:	bd10      	pop	{r4, pc}
    23f6:	46c0      	nop			; (mov r8, r8)
    23f8:	00004fb8 	.word	0x00004fb8
    23fc:	00004fb8 	.word	0x00004fb8

00002400 <sark_init>:
    2400:	b570      	push	{r4, r5, r6, lr}
    2402:	2520      	movs	r5, #32
    2404:	0004      	movs	r4, r0
    2406:	8c28      	ldrh	r0, [r5, #32]
    2408:	8c6a      	ldrh	r2, [r5, #34]	; 0x22
    240a:	0080      	lsls	r0, r0, #2
    240c:	1a20      	subs	r0, r4, r0
    240e:	21d2      	movs	r1, #210	; 0xd2
    2410:	f7fd eebe 	blx	190 <cpu_init_mode>
    2414:	8caa      	ldrh	r2, [r5, #36]	; 0x24
    2416:	21d1      	movs	r1, #209	; 0xd1
    2418:	f7fd eeba 	blx	190 <cpu_init_mode>
    241c:	2200      	movs	r2, #0
    241e:	21df      	movs	r1, #223	; 0xdf
    2420:	f7fd eeb6 	blx	190 <cpu_init_mode>
    2424:	8ce9      	ldrh	r1, [r5, #38]	; 0x26
    2426:	2658      	movs	r6, #88	; 0x58
    2428:	0889      	lsrs	r1, r1, #2
    242a:	0089      	lsls	r1, r1, #2
    242c:	1a61      	subs	r1, r4, r1
    242e:	4c35      	ldr	r4, [pc, #212]	; (2504 <sark_init+0x104>)
    2430:	6121      	str	r1, [r4, #16]
    2432:	6ae8      	ldr	r0, [r5, #44]	; 0x2c
    2434:	6160      	str	r0, [r4, #20]
    2436:	f000 fb59 	bl	2aec <sark_heap_init>
    243a:	4b33      	ldr	r3, [pc, #204]	; (2508 <sark_init+0x108>)
    243c:	4a33      	ldr	r2, [pc, #204]	; (250c <sark_init+0x10c>)
    243e:	681b      	ldr	r3, [r3, #0]
    2440:	4d33      	ldr	r5, [pc, #204]	; (2510 <sark_init+0x110>)
    2442:	0e1b      	lsrs	r3, r3, #24
    2444:	6063      	str	r3, [r4, #4]
    2446:	189b      	adds	r3, r3, r2
    2448:	2192      	movs	r1, #146	; 0x92
    244a:	0049      	lsls	r1, r1, #1
    244c:	61a0      	str	r0, [r4, #24]
    244e:	781b      	ldrb	r3, [r3, #0]
    2450:	6023      	str	r3, [r4, #0]
    2452:	8cab      	ldrh	r3, [r5, #36]	; 0x24
    2454:	8623      	strh	r3, [r4, #48]	; 0x30
    2456:	4b2f      	ldr	r3, [pc, #188]	; (2514 <sark_init+0x114>)
    2458:	60a3      	str	r3, [r4, #8]
    245a:	7830      	ldrb	r0, [r6, #0]
    245c:	f000 fb3a 	bl	2ad4 <sark_alloc>
    2460:	2292      	movs	r2, #146	; 0x92
    2462:	0052      	lsls	r2, r2, #1
    2464:	6220      	str	r0, [r4, #32]
    2466:	7831      	ldrb	r1, [r6, #0]
    2468:	f7ff ff58 	bl	231c <sark_block_init>
    246c:	4b2a      	ldr	r3, [pc, #168]	; (2518 <sark_init+0x118>)
    246e:	681a      	ldr	r2, [r3, #0]
    2470:	231f      	movs	r3, #31
    2472:	4013      	ands	r3, r2
    2474:	6862      	ldr	r2, [r4, #4]
    2476:	429a      	cmp	r2, r3
    2478:	d02f      	beq.n	24da <sark_init+0xda>
    247a:	6823      	ldr	r3, [r4, #0]
    247c:	4a27      	ldr	r2, [pc, #156]	; (251c <sark_init+0x11c>)
    247e:	01d8      	lsls	r0, r3, #7
    2480:	1880      	adds	r0, r0, r2
    2482:	6daa      	ldr	r2, [r5, #88]	; 0x58
    2484:	61e0      	str	r0, [r4, #28]
    2486:	435a      	muls	r2, r3
    2488:	0093      	lsls	r3, r2, #2
    248a:	6d6a      	ldr	r2, [r5, #84]	; 0x54
    248c:	2100      	movs	r1, #0
    248e:	18d3      	adds	r3, r2, r3
    2490:	2270      	movs	r2, #112	; 0x70
    2492:	6363      	str	r3, [r4, #52]	; 0x34
    2494:	f7fd eec6 	blx	224 <sark_word_set>
    2498:	69e0      	ldr	r0, [r4, #28]
    249a:	2205      	movs	r2, #5
    249c:	0003      	movs	r3, r0
    249e:	332e      	adds	r3, #46	; 0x2e
    24a0:	701a      	strb	r2, [r3, #0]
    24a2:	6862      	ldr	r2, [r4, #4]
    24a4:	3b01      	subs	r3, #1
    24a6:	701a      	strb	r2, [r3, #0]
    24a8:	235c      	movs	r3, #92	; 0x5c
    24aa:	781a      	ldrb	r2, [r3, #0]
    24ac:	0003      	movs	r3, r0
    24ae:	332f      	adds	r3, #47	; 0x2f
    24b0:	701a      	strb	r2, [r3, #0]
    24b2:	69eb      	ldr	r3, [r5, #28]
    24b4:	6443      	str	r3, [r0, #68]	; 0x44
    24b6:	4b1a      	ldr	r3, [pc, #104]	; (2520 <sark_init+0x120>)
    24b8:	65c3      	str	r3, [r0, #92]	; 0x5c
    24ba:	491a      	ldr	r1, [pc, #104]	; (2524 <sark_init+0x124>)
    24bc:	3048      	adds	r0, #72	; 0x48
    24be:	f7fd eea8 	blx	210 <sark_str_cpy>
    24c2:	4b19      	ldr	r3, [pc, #100]	; (2528 <sark_init+0x128>)
    24c4:	681a      	ldr	r2, [r3, #0]
    24c6:	23ff      	movs	r3, #255	; 0xff
    24c8:	041b      	lsls	r3, r3, #16
    24ca:	4013      	ands	r3, r2
    24cc:	22c0      	movs	r2, #192	; 0xc0
    24ce:	0292      	lsls	r2, r2, #10
    24d0:	4293      	cmp	r3, r2
    24d2:	d002      	beq.n	24da <sark_init+0xda>
    24d4:	2014      	movs	r0, #20
    24d6:	f7fd ee2a 	blx	12c <rt_error>
    24da:	f000 fa3b 	bl	2954 <sark_vic_init>
    24de:	2359      	movs	r3, #89	; 0x59
    24e0:	7818      	ldrb	r0, [r3, #0]
    24e2:	2201      	movs	r2, #1
    24e4:	4b11      	ldr	r3, [pc, #68]	; (252c <sark_init+0x12c>)
    24e6:	2112      	movs	r1, #18
    24e8:	f000 fa5c 	bl	29a4 <sark_vic_set>
    24ec:	2201      	movs	r2, #1
    24ee:	2106      	movs	r1, #6
    24f0:	4b0f      	ldr	r3, [pc, #60]	; (2530 <sark_init+0x130>)
    24f2:	2010      	movs	r0, #16
    24f4:	f000 fa56 	bl	29a4 <sark_vic_set>
    24f8:	235a      	movs	r3, #90	; 0x5a
    24fa:	7818      	ldrb	r0, [r3, #0]
    24fc:	f000 fa0c 	bl	2918 <event_alloc>
    2500:	201f      	movs	r0, #31
    2502:	bd70      	pop	{r4, r5, r6, pc}
    2504:	004008dc 	.word	0x004008dc
    2508:	40000014 	.word	0x40000014
    250c:	e5007f94 	.word	0xe5007f94
    2510:	e5007f00 	.word	0xe5007f00
    2514:	deaddead 	.word	0xdeaddead
    2518:	e2000034 	.word	0xe2000034
    251c:	e5007000 	.word	0xe5007000
    2520:	00030001 	.word	0x00030001
    2524:	00005154 	.word	0x00005154
    2528:	e5007ffc 	.word	0xe5007ffc
    252c:	000002dc 	.word	0x000002dc
    2530:	000029e4 	.word	0x000029e4

00002534 <sark_msg_send>:
    2534:	b5f8      	push	{r3, r4, r5, r6, r7, lr}
    2536:	0004      	movs	r4, r0
    2538:	000f      	movs	r7, r1
    253a:	f7ff ff27 	bl	238c <sark_shmsg_get>
    253e:	1e06      	subs	r6, r0, #0
    2540:	d038      	beq.n	25b4 <sark_msg_send+0x80>
    2542:	0021      	movs	r1, r4
    2544:	f7fd ee80 	blx	248 <sark_msg_cpy>
    2548:	4d1b      	ldr	r5, [pc, #108]	; (25b8 <sark_msg_send+0x84>)
    254a:	2401      	movs	r4, #1
    254c:	69eb      	ldr	r3, [r5, #28]
    254e:	0020      	movs	r0, r4
    2550:	635e      	str	r6, [r3, #52]	; 0x34
    2552:	3339      	adds	r3, #57	; 0x39
    2554:	701c      	strb	r4, [r3, #0]
    2556:	f7fd ee40 	blx	1d8 <sark_lock_get>
    255a:	4b18      	ldr	r3, [pc, #96]	; (25bc <sark_msg_send+0x88>)
    255c:	6829      	ldr	r1, [r5, #0]
    255e:	681a      	ldr	r2, [r3, #0]
    2560:	469c      	mov	ip, r3
    2562:	0023      	movs	r3, r4
    2564:	408b      	lsls	r3, r1
    2566:	4313      	orrs	r3, r2
    2568:	4661      	mov	r1, ip
    256a:	600b      	str	r3, [r1, #0]
    256c:	2a00      	cmp	r2, #0
    256e:	d106      	bne.n	257e <sark_msg_send+0x4a>
    2570:	4b13      	ldr	r3, [pc, #76]	; (25c0 <sark_msg_send+0x8c>)
    2572:	781b      	ldrb	r3, [r3, #0]
    2574:	409c      	lsls	r4, r3
    2576:	4b13      	ldr	r3, [pc, #76]	; (25c4 <sark_msg_send+0x90>)
    2578:	18e4      	adds	r4, r4, r3
    257a:	4b13      	ldr	r3, [pc, #76]	; (25c8 <sark_msg_send+0x94>)
    257c:	601c      	str	r4, [r3, #0]
    257e:	2101      	movs	r1, #1
    2580:	f7fd ee3c 	blx	1fc <sark_lock_free>
    2584:	4b11      	ldr	r3, [pc, #68]	; (25cc <sark_msg_send+0x98>)
    2586:	6818      	ldr	r0, [r3, #0]
    2588:	001a      	movs	r2, r3
    258a:	69eb      	ldr	r3, [r5, #28]
    258c:	3339      	adds	r3, #57	; 0x39
    258e:	7819      	ldrb	r1, [r3, #0]
    2590:	2900      	cmp	r1, #0
    2592:	d003      	beq.n	259c <sark_msg_send+0x68>
    2594:	6811      	ldr	r1, [r2, #0]
    2596:	1a09      	subs	r1, r1, r0
    2598:	42b9      	cmp	r1, r7
    259a:	d9f8      	bls.n	258e <sark_msg_send+0x5a>
    259c:	781b      	ldrb	r3, [r3, #0]
    259e:	2b00      	cmp	r3, #0
    25a0:	d004      	beq.n	25ac <sark_msg_send+0x78>
    25a2:	0030      	movs	r0, r6
    25a4:	f7ff ff0c 	bl	23c0 <sark_shmsg_free>
    25a8:	2000      	movs	r0, #0
    25aa:	e003      	b.n	25b4 <sark_msg_send+0x80>
    25ac:	6aeb      	ldr	r3, [r5, #44]	; 0x2c
    25ae:	2001      	movs	r0, #1
    25b0:	3301      	adds	r3, #1
    25b2:	62eb      	str	r3, [r5, #44]	; 0x2c
    25b4:	bdf8      	pop	{r3, r4, r5, r6, r7, pc}
    25b6:	46c0      	nop			; (mov r8, r8)
    25b8:	004008dc 	.word	0x004008dc
    25bc:	e5007fec 	.word	0xe5007fec
    25c0:	e5007fa8 	.word	0xe5007fa8
    25c4:	5ec00000 	.word	0x5ec00000
    25c8:	e2000008 	.word	0xe2000008
    25cc:	e5007f10 	.word	0xe5007f10

000025d0 <sark_cmd_ver>:
    25d0:	4b0d      	ldr	r3, [pc, #52]	; (2608 <sark_cmd_ver+0x38>)
    25d2:	b510      	push	{r4, lr}
    25d4:	685a      	ldr	r2, [r3, #4]
    25d6:	681b      	ldr	r3, [r3, #0]
    25d8:	0212      	lsls	r2, r2, #8
    25da:	18d3      	adds	r3, r2, r3
    25dc:	4a0b      	ldr	r2, [pc, #44]	; (260c <sark_cmd_ver+0x3c>)
    25de:	0004      	movs	r4, r0
    25e0:	8812      	ldrh	r2, [r2, #0]
    25e2:	490b      	ldr	r1, [pc, #44]	; (2610 <sark_cmd_ver+0x40>)
    25e4:	0412      	lsls	r2, r2, #16
    25e6:	189b      	adds	r3, r3, r2
    25e8:	6143      	str	r3, [r0, #20]
    25ea:	4b0a      	ldr	r3, [pc, #40]	; (2614 <sark_cmd_ver+0x44>)
    25ec:	6183      	str	r3, [r0, #24]
    25ee:	4b0a      	ldr	r3, [pc, #40]	; (2618 <sark_cmd_ver+0x48>)
    25f0:	681b      	ldr	r3, [r3, #0]
    25f2:	61c3      	str	r3, [r0, #28]
    25f4:	3020      	adds	r0, #32
    25f6:	f7fd ee0c 	blx	210 <sark_str_cpy>
    25fa:	0020      	movs	r0, r4
    25fc:	302f      	adds	r0, #47	; 0x2f
    25fe:	4907      	ldr	r1, [pc, #28]	; (261c <sark_cmd_ver+0x4c>)
    2600:	f7fd ee06 	blx	210 <sark_str_cpy>
    2604:	2021      	movs	r0, #33	; 0x21
    2606:	bd10      	pop	{r4, pc}
    2608:	004008dc 	.word	0x004008dc
    260c:	e5007f00 	.word	0xe5007f00
    2610:	000053a4 	.word	0x000053a4
    2614:	ffff0100 	.word	0xffff0100
    2618:	00005164 	.word	0x00005164
    261c:	000053b3 	.word	0x000053b3

00002620 <sark_cmd_read>:
    2620:	6982      	ldr	r2, [r0, #24]
    2622:	2180      	movs	r1, #128	; 0x80
    2624:	b530      	push	{r4, r5, lr}
    2626:	0003      	movs	r3, r0
    2628:	0049      	lsls	r1, r1, #1
    262a:	428a      	cmp	r2, r1
    262c:	d802      	bhi.n	2634 <sark_cmd_read+0x14>
    262e:	69c0      	ldr	r0, [r0, #28]
    2630:	2802      	cmp	r0, #2
    2632:	d903      	bls.n	263c <sark_cmd_read+0x1c>
    2634:	2284      	movs	r2, #132	; 0x84
    2636:	821a      	strh	r2, [r3, #16]
    2638:	2000      	movs	r0, #0
    263a:	e021      	b.n	2680 <sark_cmd_read+0x60>
    263c:	695c      	ldr	r4, [r3, #20]
    263e:	3314      	adds	r3, #20
    2640:	2800      	cmp	r0, #0
    2642:	d105      	bne.n	2650 <sark_cmd_read+0x30>
    2644:	4290      	cmp	r0, r2
    2646:	d01b      	beq.n	2680 <sark_cmd_read+0x60>
    2648:	5d01      	ldrb	r1, [r0, r4]
    264a:	5419      	strb	r1, [r3, r0]
    264c:	3001      	adds	r0, #1
    264e:	e7f9      	b.n	2644 <sark_cmd_read+0x24>
    2650:	2801      	cmp	r0, #1
    2652:	d10a      	bne.n	266a <sark_cmd_read+0x4a>
    2654:	0851      	lsrs	r1, r2, #1
    2656:	0049      	lsls	r1, r1, #1
    2658:	1859      	adds	r1, r3, r1
    265a:	0018      	movs	r0, r3
    265c:	4288      	cmp	r0, r1
    265e:	d00e      	beq.n	267e <sark_cmd_read+0x5e>
    2660:	1ac5      	subs	r5, r0, r3
    2662:	5b2d      	ldrh	r5, [r5, r4]
    2664:	8005      	strh	r5, [r0, #0]
    2666:	3002      	adds	r0, #2
    2668:	e7f8      	b.n	265c <sark_cmd_read+0x3c>
    266a:	0891      	lsrs	r1, r2, #2
    266c:	0089      	lsls	r1, r1, #2
    266e:	1859      	adds	r1, r3, r1
    2670:	0018      	movs	r0, r3
    2672:	4288      	cmp	r0, r1
    2674:	d003      	beq.n	267e <sark_cmd_read+0x5e>
    2676:	1ac5      	subs	r5, r0, r3
    2678:	592d      	ldr	r5, [r5, r4]
    267a:	c020      	stmia	r0!, {r5}
    267c:	e7f9      	b.n	2672 <sark_cmd_read+0x52>
    267e:	0010      	movs	r0, r2
    2680:	bd30      	pop	{r4, r5, pc}

00002682 <sark_cmd_write>:
    2682:	6983      	ldr	r3, [r0, #24]
    2684:	2280      	movs	r2, #128	; 0x80
    2686:	b530      	push	{r4, r5, lr}
    2688:	0052      	lsls	r2, r2, #1
    268a:	4293      	cmp	r3, r2
    268c:	d802      	bhi.n	2694 <sark_cmd_write+0x12>
    268e:	69c1      	ldr	r1, [r0, #28]
    2690:	2902      	cmp	r1, #2
    2692:	d902      	bls.n	269a <sark_cmd_write+0x18>
    2694:	2384      	movs	r3, #132	; 0x84
    2696:	8203      	strh	r3, [r0, #16]
    2698:	e024      	b.n	26e4 <sark_cmd_write+0x62>
    269a:	6942      	ldr	r2, [r0, #20]
    269c:	3020      	adds	r0, #32
    269e:	2900      	cmp	r1, #0
    26a0:	d108      	bne.n	26b4 <sark_cmd_write+0x32>
    26a2:	18c3      	adds	r3, r0, r3
    26a4:	0001      	movs	r1, r0
    26a6:	4299      	cmp	r1, r3
    26a8:	d01c      	beq.n	26e4 <sark_cmd_write+0x62>
    26aa:	780d      	ldrb	r5, [r1, #0]
    26ac:	1a0c      	subs	r4, r1, r0
    26ae:	54a5      	strb	r5, [r4, r2]
    26b0:	3101      	adds	r1, #1
    26b2:	e7f8      	b.n	26a6 <sark_cmd_write+0x24>
    26b4:	2901      	cmp	r1, #1
    26b6:	d10a      	bne.n	26ce <sark_cmd_write+0x4c>
    26b8:	085b      	lsrs	r3, r3, #1
    26ba:	005b      	lsls	r3, r3, #1
    26bc:	18c3      	adds	r3, r0, r3
    26be:	0001      	movs	r1, r0
    26c0:	4299      	cmp	r1, r3
    26c2:	d00f      	beq.n	26e4 <sark_cmd_write+0x62>
    26c4:	880d      	ldrh	r5, [r1, #0]
    26c6:	1a0c      	subs	r4, r1, r0
    26c8:	52a5      	strh	r5, [r4, r2]
    26ca:	3102      	adds	r1, #2
    26cc:	e7f8      	b.n	26c0 <sark_cmd_write+0x3e>
    26ce:	089b      	lsrs	r3, r3, #2
    26d0:	009b      	lsls	r3, r3, #2
    26d2:	18c3      	adds	r3, r0, r3
    26d4:	0001      	movs	r1, r0
    26d6:	4299      	cmp	r1, r3
    26d8:	d004      	beq.n	26e4 <sark_cmd_write+0x62>
    26da:	1a0c      	subs	r4, r1, r0
    26dc:	680d      	ldr	r5, [r1, #0]
    26de:	50a5      	str	r5, [r4, r2]
    26e0:	3104      	adds	r1, #4
    26e2:	e7f8      	b.n	26d6 <sark_cmd_write+0x54>
    26e4:	2000      	movs	r0, #0
    26e6:	bd30      	pop	{r4, r5, pc}

000026e8 <sark_cmd_fill>:
    26e8:	b510      	push	{r4, lr}
    26ea:	69c2      	ldr	r2, [r0, #28]
    26ec:	6981      	ldr	r1, [r0, #24]
    26ee:	6940      	ldr	r0, [r0, #20]
    26f0:	f7fd ed98 	blx	224 <sark_word_set>
    26f4:	2000      	movs	r0, #0
    26f6:	bd10      	pop	{r4, pc}

000026f8 <sark_wait>:
    26f8:	b570      	push	{r4, r5, r6, lr}
    26fa:	255d      	movs	r5, #93	; 0x5d
    26fc:	2401      	movs	r4, #1
    26fe:	782b      	ldrb	r3, [r5, #0]
    2700:	4223      	tst	r3, r4
    2702:	d002      	beq.n	270a <sark_wait+0x12>
    2704:	f7fd ed64 	blx	1d0 <cpu_wfi>
    2708:	e7f9      	b.n	26fe <sark_wait+0x6>
    270a:	bd70      	pop	{r4, r5, r6, pc}

0000270c <sark_int>:
    270c:	b570      	push	{r4, r5, r6, lr}
    270e:	4d54      	ldr	r5, [pc, #336]	; (2860 <sark_int+0x154>)
    2710:	2301      	movs	r3, #1
    2712:	686a      	ldr	r2, [r5, #4]
    2714:	4093      	lsls	r3, r2
    2716:	4a53      	ldr	r2, [pc, #332]	; (2864 <sark_int+0x158>)
    2718:	189b      	adds	r3, r3, r2
    271a:	4a53      	ldr	r2, [pc, #332]	; (2868 <sark_int+0x15c>)
    271c:	6013      	str	r3, [r2, #0]
    271e:	69ea      	ldr	r2, [r5, #28]
    2720:	0011      	movs	r1, r2
    2722:	3138      	adds	r1, #56	; 0x38
    2724:	780b      	ldrb	r3, [r1, #0]
    2726:	2b00      	cmp	r3, #0
    2728:	d100      	bne.n	272c <sark_int+0x20>
    272a:	e097      	b.n	285c <sark_int+0x150>
    272c:	6b16      	ldr	r6, [r2, #48]	; 0x30
    272e:	2b02      	cmp	r3, #2
    2730:	d100      	bne.n	2734 <sark_int+0x28>
    2732:	6310      	str	r0, [r2, #48]	; 0x30
    2734:	2200      	movs	r2, #0
    2736:	700a      	strb	r2, [r1, #0]
    2738:	2b03      	cmp	r3, #3
    273a:	d124      	bne.n	2786 <sark_int+0x7a>
    273c:	1ef0      	subs	r0, r6, #3
    273e:	280a      	cmp	r0, #10
    2740:	d900      	bls.n	2744 <sark_int+0x38>
    2742:	e08b      	b.n	285c <sark_int+0x150>
    2744:	f7fd fdfc 	bl	340 <__gnu_thumb1_case_uqi>
    2748:	068a8a10 	.word	0x068a8a10
    274c:	161b0c08 	.word	0x161b0c08
    2750:	1616      	.short	0x1616
    2752:	16          	.byte	0x16
    2753:	00          	.byte	0x00
    2754:	2001      	movs	r0, #1
    2756:	e000      	b.n	275a <sark_int+0x4e>
    2758:	2000      	movs	r0, #0
    275a:	f000 f8bb 	bl	28d4 <event_pause>
    275e:	e07d      	b.n	285c <sark_int+0x150>
    2760:	20ff      	movs	r0, #255	; 0xff
    2762:	f000 f8cd 	bl	2900 <event_stop>
    2766:	e079      	b.n	285c <sark_int+0x150>
    2768:	225d      	movs	r2, #93	; 0x5d
    276a:	7813      	ldrb	r3, [r2, #0]
    276c:	2101      	movs	r1, #1
    276e:	438b      	bics	r3, r1
    2770:	7013      	strb	r3, [r2, #0]
    2772:	e073      	b.n	285c <sark_int+0x150>
    2774:	4b3d      	ldr	r3, [pc, #244]	; (286c <sark_int+0x160>)
    2776:	2280      	movs	r2, #128	; 0x80
    2778:	62de      	str	r6, [r3, #44]	; 0x2c
    277a:	0592      	lsls	r2, r2, #22
    277c:	e000      	b.n	2780 <sark_int+0x74>
    277e:	2210      	movs	r2, #16
    2780:	4b3b      	ldr	r3, [pc, #236]	; (2870 <sark_int+0x164>)
    2782:	601a      	str	r2, [r3, #0]
    2784:	e06a      	b.n	285c <sark_int+0x150>
    2786:	2b01      	cmp	r3, #1
    2788:	d168      	bne.n	285c <sark_int+0x150>
    278a:	f7ff fdd7 	bl	233c <sark_msg_get>
    278e:	1e04      	subs	r4, r0, #0
    2790:	d061      	beq.n	2856 <sark_int+0x14a>
    2792:	0031      	movs	r1, r6
    2794:	f7fd ed58 	blx	248 <sark_msg_cpy>
    2798:	0030      	movs	r0, r6
    279a:	f7ff fe11 	bl	23c0 <sark_shmsg_free>
    279e:	6aab      	ldr	r3, [r5, #40]	; 0x28
    27a0:	3301      	adds	r3, #1
    27a2:	62ab      	str	r3, [r5, #40]	; 0x28
    27a4:	7aa5      	ldrb	r5, [r4, #10]
    27a6:	231f      	movs	r3, #31
    27a8:	0028      	movs	r0, r5
    27aa:	4398      	bics	r0, r3
    27ac:	d130      	bne.n	2810 <sark_int+0x104>
    27ae:	88a3      	ldrh	r3, [r4, #4]
    27b0:	2b17      	cmp	r3, #23
    27b2:	d801      	bhi.n	27b8 <sark_int+0xac>
    27b4:	2381      	movs	r3, #129	; 0x81
    27b6:	e01b      	b.n	27f0 <sark_int+0xe4>
    27b8:	8a23      	ldrh	r3, [r4, #16]
    27ba:	2280      	movs	r2, #128	; 0x80
    27bc:	8222      	strh	r2, [r4, #16]
    27be:	2b00      	cmp	r3, #0
    27c0:	d103      	bne.n	27ca <sark_int+0xbe>
    27c2:	0020      	movs	r0, r4
    27c4:	f7ff ff04 	bl	25d0 <sark_cmd_ver>
    27c8:	e013      	b.n	27f2 <sark_int+0xe6>
    27ca:	2b02      	cmp	r3, #2
    27cc:	d103      	bne.n	27d6 <sark_int+0xca>
    27ce:	0020      	movs	r0, r4
    27d0:	f7ff ff26 	bl	2620 <sark_cmd_read>
    27d4:	e00d      	b.n	27f2 <sark_int+0xe6>
    27d6:	2b03      	cmp	r3, #3
    27d8:	d103      	bne.n	27e2 <sark_int+0xd6>
    27da:	0020      	movs	r0, r4
    27dc:	f7ff ff51 	bl	2682 <sark_cmd_write>
    27e0:	e007      	b.n	27f2 <sark_int+0xe6>
    27e2:	2b05      	cmp	r3, #5
    27e4:	d103      	bne.n	27ee <sark_int+0xe2>
    27e6:	0020      	movs	r0, r4
    27e8:	f7ff ff7e 	bl	26e8 <sark_cmd_fill>
    27ec:	e001      	b.n	27f2 <sark_int+0xe6>
    27ee:	2383      	movs	r3, #131	; 0x83
    27f0:	8223      	strh	r3, [r4, #16]
    27f2:	7aa2      	ldrb	r2, [r4, #10]
    27f4:	7ae1      	ldrb	r1, [r4, #11]
    27f6:	89a3      	ldrh	r3, [r4, #12]
    27f8:	300c      	adds	r0, #12
    27fa:	72e2      	strb	r2, [r4, #11]
    27fc:	89e2      	ldrh	r2, [r4, #14]
    27fe:	80a0      	strh	r0, [r4, #4]
    2800:	72a1      	strb	r1, [r4, #10]
    2802:	81a2      	strh	r2, [r4, #12]
    2804:	81e3      	strh	r3, [r4, #14]
    2806:	210a      	movs	r1, #10
    2808:	0020      	movs	r0, r4
    280a:	f7ff fe93 	bl	2534 <sark_msg_send>
    280e:	e01e      	b.n	284e <sark_int+0x142>
    2810:	235b      	movs	r3, #91	; 0x5b
    2812:	781b      	ldrb	r3, [r3, #0]
    2814:	2b00      	cmp	r3, #0
    2816:	d00f      	beq.n	2838 <sark_int+0x12c>
    2818:	4b16      	ldr	r3, [pc, #88]	; (2874 <sark_int+0x168>)
    281a:	699b      	ldr	r3, [r3, #24]
    281c:	2b00      	cmp	r3, #0
    281e:	d016      	beq.n	284e <sark_int+0x142>
    2820:	f7fd ecca 	blx	1b8 <cpu_int_disable>
    2824:	096a      	lsrs	r2, r5, #5
    2826:	0021      	movs	r1, r4
    2828:	0006      	movs	r6, r0
    282a:	2003      	movs	r0, #3
    282c:	f000 ff1e 	bl	366c <schedule_sysmode>
    2830:	0030      	movs	r0, r6
    2832:	f7fd ecca 	blx	1c8 <cpu_int_restore>
    2836:	e011      	b.n	285c <sark_int+0x150>
    2838:	4b0f      	ldr	r3, [pc, #60]	; (2878 <sark_int+0x16c>)
    283a:	681a      	ldr	r2, [r3, #0]
    283c:	2380      	movs	r3, #128	; 0x80
    283e:	055b      	lsls	r3, r3, #21
    2840:	421a      	tst	r2, r3
    2842:	d004      	beq.n	284e <sark_int+0x142>
    2844:	4a09      	ldr	r2, [pc, #36]	; (286c <sark_int+0x160>)
    2846:	6294      	str	r4, [r2, #40]	; 0x28
    2848:	4a09      	ldr	r2, [pc, #36]	; (2870 <sark_int+0x164>)
    284a:	6013      	str	r3, [r2, #0]
    284c:	e006      	b.n	285c <sark_int+0x150>
    284e:	0020      	movs	r0, r4
    2850:	f7ff fd8c 	bl	236c <sark_msg_free>
    2854:	e002      	b.n	285c <sark_int+0x150>
    2856:	0030      	movs	r0, r6
    2858:	f7ff fdb2 	bl	23c0 <sark_shmsg_free>
    285c:	bd70      	pop	{r4, r5, r6, pc}
    285e:	46c0      	nop			; (mov r8, r8)
    2860:	004008dc 	.word	0x004008dc
    2864:	5ec00000 	.word	0x5ec00000
    2868:	e200000c 	.word	0xe200000c
    286c:	00400918 	.word	0x00400918
    2870:	1f000018 	.word	0x1f000018
    2874:	00400b5c 	.word	0x00400b5c
    2878:	1f000010 	.word	0x1f000010

0000287c <event_wait>:
    287c:	4b12      	ldr	r3, [pc, #72]	; (28c8 <event_wait+0x4c>)
    287e:	b570      	push	{r4, r5, r6, lr}
    2880:	681b      	ldr	r3, [r3, #0]
    2882:	4c12      	ldr	r4, [pc, #72]	; (28cc <event_wait+0x50>)
    2884:	2501      	movs	r5, #1
    2886:	409d      	lsls	r5, r3
    2888:	7ea3      	ldrb	r3, [r4, #26]
    288a:	4e11      	ldr	r6, [pc, #68]	; (28d0 <event_wait+0x54>)
    288c:	2b00      	cmp	r3, #0
    288e:	d011      	beq.n	28b4 <event_wait+0x38>
    2890:	2009      	movs	r0, #9
    2892:	f7ff fd31 	bl	22f8 <sark_cpu_state>
    2896:	6833      	ldr	r3, [r6, #0]
    2898:	002a      	movs	r2, r5
    289a:	439a      	bics	r2, r3
    289c:	d002      	beq.n	28a4 <event_wait+0x28>
    289e:	f7fd ec98 	blx	1d0 <cpu_wfi>
    28a2:	e7f8      	b.n	2896 <event_wait+0x1a>
    28a4:	7ea3      	ldrb	r3, [r4, #26]
    28a6:	2201      	movs	r2, #1
    28a8:	4053      	eors	r3, r2
    28aa:	2007      	movs	r0, #7
    28ac:	76a3      	strb	r3, [r4, #26]
    28ae:	f7ff fd23 	bl	22f8 <sark_cpu_state>
    28b2:	bd70      	pop	{r4, r5, r6, pc}
    28b4:	2008      	movs	r0, #8
    28b6:	f7ff fd1f 	bl	22f8 <sark_cpu_state>
    28ba:	6833      	ldr	r3, [r6, #0]
    28bc:	422b      	tst	r3, r5
    28be:	d0f1      	beq.n	28a4 <event_wait+0x28>
    28c0:	f7fd ec86 	blx	1d0 <cpu_wfi>
    28c4:	e7f9      	b.n	28ba <event_wait+0x3e>
    28c6:	46c0      	nop			; (mov r8, r8)
    28c8:	004008dc 	.word	0x004008dc
    28cc:	00400918 	.word	0x00400918
    28d0:	e2000058 	.word	0xe2000058

000028d4 <event_pause>:
    28d4:	b570      	push	{r4, r5, r6, lr}
    28d6:	1e05      	subs	r5, r0, #0
    28d8:	4c08      	ldr	r4, [pc, #32]	; (28fc <event_pause+0x28>)
    28da:	d003      	beq.n	28e4 <event_pause+0x10>
    28dc:	2301      	movs	r3, #1
    28de:	7623      	strb	r3, [r4, #24]
    28e0:	200a      	movs	r0, #10
    28e2:	e001      	b.n	28e8 <event_pause+0x14>
    28e4:	7620      	strb	r0, [r4, #24]
    28e6:	2007      	movs	r0, #7
    28e8:	f7ff fd06 	bl	22f8 <sark_cpu_state>
    28ec:	6b23      	ldr	r3, [r4, #48]	; 0x30
    28ee:	2b00      	cmp	r3, #0
    28f0:	d002      	beq.n	28f8 <event_pause+0x24>
    28f2:	6b61      	ldr	r1, [r4, #52]	; 0x34
    28f4:	0028      	movs	r0, r5
    28f6:	4798      	blx	r3
    28f8:	bd70      	pop	{r4, r5, r6, pc}
    28fa:	46c0      	nop			; (mov r8, r8)
    28fc:	00400918 	.word	0x00400918

00002900 <event_stop>:
    2900:	4b03      	ldr	r3, [pc, #12]	; (2910 <event_stop+0x10>)
    2902:	2202      	movs	r2, #2
    2904:	761a      	strb	r2, [r3, #24]
    2906:	4a03      	ldr	r2, [pc, #12]	; (2914 <event_stop+0x14>)
    2908:	6cd9      	ldr	r1, [r3, #76]	; 0x4c
    290a:	6011      	str	r1, [r2, #0]
    290c:	6398      	str	r0, [r3, #56]	; 0x38
    290e:	4770      	bx	lr
    2910:	00400918 	.word	0x00400918
    2914:	1f000014 	.word	0x1f000014

00002918 <event_alloc>:
    2918:	b570      	push	{r4, r5, r6, lr}
    291a:	2118      	movs	r1, #24
    291c:	0006      	movs	r6, r0
    291e:	f000 f8d9 	bl	2ad4 <sark_alloc>
    2922:	4d0b      	ldr	r5, [pc, #44]	; (2950 <event_alloc+0x38>)
    2924:	1e04      	subs	r4, r0, #0
    2926:	d00d      	beq.n	2944 <event_alloc+0x2c>
    2928:	0031      	movs	r1, r6
    292a:	2218      	movs	r2, #24
    292c:	f7ff fcf6 	bl	231c <sark_block_init>
    2930:	0006      	movs	r6, r0
    2932:	f7fd ec42 	blx	1b8 <cpu_int_disable>
    2936:	682b      	ldr	r3, [r5, #0]
    2938:	6033      	str	r3, [r6, #0]
    293a:	602c      	str	r4, [r5, #0]
    293c:	f7fd ec44 	blx	1c8 <cpu_int_restore>
    2940:	2001      	movs	r0, #1
    2942:	e003      	b.n	294c <event_alloc+0x34>
    2944:	696a      	ldr	r2, [r5, #20]
    2946:	2308      	movs	r3, #8
    2948:	4313      	orrs	r3, r2
    294a:	616b      	str	r3, [r5, #20]
    294c:	bd70      	pop	{r4, r5, r6, pc}
    294e:	46c0      	nop			; (mov r8, r8)
    2950:	00400918 	.word	0x00400918

00002954 <sark_vic_init>:
    2954:	4b0b      	ldr	r3, [pc, #44]	; (2984 <sark_vic_init+0x30>)
    2956:	2201      	movs	r2, #1
    2958:	4252      	negs	r2, r2
    295a:	b510      	push	{r4, lr}
    295c:	601a      	str	r2, [r3, #0]
    295e:	4b0a      	ldr	r3, [pc, #40]	; (2988 <sark_vic_init+0x34>)
    2960:	2200      	movs	r2, #0
    2962:	601a      	str	r2, [r3, #0]
    2964:	4b09      	ldr	r3, [pc, #36]	; (298c <sark_vic_init+0x38>)
    2966:	4c0a      	ldr	r4, [pc, #40]	; (2990 <sark_vic_init+0x3c>)
    2968:	601a      	str	r2, [r3, #0]
    296a:	490a      	ldr	r1, [pc, #40]	; (2994 <sark_vic_init+0x40>)
    296c:	4b0a      	ldr	r3, [pc, #40]	; (2998 <sark_vic_init+0x44>)
    296e:	1e58      	subs	r0, r3, #1
    2970:	601a      	str	r2, [r3, #0]
    2972:	38ff      	subs	r0, #255	; 0xff
    2974:	3304      	adds	r3, #4
    2976:	6004      	str	r4, [r0, #0]
    2978:	428b      	cmp	r3, r1
    297a:	d1f8      	bne.n	296e <sark_vic_init+0x1a>
    297c:	4b07      	ldr	r3, [pc, #28]	; (299c <sark_vic_init+0x48>)
    297e:	4a08      	ldr	r2, [pc, #32]	; (29a0 <sark_vic_init+0x4c>)
    2980:	601a      	str	r2, [r3, #0]
    2982:	bd10      	pop	{r4, pc}
    2984:	1f000014 	.word	0x1f000014
    2988:	1f00000c 	.word	0x1f00000c
    298c:	1f000030 	.word	0x1f000030
    2990:	00000108 	.word	0x00000108
    2994:	1f000240 	.word	0x1f000240
    2998:	1f000200 	.word	0x1f000200
    299c:	1f000034 	.word	0x1f000034
    29a0:	0000030c 	.word	0x0000030c

000029a4 <sark_vic_set>:
    29a4:	b510      	push	{r4, lr}
    29a6:	2810      	cmp	r0, #16
    29a8:	d104      	bne.n	29b4 <sark_vic_set+0x10>
    29aa:	62c3      	str	r3, [r0, #44]	; 0x2c
    29ac:	2301      	movs	r3, #1
    29ae:	408b      	lsls	r3, r1
    29b0:	4809      	ldr	r0, [pc, #36]	; (29d8 <sark_vic_set+0x34>)
    29b2:	e009      	b.n	29c8 <sark_vic_set+0x24>
    29b4:	3040      	adds	r0, #64	; 0x40
    29b6:	24f8      	movs	r4, #248	; 0xf8
    29b8:	0080      	lsls	r0, r0, #2
    29ba:	0564      	lsls	r4, r4, #21
    29bc:	1904      	adds	r4, r0, r4
    29be:	6023      	str	r3, [r4, #0]
    29c0:	4b06      	ldr	r3, [pc, #24]	; (29dc <sark_vic_set+0x38>)
    29c2:	18c0      	adds	r0, r0, r3
    29c4:	2320      	movs	r3, #32
    29c6:	430b      	orrs	r3, r1
    29c8:	6003      	str	r3, [r0, #0]
    29ca:	2a00      	cmp	r2, #0
    29cc:	d003      	beq.n	29d6 <sark_vic_set+0x32>
    29ce:	2301      	movs	r3, #1
    29d0:	4a03      	ldr	r2, [pc, #12]	; (29e0 <sark_vic_set+0x3c>)
    29d2:	408b      	lsls	r3, r1
    29d4:	6013      	str	r3, [r2, #0]
    29d6:	bd10      	pop	{r4, pc}
    29d8:	1f00000c 	.word	0x1f00000c
    29dc:	1f000100 	.word	0x1f000100
    29e0:	1f000010 	.word	0x1f000010

000029e4 <sark_fiq_han>:
    29e4:	e92d000c 	push	{r2, r3}
    29e8:	e59f2018 	ldr	r2, [pc, #24]	; 2a08 <sark_fiq_han+0x24>
    29ec:	e3a03202 	mov	r3, #536870912	; 0x20000000
    29f0:	e5933014 	ldr	r3, [r3, #20]
    29f4:	e5923038 	ldr	r3, [r2, #56]	; 0x38
    29f8:	e2833001 	add	r3, r3, #1
    29fc:	e5823038 	str	r3, [r2, #56]	; 0x38
    2a00:	e8bd000c 	pop	{r2, r3}
    2a04:	e25ef004 	subs	pc, lr, #4
    2a08:	004008dc 	.word	0x004008dc

00002a0c <sark_xalloc>:
    2a0c:	b5f7      	push	{r0, r1, r2, r4, r5, r6, r7, lr}
    2a0e:	0006      	movs	r6, r0
    2a10:	0017      	movs	r7, r2
    2a12:	2900      	cmp	r1, #0
    2a14:	d058      	beq.n	2ac8 <sark_xalloc+0xbc>
    2a16:	2aff      	cmp	r2, #255	; 0xff
    2a18:	d856      	bhi.n	2ac8 <sark_xalloc+0xbc>
    2a1a:	0a1d      	lsrs	r5, r3, #8
    2a1c:	079a      	lsls	r2, r3, #30
    2a1e:	d401      	bmi.n	2a24 <sark_xalloc+0x18>
    2a20:	225c      	movs	r2, #92	; 0x5c
    2a22:	7815      	ldrb	r5, [r2, #0]
    2a24:	022d      	lsls	r5, r5, #8
    2a26:	19ed      	adds	r5, r5, r7
    2a28:	2f00      	cmp	r7, #0
    2a2a:	d005      	beq.n	2a38 <sark_xalloc+0x2c>
    2a2c:	4a27      	ldr	r2, [pc, #156]	; (2acc <sark_xalloc+0xc0>)
    2a2e:	00a8      	lsls	r0, r5, #2
    2a30:	6812      	ldr	r2, [r2, #0]
    2a32:	5882      	ldr	r2, [r0, r2]
    2a34:	2a00      	cmp	r2, #0
    2a36:	d147      	bne.n	2ac8 <sark_xalloc+0xbc>
    2a38:	2203      	movs	r2, #3
    2a3a:	3103      	adds	r1, #3
    2a3c:	4391      	bics	r1, r2
    2a3e:	3a02      	subs	r2, #2
    2a40:	3108      	adds	r1, #8
    2a42:	4013      	ands	r3, r2
    2a44:	9101      	str	r1, [sp, #4]
    2a46:	9300      	str	r3, [sp, #0]
    2a48:	d003      	beq.n	2a52 <sark_xalloc+0x46>
    2a4a:	2006      	movs	r0, #6
    2a4c:	f7fd ebc4 	blx	1d8 <sark_lock_get>
    2a50:	4684      	mov	ip, r0
    2a52:	6834      	ldr	r4, [r6, #0]
    2a54:	2200      	movs	r2, #0
    2a56:	2c00      	cmp	r4, #0
    2a58:	d02f      	beq.n	2aba <sark_xalloc+0xae>
    2a5a:	9b01      	ldr	r3, [sp, #4]
    2a5c:	6821      	ldr	r1, [r4, #0]
    2a5e:	18e3      	adds	r3, r4, r3
    2a60:	429c      	cmp	r4, r3
    2a62:	d22a      	bcs.n	2aba <sark_xalloc+0xae>
    2a64:	4299      	cmp	r1, r3
    2a66:	d202      	bcs.n	2a6e <sark_xalloc+0x62>
    2a68:	0022      	movs	r2, r4
    2a6a:	6864      	ldr	r4, [r4, #4]
    2a6c:	e7f3      	b.n	2a56 <sark_xalloc+0x4a>
    2a6e:	0018      	movs	r0, r3
    2a70:	3008      	adds	r0, #8
    2a72:	4281      	cmp	r1, r0
    2a74:	d904      	bls.n	2a80 <sark_xalloc+0x74>
    2a76:	6019      	str	r1, [r3, #0]
    2a78:	6861      	ldr	r1, [r4, #4]
    2a7a:	6023      	str	r3, [r4, #0]
    2a7c:	6059      	str	r1, [r3, #4]
    2a7e:	6063      	str	r3, [r4, #4]
    2a80:	6863      	ldr	r3, [r4, #4]
    2a82:	2a00      	cmp	r2, #0
    2a84:	d001      	beq.n	2a8a <sark_xalloc+0x7e>
    2a86:	6053      	str	r3, [r2, #4]
    2a88:	e000      	b.n	2a8c <sark_xalloc+0x80>
    2a8a:	6033      	str	r3, [r6, #0]
    2a8c:	68f3      	ldr	r3, [r6, #12]
    2a8e:	9a01      	ldr	r2, [sp, #4]
    2a90:	1a99      	subs	r1, r3, r2
    2a92:	9b00      	ldr	r3, [sp, #0]
    2a94:	60f1      	str	r1, [r6, #12]
    2a96:	2b00      	cmp	r3, #0
    2a98:	d003      	beq.n	2aa2 <sark_xalloc+0x96>
    2a9a:	2106      	movs	r1, #6
    2a9c:	4660      	mov	r0, ip
    2a9e:	f7fd ebae 	blx	1fc <sark_lock_free>
    2aa2:	4b0b      	ldr	r3, [pc, #44]	; (2ad0 <sark_xalloc+0xc4>)
    2aa4:	0020      	movs	r0, r4
    2aa6:	18eb      	adds	r3, r5, r3
    2aa8:	6063      	str	r3, [r4, #4]
    2aaa:	3008      	adds	r0, #8
    2aac:	2f00      	cmp	r7, #0
    2aae:	d00c      	beq.n	2aca <sark_xalloc+0xbe>
    2ab0:	4b06      	ldr	r3, [pc, #24]	; (2acc <sark_xalloc+0xc0>)
    2ab2:	00ad      	lsls	r5, r5, #2
    2ab4:	681b      	ldr	r3, [r3, #0]
    2ab6:	50e8      	str	r0, [r5, r3]
    2ab8:	e007      	b.n	2aca <sark_xalloc+0xbe>
    2aba:	9b00      	ldr	r3, [sp, #0]
    2abc:	2b00      	cmp	r3, #0
    2abe:	d003      	beq.n	2ac8 <sark_xalloc+0xbc>
    2ac0:	2106      	movs	r1, #6
    2ac2:	4660      	mov	r0, ip
    2ac4:	f7fd eb9a 	blx	1fc <sark_lock_free>
    2ac8:	2000      	movs	r0, #0
    2aca:	bdfe      	pop	{r1, r2, r3, r4, r5, r6, r7, pc}
    2acc:	e5007fdc 	.word	0xe5007fdc
    2ad0:	ffff0000 	.word	0xffff0000

00002ad4 <sark_alloc>:
    2ad4:	4341      	muls	r1, r0
    2ad6:	4804      	ldr	r0, [pc, #16]	; (2ae8 <sark_alloc+0x14>)
    2ad8:	2300      	movs	r3, #0
    2ada:	b510      	push	{r4, lr}
    2adc:	001a      	movs	r2, r3
    2ade:	6980      	ldr	r0, [r0, #24]
    2ae0:	f7ff ff94 	bl	2a0c <sark_xalloc>
    2ae4:	bd10      	pop	{r4, pc}
    2ae6:	46c0      	nop			; (mov r8, r8)
    2ae8:	004008dc 	.word	0x004008dc

00002aec <sark_heap_init>:
    2aec:	0003      	movs	r3, r0
    2aee:	3908      	subs	r1, #8
    2af0:	3310      	adds	r3, #16
    2af2:	6043      	str	r3, [r0, #4]
    2af4:	6003      	str	r3, [r0, #0]
    2af6:	1acb      	subs	r3, r1, r3
    2af8:	3b08      	subs	r3, #8
    2afa:	60c3      	str	r3, [r0, #12]
    2afc:	2300      	movs	r3, #0
    2afe:	6101      	str	r1, [r0, #16]
    2b00:	6081      	str	r1, [r0, #8]
    2b02:	600b      	str	r3, [r1, #0]
    2b04:	6143      	str	r3, [r0, #20]
    2b06:	604b      	str	r3, [r1, #4]
    2b08:	4770      	bx	lr
	...

00002b0c <io_buf_init>:
    2b0c:	b570      	push	{r4, r5, r6, lr}
    2b0e:	4d0c      	ldr	r5, [pc, #48]	; (2b40 <io_buf_init+0x34>)
    2b10:	480c      	ldr	r0, [pc, #48]	; (2b44 <io_buf_init+0x38>)
    2b12:	6d29      	ldr	r1, [r5, #80]	; 0x50
    2b14:	2301      	movs	r3, #1
    2b16:	3110      	adds	r1, #16
    2b18:	2200      	movs	r2, #0
    2b1a:	6800      	ldr	r0, [r0, #0]
    2b1c:	f7ff ff76 	bl	2a0c <sark_xalloc>
    2b20:	1e04      	subs	r4, r0, #0
    2b22:	d102      	bne.n	2b2a <io_buf_init+0x1e>
    2b24:	200e      	movs	r0, #14
    2b26:	f7fd eb02 	blx	12c <rt_error>
    2b2a:	69eb      	ldr	r3, [r5, #28]
    2b2c:	6063      	str	r3, [r4, #4]
    2b2e:	4a06      	ldr	r2, [pc, #24]	; (2b48 <io_buf_init+0x3c>)
    2b30:	8b2b      	ldrh	r3, [r5, #24]
    2b32:	60a3      	str	r3, [r4, #8]
    2b34:	2300      	movs	r3, #0
    2b36:	0020      	movs	r0, r4
    2b38:	6023      	str	r3, [r4, #0]
    2b3a:	6013      	str	r3, [r2, #0]
    2b3c:	60e3      	str	r3, [r4, #12]
    2b3e:	bd70      	pop	{r4, r5, r6, pc}
    2b40:	e5007f00 	.word	0xe5007f00
    2b44:	e5007fd0 	.word	0xe5007fd0
    2b48:	00400198 	.word	0x00400198

00002b4c <io_put_char>:
    2b4c:	b570      	push	{r4, r5, r6, lr}
    2b4e:	000d      	movs	r5, r1
    2b50:	2803      	cmp	r0, #3
    2b52:	d907      	bls.n	2b64 <io_put_char+0x18>
    2b54:	4932      	ldr	r1, [pc, #200]	; (2c20 <io_put_char+0xd4>)
    2b56:	680a      	ldr	r2, [r1, #0]
    2b58:	1c53      	adds	r3, r2, #1
    2b5a:	5485      	strb	r5, [r0, r2]
    2b5c:	2200      	movs	r2, #0
    2b5e:	600b      	str	r3, [r1, #0]
    2b60:	54c2      	strb	r2, [r0, r3]
    2b62:	e05c      	b.n	2c1e <io_put_char+0xd2>
    2b64:	2800      	cmp	r0, #0
    2b66:	d136      	bne.n	2bd6 <io_put_char+0x8a>
    2b68:	4e2e      	ldr	r6, [pc, #184]	; (2c24 <io_put_char+0xd8>)
    2b6a:	6833      	ldr	r3, [r6, #0]
    2b6c:	2b00      	cmp	r3, #0
    2b6e:	d11c      	bne.n	2baa <io_put_char+0x5e>
    2b70:	2192      	movs	r1, #146	; 0x92
    2b72:	0049      	lsls	r1, r1, #1
    2b74:	3001      	adds	r0, #1
    2b76:	f7ff ffad 	bl	2ad4 <sark_alloc>
    2b7a:	1e04      	subs	r4, r0, #0
    2b7c:	d102      	bne.n	2b84 <io_put_char+0x38>
    2b7e:	200e      	movs	r0, #14
    2b80:	f7fd ead4 	blx	12c <rt_error>
    2b84:	2307      	movs	r3, #7
    2b86:	7223      	strb	r3, [r4, #8]
    2b88:	2300      	movs	r3, #0
    2b8a:	7263      	strb	r3, [r4, #9]
    2b8c:	33ff      	adds	r3, #255	; 0xff
    2b8e:	72a3      	strb	r3, [r4, #10]
    2b90:	4b25      	ldr	r3, [pc, #148]	; (2c28 <io_put_char+0xdc>)
    2b92:	889a      	ldrh	r2, [r3, #4]
    2b94:	81a2      	strh	r2, [r4, #12]
    2b96:	4a25      	ldr	r2, [pc, #148]	; (2c2c <io_put_char+0xe0>)
    2b98:	6812      	ldr	r2, [r2, #0]
    2b9a:	72e2      	strb	r2, [r4, #11]
    2b9c:	881b      	ldrh	r3, [r3, #0]
    2b9e:	81e3      	strh	r3, [r4, #14]
    2ba0:	2340      	movs	r3, #64	; 0x40
    2ba2:	8223      	strh	r3, [r4, #16]
    2ba4:	3b34      	subs	r3, #52	; 0x34
    2ba6:	80a3      	strh	r3, [r4, #4]
    2ba8:	6034      	str	r4, [r6, #0]
    2baa:	6830      	ldr	r0, [r6, #0]
    2bac:	8883      	ldrh	r3, [r0, #4]
    2bae:	1c5a      	adds	r2, r3, #1
    2bb0:	18c3      	adds	r3, r0, r3
    2bb2:	8082      	strh	r2, [r0, #4]
    2bb4:	721d      	strb	r5, [r3, #8]
    2bb6:	2d0a      	cmp	r5, #10
    2bb8:	d006      	beq.n	2bc8 <io_put_char+0x7c>
    2bba:	2d00      	cmp	r5, #0
    2bbc:	d004      	beq.n	2bc8 <io_put_char+0x7c>
    2bbe:	8882      	ldrh	r2, [r0, #4]
    2bc0:	2386      	movs	r3, #134	; 0x86
    2bc2:	005b      	lsls	r3, r3, #1
    2bc4:	429a      	cmp	r2, r3
    2bc6:	d12a      	bne.n	2c1e <io_put_char+0xd2>
    2bc8:	210a      	movs	r1, #10
    2bca:	f7ff fcb3 	bl	2534 <sark_msg_send>
    2bce:	6833      	ldr	r3, [r6, #0]
    2bd0:	220c      	movs	r2, #12
    2bd2:	809a      	strh	r2, [r3, #4]
    2bd4:	e023      	b.n	2c1e <io_put_char+0xd2>
    2bd6:	2802      	cmp	r0, #2
    2bd8:	d121      	bne.n	2c1e <io_put_char+0xd2>
    2bda:	4c15      	ldr	r4, [pc, #84]	; (2c30 <io_put_char+0xe4>)
    2bdc:	6823      	ldr	r3, [r4, #0]
    2bde:	2b00      	cmp	r3, #0
    2be0:	d105      	bne.n	2bee <io_put_char+0xa2>
    2be2:	4b12      	ldr	r3, [pc, #72]	; (2c2c <io_put_char+0xe0>)
    2be4:	69de      	ldr	r6, [r3, #28]
    2be6:	f7ff ff91 	bl	2b0c <io_buf_init>
    2bea:	65b0      	str	r0, [r6, #88]	; 0x58
    2bec:	6020      	str	r0, [r4, #0]
    2bee:	4911      	ldr	r1, [pc, #68]	; (2c34 <io_put_char+0xe8>)
    2bf0:	6826      	ldr	r6, [r4, #0]
    2bf2:	680a      	ldr	r2, [r1, #0]
    2bf4:	1c53      	adds	r3, r2, #1
    2bf6:	18b2      	adds	r2, r6, r2
    2bf8:	7415      	strb	r5, [r2, #16]
    2bfa:	4a0b      	ldr	r2, [pc, #44]	; (2c28 <io_put_char+0xdc>)
    2bfc:	600b      	str	r3, [r1, #0]
    2bfe:	6d12      	ldr	r2, [r2, #80]	; 0x50
    2c00:	4293      	cmp	r3, r2
    2c02:	d107      	bne.n	2c14 <io_put_char+0xc8>
    2c04:	60f3      	str	r3, [r6, #12]
    2c06:	f7ff ff81 	bl	2b0c <io_buf_init>
    2c0a:	6823      	ldr	r3, [r4, #0]
    2c0c:	6030      	str	r0, [r6, #0]
    2c0e:	681b      	ldr	r3, [r3, #0]
    2c10:	6023      	str	r3, [r4, #0]
    2c12:	e004      	b.n	2c1e <io_put_char+0xd2>
    2c14:	2d0a      	cmp	r5, #10
    2c16:	d001      	beq.n	2c1c <io_put_char+0xd0>
    2c18:	2d00      	cmp	r5, #0
    2c1a:	d100      	bne.n	2c1e <io_put_char+0xd2>
    2c1c:	60f3      	str	r3, [r6, #12]
    2c1e:	bd70      	pop	{r4, r5, r6, pc}
    2c20:	0040019c 	.word	0x0040019c
    2c24:	00400190 	.word	0x00400190
    2c28:	e5007f00 	.word	0xe5007f00
    2c2c:	004008dc 	.word	0x004008dc
    2c30:	00400194 	.word	0x00400194
    2c34:	00400198 	.word	0x00400198

00002c38 <io_put_fixed>:
    2c38:	b5f0      	push	{r4, r5, r6, r7, lr}
    2c3a:	b08d      	sub	sp, #52	; 0x34
    2c3c:	0005      	movs	r5, r0
    2c3e:	9200      	str	r2, [sp, #0]
    2c40:	2b0c      	cmp	r3, #12
    2c42:	d900      	bls.n	2c46 <io_put_fixed+0xe>
    2c44:	230c      	movs	r3, #12
    2c46:	ae05      	add	r6, sp, #20
    2c48:	001c      	movs	r4, r3
    2c4a:	000a      	movs	r2, r1
    2c4c:	2000      	movs	r0, #0
    2c4e:	9601      	str	r6, [sp, #4]
    2c50:	0412      	lsls	r2, r2, #16
    2c52:	0c12      	lsrs	r2, r2, #16
    2c54:	4298      	cmp	r0, r3
    2c56:	d00b      	beq.n	2c70 <io_put_fixed+0x38>
    2c58:	260a      	movs	r6, #10
    2c5a:	4356      	muls	r6, r2
    2c5c:	0032      	movs	r2, r6
    2c5e:	9e01      	ldr	r6, [sp, #4]
    2c60:	3001      	adds	r0, #1
    2c62:	1a36      	subs	r6, r6, r0
    2c64:	46b4      	mov	ip, r6
    2c66:	0c16      	lsrs	r6, r2, #16
    2c68:	3630      	adds	r6, #48	; 0x30
    2c6a:	4667      	mov	r7, ip
    2c6c:	54fe      	strb	r6, [r7, r3]
    2c6e:	e7ef      	b.n	2c50 <io_put_fixed+0x18>
    2c70:	200a      	movs	r0, #10
    2c72:	4342      	muls	r2, r0
    2c74:	3806      	subs	r0, #6
    2c76:	0c12      	lsrs	r2, r2, #16
    2c78:	4290      	cmp	r0, r2
    2c7a:	4192      	sbcs	r2, r2
    2c7c:	4252      	negs	r2, r2
    2c7e:	2000      	movs	r0, #0
    2c80:	2730      	movs	r7, #48	; 0x30
    2c82:	ae05      	add	r6, sp, #20
    2c84:	2a00      	cmp	r2, #0
    2c86:	d00d      	beq.n	2ca4 <io_put_fixed+0x6c>
    2c88:	4283      	cmp	r3, r0
    2c8a:	d00a      	beq.n	2ca2 <io_put_fixed+0x6a>
    2c8c:	5c32      	ldrb	r2, [r6, r0]
    2c8e:	2a38      	cmp	r2, #56	; 0x38
    2c90:	d902      	bls.n	2c98 <io_put_fixed+0x60>
    2c92:	5437      	strb	r7, [r6, r0]
    2c94:	2201      	movs	r2, #1
    2c96:	e002      	b.n	2c9e <io_put_fixed+0x66>
    2c98:	3201      	adds	r2, #1
    2c9a:	5432      	strb	r2, [r6, r0]
    2c9c:	2200      	movs	r2, #0
    2c9e:	3001      	adds	r0, #1
    2ca0:	e7ef      	b.n	2c82 <io_put_fixed+0x4a>
    2ca2:	2201      	movs	r2, #1
    2ca4:	2b00      	cmp	r3, #0
    2ca6:	d002      	beq.n	2cae <io_put_fixed+0x76>
    2ca8:	202e      	movs	r0, #46	; 0x2e
    2caa:	1c5c      	adds	r4, r3, #1
    2cac:	54f0      	strb	r0, [r6, r3]
    2cae:	0c09      	lsrs	r1, r1, #16
    2cb0:	1851      	adds	r1, r2, r1
    2cb2:	a803      	add	r0, sp, #12
    2cb4:	f7fd eafa 	blx	2ac <sark_div10>
    2cb8:	9b04      	ldr	r3, [sp, #16]
    2cba:	9903      	ldr	r1, [sp, #12]
    2cbc:	3330      	adds	r3, #48	; 0x30
    2cbe:	1c67      	adds	r7, r4, #1
    2cc0:	5533      	strb	r3, [r6, r4]
    2cc2:	2900      	cmp	r1, #0
    2cc4:	d001      	beq.n	2cca <io_put_fixed+0x92>
    2cc6:	003c      	movs	r4, r7
    2cc8:	e7f3      	b.n	2cb2 <io_put_fixed+0x7a>
    2cca:	9b13      	ldr	r3, [sp, #76]	; 0x4c
    2ccc:	2b00      	cmp	r3, #0
    2cce:	d002      	beq.n	2cd6 <io_put_fixed+0x9e>
    2cd0:	232d      	movs	r3, #45	; 0x2d
    2cd2:	55f3      	strb	r3, [r6, r7]
    2cd4:	1ca7      	adds	r7, r4, #2
    2cd6:	9c00      	ldr	r4, [sp, #0]
    2cd8:	1c7b      	adds	r3, r7, #1
    2cda:	42a3      	cmp	r3, r4
    2cdc:	d205      	bcs.n	2cea <io_put_fixed+0xb2>
    2cde:	9912      	ldr	r1, [sp, #72]	; 0x48
    2ce0:	0028      	movs	r0, r5
    2ce2:	f7ff ff33 	bl	2b4c <io_put_char>
    2ce6:	3c01      	subs	r4, #1
    2ce8:	e7f6      	b.n	2cd8 <io_put_fixed+0xa0>
    2cea:	3f01      	subs	r7, #1
    2cec:	5df1      	ldrb	r1, [r6, r7]
    2cee:	0028      	movs	r0, r5
    2cf0:	f7ff ff2c 	bl	2b4c <io_put_char>
    2cf4:	2f00      	cmp	r7, #0
    2cf6:	d1f8      	bne.n	2cea <io_put_fixed+0xb2>
    2cf8:	b00d      	add	sp, #52	; 0x34
    2cfa:	bdf0      	pop	{r4, r5, r6, r7, pc}

00002cfc <io_printf>:
    2cfc:	b40e      	push	{r1, r2, r3}
    2cfe:	b5f0      	push	{r4, r5, r6, r7, lr}
    2d00:	0004      	movs	r4, r0
    2d02:	b08c      	sub	sp, #48	; 0x30
    2d04:	2803      	cmp	r0, #3
    2d06:	d100      	bne.n	2d0a <io_printf+0xe>
    2d08:	e140      	b.n	2f8c <io_printf+0x290>
    2d0a:	d903      	bls.n	2d14 <io_printf+0x18>
    2d0c:	4aa2      	ldr	r2, [pc, #648]	; (2f98 <io_printf+0x29c>)
    2d0e:	2300      	movs	r3, #0
    2d10:	7003      	strb	r3, [r0, #0]
    2d12:	6013      	str	r3, [r2, #0]
    2d14:	ab12      	add	r3, sp, #72	; 0x48
    2d16:	9305      	str	r3, [sp, #20]
    2d18:	9b11      	ldr	r3, [sp, #68]	; 0x44
    2d1a:	7819      	ldrb	r1, [r3, #0]
    2d1c:	2900      	cmp	r1, #0
    2d1e:	d100      	bne.n	2d22 <io_printf+0x26>
    2d20:	e134      	b.n	2f8c <io_printf+0x290>
    2d22:	2925      	cmp	r1, #37	; 0x25
    2d24:	d002      	beq.n	2d2c <io_printf+0x30>
    2d26:	3301      	adds	r3, #1
    2d28:	9311      	str	r3, [sp, #68]	; 0x44
    2d2a:	e059      	b.n	2de0 <io_printf+0xe4>
    2d2c:	9b11      	ldr	r3, [sp, #68]	; 0x44
    2d2e:	7859      	ldrb	r1, [r3, #1]
    2d30:	1c9a      	adds	r2, r3, #2
    2d32:	2900      	cmp	r1, #0
    2d34:	d100      	bne.n	2d38 <io_printf+0x3c>
    2d36:	e129      	b.n	2f8c <io_printf+0x290>
    2d38:	2320      	movs	r3, #32
    2d3a:	9303      	str	r3, [sp, #12]
    2d3c:	2930      	cmp	r1, #48	; 0x30
    2d3e:	d100      	bne.n	2d42 <io_printf+0x46>
    2d40:	9103      	str	r1, [sp, #12]
    2d42:	2500      	movs	r5, #0
    2d44:	000b      	movs	r3, r1
    2d46:	3b30      	subs	r3, #48	; 0x30
    2d48:	9211      	str	r2, [sp, #68]	; 0x44
    2d4a:	2b09      	cmp	r3, #9
    2d4c:	d80a      	bhi.n	2d64 <io_printf+0x68>
    2d4e:	230a      	movs	r3, #10
    2d50:	436b      	muls	r3, r5
    2d52:	3201      	adds	r2, #1
    2d54:	1859      	adds	r1, r3, r1
    2d56:	3930      	subs	r1, #48	; 0x30
    2d58:	1e53      	subs	r3, r2, #1
    2d5a:	000d      	movs	r5, r1
    2d5c:	7819      	ldrb	r1, [r3, #0]
    2d5e:	2900      	cmp	r1, #0
    2d60:	d1f0      	bne.n	2d44 <io_printf+0x48>
    2d62:	e113      	b.n	2f8c <io_printf+0x290>
    2d64:	2306      	movs	r3, #6
    2d66:	292e      	cmp	r1, #46	; 0x2e
    2d68:	d112      	bne.n	2d90 <io_printf+0x94>
    2d6a:	7811      	ldrb	r1, [r2, #0]
    2d6c:	2300      	movs	r3, #0
    2d6e:	3201      	adds	r2, #1
    2d70:	0008      	movs	r0, r1
    2d72:	3830      	subs	r0, #48	; 0x30
    2d74:	9211      	str	r2, [sp, #68]	; 0x44
    2d76:	2809      	cmp	r0, #9
    2d78:	d807      	bhi.n	2d8a <io_printf+0x8e>
    2d7a:	200a      	movs	r0, #10
    2d7c:	4358      	muls	r0, r3
    2d7e:	1841      	adds	r1, r0, r1
    2d80:	000b      	movs	r3, r1
    2d82:	3b30      	subs	r3, #48	; 0x30
    2d84:	7811      	ldrb	r1, [r2, #0]
    2d86:	3201      	adds	r2, #1
    2d88:	e7f2      	b.n	2d70 <io_printf+0x74>
    2d8a:	2900      	cmp	r1, #0
    2d8c:	d100      	bne.n	2d90 <io_printf+0x94>
    2d8e:	e0fd      	b.n	2f8c <io_printf+0x290>
    2d90:	296b      	cmp	r1, #107	; 0x6b
    2d92:	d100      	bne.n	2d96 <io_printf+0x9a>
    2d94:	e0aa      	b.n	2eec <io_printf+0x1f0>
    2d96:	d80f      	bhi.n	2db8 <io_printf+0xbc>
    2d98:	2963      	cmp	r1, #99	; 0x63
    2d9a:	d01d      	beq.n	2dd8 <io_printf+0xdc>
    2d9c:	d806      	bhi.n	2dac <io_printf+0xb0>
    2d9e:	294b      	cmp	r1, #75	; 0x4b
    2da0:	d100      	bne.n	2da4 <io_printf+0xa8>
    2da2:	e099      	b.n	2ed8 <io_printf+0x1dc>
    2da4:	2952      	cmp	r1, #82	; 0x52
    2da6:	d100      	bne.n	2daa <io_printf+0xae>
    2da8:	e096      	b.n	2ed8 <io_printf+0x1dc>
    2daa:	e019      	b.n	2de0 <io_printf+0xe4>
    2dac:	2964      	cmp	r1, #100	; 0x64
    2dae:	d037      	beq.n	2e20 <io_printf+0x124>
    2db0:	2966      	cmp	r1, #102	; 0x66
    2db2:	d100      	bne.n	2db6 <io_printf+0xba>
    2db4:	e090      	b.n	2ed8 <io_printf+0x1dc>
    2db6:	e013      	b.n	2de0 <io_printf+0xe4>
    2db8:	2975      	cmp	r1, #117	; 0x75
    2dba:	d066      	beq.n	2e8a <io_printf+0x18e>
    2dbc:	d805      	bhi.n	2dca <io_printf+0xce>
    2dbe:	2972      	cmp	r1, #114	; 0x72
    2dc0:	d100      	bne.n	2dc4 <io_printf+0xc8>
    2dc2:	e093      	b.n	2eec <io_printf+0x1f0>
    2dc4:	2973      	cmp	r1, #115	; 0x73
    2dc6:	d00f      	beq.n	2de8 <io_printf+0xec>
    2dc8:	e00a      	b.n	2de0 <io_printf+0xe4>
    2dca:	2978      	cmp	r1, #120	; 0x78
    2dcc:	d100      	bne.n	2dd0 <io_printf+0xd4>
    2dce:	e09e      	b.n	2f0e <io_printf+0x212>
    2dd0:	297a      	cmp	r1, #122	; 0x7a
    2dd2:	d100      	bne.n	2dd6 <io_printf+0xda>
    2dd4:	e0c2      	b.n	2f5c <io_printf+0x260>
    2dd6:	e003      	b.n	2de0 <io_printf+0xe4>
    2dd8:	9b05      	ldr	r3, [sp, #20]
    2dda:	6819      	ldr	r1, [r3, #0]
    2ddc:	1d1a      	adds	r2, r3, #4
    2dde:	9205      	str	r2, [sp, #20]
    2de0:	0020      	movs	r0, r4
    2de2:	f7ff feb3 	bl	2b4c <io_put_char>
    2de6:	e797      	b.n	2d18 <io_printf+0x1c>
    2de8:	9b05      	ldr	r3, [sp, #20]
    2dea:	681e      	ldr	r6, [r3, #0]
    2dec:	1d1a      	adds	r2, r3, #4
    2dee:	0033      	movs	r3, r6
    2df0:	9205      	str	r2, [sp, #20]
    2df2:	1b9f      	subs	r7, r3, r6
    2df4:	3301      	adds	r3, #1
    2df6:	1e5a      	subs	r2, r3, #1
    2df8:	7812      	ldrb	r2, [r2, #0]
    2dfa:	2a00      	cmp	r2, #0
    2dfc:	d1f9      	bne.n	2df2 <io_printf+0xf6>
    2dfe:	42bd      	cmp	r5, r7
    2e00:	dd05      	ble.n	2e0e <io_printf+0x112>
    2e02:	2120      	movs	r1, #32
    2e04:	0020      	movs	r0, r4
    2e06:	f7ff fea1 	bl	2b4c <io_put_char>
    2e0a:	3d01      	subs	r5, #1
    2e0c:	e7f7      	b.n	2dfe <io_printf+0x102>
    2e0e:	7831      	ldrb	r1, [r6, #0]
    2e10:	2900      	cmp	r1, #0
    2e12:	d100      	bne.n	2e16 <io_printf+0x11a>
    2e14:	e780      	b.n	2d18 <io_printf+0x1c>
    2e16:	0020      	movs	r0, r4
    2e18:	3601      	adds	r6, #1
    2e1a:	f7ff fe97 	bl	2b4c <io_put_char>
    2e1e:	e7f6      	b.n	2e0e <io_printf+0x112>
    2e20:	9b05      	ldr	r3, [sp, #20]
    2e22:	6819      	ldr	r1, [r3, #0]
    2e24:	1d1a      	adds	r2, r3, #4
    2e26:	2300      	movs	r3, #0
    2e28:	9205      	str	r2, [sp, #20]
    2e2a:	9303      	str	r3, [sp, #12]
    2e2c:	4299      	cmp	r1, r3
    2e2e:	da02      	bge.n	2e36 <io_printf+0x13a>
    2e30:	332d      	adds	r3, #45	; 0x2d
    2e32:	4249      	negs	r1, r1
    2e34:	9303      	str	r3, [sp, #12]
    2e36:	2600      	movs	r6, #0
    2e38:	a806      	add	r0, sp, #24
    2e3a:	f7fd ea38 	blx	2ac <sark_div10>
    2e3e:	9b07      	ldr	r3, [sp, #28]
    2e40:	3601      	adds	r6, #1
    2e42:	9906      	ldr	r1, [sp, #24]
    2e44:	af08      	add	r7, sp, #32
    2e46:	1e72      	subs	r2, r6, #1
    2e48:	3330      	adds	r3, #48	; 0x30
    2e4a:	54bb      	strb	r3, [r7, r2]
    2e4c:	2900      	cmp	r1, #0
    2e4e:	d1f3      	bne.n	2e38 <io_printf+0x13c>
    2e50:	3e01      	subs	r6, #1
    2e52:	5dbb      	ldrb	r3, [r7, r6]
    2e54:	2b30      	cmp	r3, #48	; 0x30
    2e56:	d101      	bne.n	2e5c <io_printf+0x160>
    2e58:	2e00      	cmp	r6, #0
    2e5a:	d1f9      	bne.n	2e50 <io_printf+0x154>
    2e5c:	9b03      	ldr	r3, [sp, #12]
    2e5e:	2b00      	cmp	r3, #0
    2e60:	d003      	beq.n	2e6a <io_printf+0x16e>
    2e62:	466b      	mov	r3, sp
    2e64:	3601      	adds	r6, #1
    2e66:	7b1b      	ldrb	r3, [r3, #12]
    2e68:	55bb      	strb	r3, [r7, r6]
    2e6a:	1c73      	adds	r3, r6, #1
    2e6c:	42ab      	cmp	r3, r5
    2e6e:	d205      	bcs.n	2e7c <io_printf+0x180>
    2e70:	2120      	movs	r1, #32
    2e72:	0020      	movs	r0, r4
    2e74:	f7ff fe6a 	bl	2b4c <io_put_char>
    2e78:	3d01      	subs	r5, #1
    2e7a:	e7f6      	b.n	2e6a <io_printf+0x16e>
    2e7c:	5db9      	ldrb	r1, [r7, r6]
    2e7e:	0020      	movs	r0, r4
    2e80:	f7ff fe64 	bl	2b4c <io_put_char>
    2e84:	3e01      	subs	r6, #1
    2e86:	d2f9      	bcs.n	2e7c <io_printf+0x180>
    2e88:	e746      	b.n	2d18 <io_printf+0x1c>
    2e8a:	9b05      	ldr	r3, [sp, #20]
    2e8c:	2600      	movs	r6, #0
    2e8e:	6819      	ldr	r1, [r3, #0]
    2e90:	1d1a      	adds	r2, r3, #4
    2e92:	9205      	str	r2, [sp, #20]
    2e94:	a806      	add	r0, sp, #24
    2e96:	f7fd ea0a 	blx	2ac <sark_div10>
    2e9a:	9b07      	ldr	r3, [sp, #28]
    2e9c:	3601      	adds	r6, #1
    2e9e:	9906      	ldr	r1, [sp, #24]
    2ea0:	af08      	add	r7, sp, #32
    2ea2:	1e72      	subs	r2, r6, #1
    2ea4:	3330      	adds	r3, #48	; 0x30
    2ea6:	54bb      	strb	r3, [r7, r2]
    2ea8:	2900      	cmp	r1, #0
    2eaa:	d1f3      	bne.n	2e94 <io_printf+0x198>
    2eac:	3e01      	subs	r6, #1
    2eae:	5dbb      	ldrb	r3, [r7, r6]
    2eb0:	2b30      	cmp	r3, #48	; 0x30
    2eb2:	d101      	bne.n	2eb8 <io_printf+0x1bc>
    2eb4:	2e00      	cmp	r6, #0
    2eb6:	d1f9      	bne.n	2eac <io_printf+0x1b0>
    2eb8:	1c73      	adds	r3, r6, #1
    2eba:	42ab      	cmp	r3, r5
    2ebc:	d205      	bcs.n	2eca <io_printf+0x1ce>
    2ebe:	9903      	ldr	r1, [sp, #12]
    2ec0:	0020      	movs	r0, r4
    2ec2:	f7ff fe43 	bl	2b4c <io_put_char>
    2ec6:	3d01      	subs	r5, #1
    2ec8:	e7f6      	b.n	2eb8 <io_printf+0x1bc>
    2eca:	5db9      	ldrb	r1, [r7, r6]
    2ecc:	0020      	movs	r0, r4
    2ece:	f7ff fe3d 	bl	2b4c <io_put_char>
    2ed2:	3e01      	subs	r6, #1
    2ed4:	d2f9      	bcs.n	2eca <io_printf+0x1ce>
    2ed6:	e71f      	b.n	2d18 <io_printf+0x1c>
    2ed8:	9905      	ldr	r1, [sp, #20]
    2eda:	1d0a      	adds	r2, r1, #4
    2edc:	9205      	str	r2, [sp, #20]
    2ede:	2200      	movs	r2, #0
    2ee0:	9201      	str	r2, [sp, #4]
    2ee2:	9a03      	ldr	r2, [sp, #12]
    2ee4:	9200      	str	r2, [sp, #0]
    2ee6:	002a      	movs	r2, r5
    2ee8:	6809      	ldr	r1, [r1, #0]
    2eea:	e00c      	b.n	2f06 <io_printf+0x20a>
    2eec:	9a05      	ldr	r2, [sp, #20]
    2eee:	1d11      	adds	r1, r2, #4
    2ef0:	6812      	ldr	r2, [r2, #0]
    2ef2:	9105      	str	r1, [sp, #20]
    2ef4:	17d0      	asrs	r0, r2, #31
    2ef6:	1811      	adds	r1, r2, r0
    2ef8:	0fd2      	lsrs	r2, r2, #31
    2efa:	4041      	eors	r1, r0
    2efc:	9201      	str	r2, [sp, #4]
    2efe:	9a03      	ldr	r2, [sp, #12]
    2f00:	9200      	str	r2, [sp, #0]
    2f02:	0049      	lsls	r1, r1, #1
    2f04:	002a      	movs	r2, r5
    2f06:	0020      	movs	r0, r4
    2f08:	f7ff fe96 	bl	2c38 <io_put_fixed>
    2f0c:	e704      	b.n	2d18 <io_printf+0x1c>
    2f0e:	9b05      	ldr	r3, [sp, #20]
    2f10:	4822      	ldr	r0, [pc, #136]	; (2f9c <io_printf+0x2a0>)
    2f12:	1d1a      	adds	r2, r3, #4
    2f14:	9205      	str	r2, [sp, #20]
    2f16:	681b      	ldr	r3, [r3, #0]
    2f18:	220f      	movs	r2, #15
    2f1a:	2600      	movs	r6, #0
    2f1c:	af08      	add	r7, sp, #32
    2f1e:	4694      	mov	ip, r2
    2f20:	4661      	mov	r1, ip
    2f22:	4019      	ands	r1, r3
    2f24:	3601      	adds	r6, #1
    2f26:	1e72      	subs	r2, r6, #1
    2f28:	5c41      	ldrb	r1, [r0, r1]
    2f2a:	54b9      	strb	r1, [r7, r2]
    2f2c:	091b      	lsrs	r3, r3, #4
    2f2e:	d1f7      	bne.n	2f20 <io_printf+0x224>
    2f30:	3e01      	subs	r6, #1
    2f32:	5dbb      	ldrb	r3, [r7, r6]
    2f34:	2b30      	cmp	r3, #48	; 0x30
    2f36:	d101      	bne.n	2f3c <io_printf+0x240>
    2f38:	2e00      	cmp	r6, #0
    2f3a:	d1f9      	bne.n	2f30 <io_printf+0x234>
    2f3c:	1c73      	adds	r3, r6, #1
    2f3e:	42ab      	cmp	r3, r5
    2f40:	d205      	bcs.n	2f4e <io_printf+0x252>
    2f42:	9903      	ldr	r1, [sp, #12]
    2f44:	0020      	movs	r0, r4
    2f46:	f7ff fe01 	bl	2b4c <io_put_char>
    2f4a:	3d01      	subs	r5, #1
    2f4c:	e7f6      	b.n	2f3c <io_printf+0x240>
    2f4e:	5db9      	ldrb	r1, [r7, r6]
    2f50:	0020      	movs	r0, r4
    2f52:	f7ff fdfb 	bl	2b4c <io_put_char>
    2f56:	3e01      	subs	r6, #1
    2f58:	d2f9      	bcs.n	2f4e <io_printf+0x252>
    2f5a:	e6dd      	b.n	2d18 <io_printf+0x1c>
    2f5c:	9b05      	ldr	r3, [sp, #20]
    2f5e:	1e6e      	subs	r6, r5, #1
    2f60:	1d1a      	adds	r2, r3, #4
    2f62:	681b      	ldr	r3, [r3, #0]
    2f64:	9303      	str	r3, [sp, #12]
    2f66:	4b0e      	ldr	r3, [pc, #56]	; (2fa0 <io_printf+0x2a4>)
    2f68:	270f      	movs	r7, #15
    2f6a:	18ed      	adds	r5, r5, r3
    2f6c:	00ad      	lsls	r5, r5, #2
    2f6e:	9205      	str	r2, [sp, #20]
    2f70:	2e00      	cmp	r6, #0
    2f72:	da00      	bge.n	2f76 <io_printf+0x27a>
    2f74:	e6d0      	b.n	2d18 <io_printf+0x1c>
    2f76:	9b03      	ldr	r3, [sp, #12]
    2f78:	4a08      	ldr	r2, [pc, #32]	; (2f9c <io_printf+0x2a0>)
    2f7a:	40eb      	lsrs	r3, r5
    2f7c:	403b      	ands	r3, r7
    2f7e:	5cd1      	ldrb	r1, [r2, r3]
    2f80:	0020      	movs	r0, r4
    2f82:	f7ff fde3 	bl	2b4c <io_put_char>
    2f86:	3e01      	subs	r6, #1
    2f88:	3d04      	subs	r5, #4
    2f8a:	e7f1      	b.n	2f70 <io_printf+0x274>
    2f8c:	b00c      	add	sp, #48	; 0x30
    2f8e:	bcf0      	pop	{r4, r5, r6, r7}
    2f90:	bc08      	pop	{r3}
    2f92:	b003      	add	sp, #12
    2f94:	4718      	bx	r3
    2f96:	46c0      	nop			; (mov r8, r8)
    2f98:	0040019c 	.word	0x0040019c
    2f9c:	000053b9 	.word	0x000053b9
    2fa0:	3fffffff 	.word	0x3fffffff

00002fa4 <configure_dma_controller>:
    2fa4:	4b06      	ldr	r3, [pc, #24]	; (2fc0 <configure_dma_controller+0x1c>)
    2fa6:	223f      	movs	r2, #63	; 0x3f
    2fa8:	601a      	str	r2, [r3, #0]
    2faa:	3a32      	subs	r2, #50	; 0x32
    2fac:	601a      	str	r2, [r3, #0]
    2fae:	4b05      	ldr	r3, [pc, #20]	; (2fc4 <configure_dma_controller+0x20>)
    2fb0:	22c0      	movs	r2, #192	; 0xc0
    2fb2:	0112      	lsls	r2, r2, #4
    2fb4:	601a      	str	r2, [r3, #0]
    2fb6:	4b04      	ldr	r3, [pc, #16]	; (2fc8 <configure_dma_controller+0x24>)
    2fb8:	2203      	movs	r2, #3
    2fba:	601a      	str	r2, [r3, #0]
    2fbc:	4770      	bx	lr
    2fbe:	46c0      	nop			; (mov r8, r8)
    2fc0:	40000010 	.word	0x40000010
    2fc4:	40000018 	.word	0x40000018
    2fc8:	40000028 	.word	0x40000028

00002fcc <configure_timer1>:
    2fcc:	4b07      	ldr	r3, [pc, #28]	; (2fec <configure_timer1+0x20>)
    2fce:	2200      	movs	r2, #0
    2fd0:	601a      	str	r2, [r3, #0]
    2fd2:	4b07      	ldr	r3, [pc, #28]	; (2ff0 <configure_timer1+0x24>)
    2fd4:	3201      	adds	r2, #1
    2fd6:	601a      	str	r2, [r3, #0]
    2fd8:	4b06      	ldr	r3, [pc, #24]	; (2ff4 <configure_timer1+0x28>)
    2fda:	8c9b      	ldrh	r3, [r3, #36]	; 0x24
    2fdc:	4358      	muls	r0, r3
    2fde:	2384      	movs	r3, #132	; 0x84
    2fe0:	059b      	lsls	r3, r3, #22
    2fe2:	6018      	str	r0, [r3, #0]
    2fe4:	4b04      	ldr	r3, [pc, #16]	; (2ff8 <configure_timer1+0x2c>)
    2fe6:	6018      	str	r0, [r3, #0]
    2fe8:	4770      	bx	lr
    2fea:	46c0      	nop			; (mov r8, r8)
    2fec:	21000008 	.word	0x21000008
    2ff0:	2100000c 	.word	0x2100000c
    2ff4:	e5007f00 	.word	0xe5007f00
    2ff8:	21000018 	.word	0x21000018

00002ffc <configure_vic>:
    2ffc:	4b36      	ldr	r3, [pc, #216]	; (30d8 <configure_vic+0xdc>)
    2ffe:	4a37      	ldr	r2, [pc, #220]	; (30dc <configure_vic+0xe0>)
    3000:	b530      	push	{r4, r5, lr}
    3002:	601a      	str	r2, [r3, #0]
    3004:	4a36      	ldr	r2, [pc, #216]	; (30e0 <configure_vic+0xe4>)
    3006:	2320      	movs	r3, #32
    3008:	69d9      	ldr	r1, [r3, #28]
    300a:	6011      	str	r1, [r2, #0]
    300c:	4935      	ldr	r1, [pc, #212]	; (30e4 <configure_vic+0xe8>)
    300e:	4a36      	ldr	r2, [pc, #216]	; (30e8 <configure_vic+0xec>)
    3010:	0004      	movs	r4, r0
    3012:	6808      	ldr	r0, [r1, #0]
    3014:	6010      	str	r0, [r2, #0]
    3016:	4a35      	ldr	r2, [pc, #212]	; (30ec <configure_vic+0xf0>)
    3018:	4835      	ldr	r0, [pc, #212]	; (30f0 <configure_vic+0xf4>)
    301a:	6815      	ldr	r5, [r2, #0]
    301c:	6005      	str	r5, [r0, #0]
    301e:	4835      	ldr	r0, [pc, #212]	; (30f4 <configure_vic+0xf8>)
    3020:	6800      	ldr	r0, [r0, #0]
    3022:	2807      	cmp	r0, #7
    3024:	d81c      	bhi.n	3060 <configure_vic+0x64>
    3026:	f7fd f98b 	bl	340 <__gnu_thumb1_case_uqi>
    302a:	0e04      	.short	0x0e04
    302c:	04171b13 	.word	0x04171b13
    3030:	0909      	.short	0x0909
    3032:	4831      	ldr	r0, [pc, #196]	; (30f8 <configure_vic+0xfc>)
    3034:	61d8      	str	r0, [r3, #28]
    3036:	2080      	movs	r0, #128	; 0x80
    3038:	0440      	lsls	r0, r0, #17
    303a:	e012      	b.n	3062 <configure_vic+0x66>
    303c:	482f      	ldr	r0, [pc, #188]	; (30fc <configure_vic+0x100>)
    303e:	61d8      	str	r0, [r3, #28]
    3040:	2080      	movs	r0, #128	; 0x80
    3042:	0500      	lsls	r0, r0, #20
    3044:	e00d      	b.n	3062 <configure_vic+0x66>
    3046:	482e      	ldr	r0, [pc, #184]	; (3100 <configure_vic+0x104>)
    3048:	61d8      	str	r0, [r3, #28]
    304a:	2080      	movs	r0, #128	; 0x80
    304c:	0140      	lsls	r0, r0, #5
    304e:	e008      	b.n	3062 <configure_vic+0x66>
    3050:	482c      	ldr	r0, [pc, #176]	; (3104 <configure_vic+0x108>)
    3052:	61d8      	str	r0, [r3, #28]
    3054:	2010      	movs	r0, #16
    3056:	e004      	b.n	3062 <configure_vic+0x66>
    3058:	482b      	ldr	r0, [pc, #172]	; (3108 <configure_vic+0x10c>)
    305a:	61d8      	str	r0, [r3, #28]
    305c:	2002      	movs	r0, #2
    305e:	e000      	b.n	3062 <configure_vic+0x66>
    3060:	2000      	movs	r0, #0
    3062:	2359      	movs	r3, #89	; 0x59
    3064:	781b      	ldrb	r3, [r3, #0]
    3066:	4d29      	ldr	r5, [pc, #164]	; (310c <configure_vic+0x110>)
    3068:	009b      	lsls	r3, r3, #2
    306a:	195b      	adds	r3, r3, r5
    306c:	2500      	movs	r5, #0
    306e:	601d      	str	r5, [r3, #0]
    3070:	4b27      	ldr	r3, [pc, #156]	; (3110 <configure_vic+0x114>)
    3072:	4d28      	ldr	r5, [pc, #160]	; (3114 <configure_vic+0x118>)
    3074:	601d      	str	r5, [r3, #0]
    3076:	4b25      	ldr	r3, [pc, #148]	; (310c <configure_vic+0x110>)
    3078:	2532      	movs	r5, #50	; 0x32
    307a:	601d      	str	r5, [r3, #0]
    307c:	4b26      	ldr	r3, [pc, #152]	; (3118 <configure_vic+0x11c>)
    307e:	4d27      	ldr	r5, [pc, #156]	; (311c <configure_vic+0x120>)
    3080:	601d      	str	r5, [r3, #0]
    3082:	4b27      	ldr	r3, [pc, #156]	; (3120 <configure_vic+0x124>)
    3084:	2538      	movs	r5, #56	; 0x38
    3086:	601d      	str	r5, [r3, #0]
    3088:	4b26      	ldr	r3, [pc, #152]	; (3124 <configure_vic+0x128>)
    308a:	4d27      	ldr	r5, [pc, #156]	; (3128 <configure_vic+0x12c>)
    308c:	601d      	str	r5, [r3, #0]
    308e:	4b27      	ldr	r3, [pc, #156]	; (312c <configure_vic+0x130>)
    3090:	253b      	movs	r5, #59	; 0x3b
    3092:	601d      	str	r5, [r3, #0]
    3094:	4b26      	ldr	r3, [pc, #152]	; (3130 <configure_vic+0x134>)
    3096:	4d27      	ldr	r5, [pc, #156]	; (3134 <configure_vic+0x138>)
    3098:	601d      	str	r5, [r3, #0]
    309a:	4b27      	ldr	r3, [pc, #156]	; (3138 <configure_vic+0x13c>)
    309c:	252c      	movs	r5, #44	; 0x2c
    309e:	601d      	str	r5, [r3, #0]
    30a0:	4b26      	ldr	r3, [pc, #152]	; (313c <configure_vic+0x140>)
    30a2:	4d27      	ldr	r5, [pc, #156]	; (3140 <configure_vic+0x144>)
    30a4:	601d      	str	r5, [r3, #0]
    30a6:	4b27      	ldr	r3, [pc, #156]	; (3144 <configure_vic+0x148>)
    30a8:	2524      	movs	r5, #36	; 0x24
    30aa:	601d      	str	r5, [r3, #0]
    30ac:	4b26      	ldr	r3, [pc, #152]	; (3148 <configure_vic+0x14c>)
    30ae:	4d27      	ldr	r5, [pc, #156]	; (314c <configure_vic+0x150>)
    30b0:	601d      	str	r5, [r3, #0]
    30b2:	4b27      	ldr	r3, [pc, #156]	; (3150 <configure_vic+0x154>)
    30b4:	252b      	movs	r5, #43	; 0x2b
    30b6:	601d      	str	r5, [r3, #0]
    30b8:	4b26      	ldr	r3, [pc, #152]	; (3154 <configure_vic+0x158>)
    30ba:	4d27      	ldr	r5, [pc, #156]	; (3158 <configure_vic+0x15c>)
    30bc:	601d      	str	r5, [r3, #0]
    30be:	4b27      	ldr	r3, [pc, #156]	; (315c <configure_vic+0x160>)
    30c0:	2521      	movs	r5, #33	; 0x21
    30c2:	601d      	str	r5, [r3, #0]
    30c4:	6008      	str	r0, [r1, #0]
    30c6:	2c00      	cmp	r4, #0
    30c8:	d101      	bne.n	30ce <configure_vic+0xd2>
    30ca:	4925      	ldr	r1, [pc, #148]	; (3160 <configure_vic+0x164>)
    30cc:	e000      	b.n	30d0 <configure_vic+0xd4>
    30ce:	4903      	ldr	r1, [pc, #12]	; (30dc <configure_vic+0xe0>)
    30d0:	4b24      	ldr	r3, [pc, #144]	; (3164 <configure_vic+0x168>)
    30d2:	400b      	ands	r3, r1
    30d4:	6013      	str	r3, [r2, #0]
    30d6:	bd30      	pop	{r4, r5, pc}
    30d8:	1f000014 	.word	0x1f000014
    30dc:	09003012 	.word	0x09003012
    30e0:	004009b0 	.word	0x004009b0
    30e4:	1f00000c 	.word	0x1f00000c
    30e8:	00400b50 	.word	0x00400b50
    30ec:	1f000010 	.word	0x1f000010
    30f0:	004009fc 	.word	0x004009fc
    30f4:	00400104 	.word	0x00400104
    30f8:	000037e0 	.word	0x000037e0
    30fc:	0000388c 	.word	0x0000388c
    3100:	000039dc 	.word	0x000039dc
    3104:	00003adc 	.word	0x00003adc
    3108:	00003b84 	.word	0x00003b84
    310c:	2f000200 	.word	0x2f000200
    3110:	2f000100 	.word	0x2f000100
    3114:	000002dc 	.word	0x000002dc
    3118:	2f00010c 	.word	0x2f00010c
    311c:	00003768 	.word	0x00003768
    3120:	2f00020c 	.word	0x2f00020c
    3124:	2f000110 	.word	0x2f000110
    3128:	00003818 	.word	0x00003818
    312c:	2f000210 	.word	0x2f000210
    3130:	2f000108 	.word	0x2f000108
    3134:	0000394c 	.word	0x0000394c
    3138:	2f000208 	.word	0x2f000208
    313c:	2f000104 	.word	0x2f000104
    3140:	00003a54 	.word	0x00003a54
    3144:	2f000204 	.word	0x2f000204
    3148:	2f000114 	.word	0x2f000114
    314c:	000038c4 	.word	0x000038c4
    3150:	2f000214 	.word	0x2f000214
    3154:	2f000118 	.word	0x2f000118
    3158:	00003b1c 	.word	0x00003b1c
    315c:	2f000218 	.word	0x2f000218
    3160:	09003002 	.word	0x09003002
    3164:	ffffdfff 	.word	0xffffdfff

00003168 <resume>:
    3168:	4b0b      	ldr	r3, [pc, #44]	; (3198 <resume+0x30>)
    316a:	b510      	push	{r4, lr}
    316c:	6819      	ldr	r1, [r3, #0]
    316e:	2901      	cmp	r1, #1
    3170:	d105      	bne.n	317e <resume+0x16>
    3172:	2200      	movs	r2, #0
    3174:	601a      	str	r2, [r3, #0]
    3176:	4a09      	ldr	r2, [pc, #36]	; (319c <resume+0x34>)
    3178:	7e93      	ldrb	r3, [r2, #26]
    317a:	404b      	eors	r3, r1
    317c:	7693      	strb	r3, [r2, #26]
    317e:	4b08      	ldr	r3, [pc, #32]	; (31a0 <resume+0x38>)
    3180:	2200      	movs	r2, #0
    3182:	2007      	movs	r0, #7
    3184:	601a      	str	r2, [r3, #0]
    3186:	f7ff f8b7 	bl	22f8 <sark_cpu_state>
    318a:	4b06      	ldr	r3, [pc, #24]	; (31a4 <resume+0x3c>)
    318c:	2210      	movs	r2, #16
    318e:	601a      	str	r2, [r3, #0]
    3190:	4b05      	ldr	r3, [pc, #20]	; (31a8 <resume+0x40>)
    3192:	32d2      	adds	r2, #210	; 0xd2
    3194:	601a      	str	r2, [r3, #0]
    3196:	bd10      	pop	{r4, pc}
    3198:	004001a0 	.word	0x004001a0
    319c:	00400918 	.word	0x00400918
    31a0:	004001a8 	.word	0x004001a8
    31a4:	1f000010 	.word	0x1f000010
    31a8:	21000008 	.word	0x21000008

000031ac <resume_wait>:
    31ac:	4b06      	ldr	r3, [pc, #24]	; (31c8 <resume_wait+0x1c>)
    31ae:	2001      	movs	r0, #1
    31b0:	681b      	ldr	r3, [r3, #0]
    31b2:	4098      	lsls	r0, r3
    31b4:	4b05      	ldr	r3, [pc, #20]	; (31cc <resume_wait+0x20>)
    31b6:	7e9a      	ldrb	r2, [r3, #26]
    31b8:	4b05      	ldr	r3, [pc, #20]	; (31d0 <resume_wait+0x24>)
    31ba:	681b      	ldr	r3, [r3, #0]
    31bc:	2a00      	cmp	r2, #0
    31be:	d001      	beq.n	31c4 <resume_wait+0x18>
    31c0:	4398      	bics	r0, r3
    31c2:	e000      	b.n	31c6 <resume_wait+0x1a>
    31c4:	4018      	ands	r0, r3
    31c6:	4770      	bx	lr
    31c8:	004008dc 	.word	0x004008dc
    31cc:	00400918 	.word	0x00400918
    31d0:	e2000058 	.word	0xe2000058

000031d4 <dispatch>:
    31d4:	b5f7      	push	{r0, r1, r2, r4, r5, r6, r7, lr}
    31d6:	4c34      	ldr	r4, [pc, #208]	; (32a8 <dispatch+0xd4>)
    31d8:	2300      	movs	r3, #0
    31da:	6023      	str	r3, [r4, #0]
    31dc:	4b33      	ldr	r3, [pc, #204]	; (32ac <dispatch+0xd8>)
    31de:	681b      	ldr	r3, [r3, #0]
    31e0:	2b00      	cmp	r3, #0
    31e2:	d05f      	beq.n	32a4 <dispatch+0xd0>
    31e4:	f7fc efe8 	blx	1b8 <cpu_int_disable>
    31e8:	2300      	movs	r3, #0
    31ea:	0005      	movs	r5, r0
    31ec:	4a2f      	ldr	r2, [pc, #188]	; (32ac <dispatch+0xd8>)
    31ee:	6811      	ldr	r1, [r2, #0]
    31f0:	2900      	cmp	r1, #0
    31f2:	d103      	bne.n	31fc <dispatch+0x28>
    31f4:	6813      	ldr	r3, [r2, #0]
    31f6:	2b00      	cmp	r3, #0
    31f8:	d0f0      	beq.n	31dc <dispatch+0x8>
    31fa:	e044      	b.n	3286 <dispatch+0xb2>
    31fc:	2b03      	cmp	r3, #3
    31fe:	d8f9      	bhi.n	31f4 <dispatch+0x20>
    3200:	1c5a      	adds	r2, r3, #1
    3202:	4694      	mov	ip, r2
    3204:	22c8      	movs	r2, #200	; 0xc8
    3206:	435a      	muls	r2, r3
    3208:	4829      	ldr	r0, [pc, #164]	; (32b0 <dispatch+0xdc>)
    320a:	0013      	movs	r3, r2
    320c:	5811      	ldr	r1, [r2, r0]
    320e:	1882      	adds	r2, r0, r2
    3210:	6852      	ldr	r2, [r2, #4]
    3212:	4291      	cmp	r1, r2
    3214:	d035      	beq.n	3282 <dispatch+0xae>
    3216:	220c      	movs	r2, #12
    3218:	434a      	muls	r2, r1
    321a:	18d2      	adds	r2, r2, r3
    321c:	1882      	adds	r2, r0, r2
    321e:	6896      	ldr	r6, [r2, #8]
    3220:	9601      	str	r6, [sp, #4]
    3222:	6917      	ldr	r7, [r2, #16]
    3224:	68d6      	ldr	r6, [r2, #12]
    3226:	3101      	adds	r1, #1
    3228:	220f      	movs	r2, #15
    322a:	4011      	ands	r1, r2
    322c:	5019      	str	r1, [r3, r0]
    322e:	9b01      	ldr	r3, [sp, #4]
    3230:	2b00      	cmp	r3, #0
    3232:	d026      	beq.n	3282 <dispatch+0xae>
    3234:	0028      	movs	r0, r5
    3236:	f7fc efc8 	blx	1c8 <cpu_int_restore>
    323a:	4d1e      	ldr	r5, [pc, #120]	; (32b4 <dispatch+0xe0>)
    323c:	9a01      	ldr	r2, [sp, #4]
    323e:	692b      	ldr	r3, [r5, #16]
    3240:	4293      	cmp	r3, r2
    3242:	d102      	bne.n	324a <dispatch+0x76>
    3244:	4a1c      	ldr	r2, [pc, #112]	; (32b8 <dispatch+0xe4>)
    3246:	2101      	movs	r1, #1
    3248:	6391      	str	r1, [r2, #56]	; 0x38
    324a:	9a01      	ldr	r2, [sp, #4]
    324c:	4293      	cmp	r3, r2
    324e:	d103      	bne.n	3258 <dispatch+0x84>
    3250:	4b1a      	ldr	r3, [pc, #104]	; (32bc <dispatch+0xe8>)
    3252:	681b      	ldr	r3, [r3, #0]
    3254:	2b00      	cmp	r3, #0
    3256:	d103      	bne.n	3260 <dispatch+0x8c>
    3258:	9b01      	ldr	r3, [sp, #4]
    325a:	0039      	movs	r1, r7
    325c:	0030      	movs	r0, r6
    325e:	4798      	blx	r3
    3260:	9b01      	ldr	r3, [sp, #4]
    3262:	692a      	ldr	r2, [r5, #16]
    3264:	429a      	cmp	r2, r3
    3266:	d107      	bne.n	3278 <dispatch+0xa4>
    3268:	4a13      	ldr	r2, [pc, #76]	; (32b8 <dispatch+0xe4>)
    326a:	6bd3      	ldr	r3, [r2, #60]	; 0x3c
    326c:	2b00      	cmp	r3, #0
    326e:	d001      	beq.n	3274 <dispatch+0xa0>
    3270:	3b01      	subs	r3, #1
    3272:	63d3      	str	r3, [r2, #60]	; 0x3c
    3274:	2300      	movs	r3, #0
    3276:	6393      	str	r3, [r2, #56]	; 0x38
    3278:	f7fc ef9e 	blx	1b8 <cpu_int_disable>
    327c:	2300      	movs	r3, #0
    327e:	469c      	mov	ip, r3
    3280:	0005      	movs	r5, r0
    3282:	4663      	mov	r3, ip
    3284:	e7b2      	b.n	31ec <dispatch+0x18>
    3286:	f7fc efa4 	blx	1d0 <cpu_wfi>
    328a:	6823      	ldr	r3, [r4, #0]
    328c:	2b01      	cmp	r3, #1
    328e:	d105      	bne.n	329c <dispatch+0xc8>
    3290:	f7ff ff8c 	bl	31ac <resume_wait>
    3294:	2800      	cmp	r0, #0
    3296:	d101      	bne.n	329c <dispatch+0xc8>
    3298:	f7ff ff66 	bl	3168 <resume>
    329c:	0028      	movs	r0, r5
    329e:	f7fc ef94 	blx	1c8 <cpu_int_restore>
    32a2:	e79b      	b.n	31dc <dispatch+0x8>
    32a4:	bdf7      	pop	{r0, r1, r2, r4, r5, r6, r7, pc}
    32a6:	46c0      	nop			; (mov r8, r8)
    32a8:	004001a0 	.word	0x004001a0
    32ac:	004004d0 	.word	0x004004d0
    32b0:	004001b0 	.word	0x004001b0
    32b4:	00400b5c 	.word	0x00400b5c
    32b8:	004009b4 	.word	0x004009b4
    32bc:	004001a8 	.word	0x004001a8

000032c0 <spin1_callback_on>:
    32c0:	b570      	push	{r4, r5, r6, lr}
    32c2:	0015      	movs	r5, r2
    32c4:	4a1d      	ldr	r2, [pc, #116]	; (333c <spin1_callback_on+0x7c>)
    32c6:	00c3      	lsls	r3, r0, #3
    32c8:	5099      	str	r1, [r3, r2]
    32ca:	18d3      	adds	r3, r2, r3
    32cc:	0004      	movs	r4, r0
    32ce:	605d      	str	r5, [r3, #4]
    32d0:	2d00      	cmp	r5, #0
    32d2:	da1b      	bge.n	330c <spin1_callback_on+0x4c>
    32d4:	4a1a      	ldr	r2, [pc, #104]	; (3340 <spin1_callback_on+0x80>)
    32d6:	6813      	ldr	r3, [r2, #0]
    32d8:	1c59      	adds	r1, r3, #1
    32da:	d012      	beq.n	3302 <spin1_callback_on+0x42>
    32dc:	2800      	cmp	r0, #0
    32de:	d102      	bne.n	32e6 <spin1_callback_on+0x26>
    32e0:	2b05      	cmp	r3, #5
    32e2:	d110      	bne.n	3306 <spin1_callback_on+0x46>
    32e4:	e00d      	b.n	3302 <spin1_callback_on+0x42>
    32e6:	2805      	cmp	r0, #5
    32e8:	d102      	bne.n	32f0 <spin1_callback_on+0x30>
    32ea:	2b00      	cmp	r3, #0
    32ec:	d009      	beq.n	3302 <spin1_callback_on+0x42>
    32ee:	e00a      	b.n	3306 <spin1_callback_on+0x46>
    32f0:	2806      	cmp	r0, #6
    32f2:	d102      	bne.n	32fa <spin1_callback_on+0x3a>
    32f4:	2b07      	cmp	r3, #7
    32f6:	d106      	bne.n	3306 <spin1_callback_on+0x46>
    32f8:	e003      	b.n	3302 <spin1_callback_on+0x42>
    32fa:	2807      	cmp	r0, #7
    32fc:	d103      	bne.n	3306 <spin1_callback_on+0x46>
    32fe:	2b06      	cmp	r3, #6
    3300:	d101      	bne.n	3306 <spin1_callback_on+0x46>
    3302:	6014      	str	r4, [r2, #0]
    3304:	e002      	b.n	330c <spin1_callback_on+0x4c>
    3306:	2013      	movs	r0, #19
    3308:	f7fc ef10 	blx	12c <rt_error>
    330c:	2c00      	cmp	r4, #0
    330e:	d001      	beq.n	3314 <spin1_callback_on+0x54>
    3310:	2c05      	cmp	r4, #5
    3312:	d101      	bne.n	3318 <spin1_callback_on+0x58>
    3314:	4a0b      	ldr	r2, [pc, #44]	; (3344 <spin1_callback_on+0x84>)
    3316:	e003      	b.n	3320 <spin1_callback_on+0x60>
    3318:	3c06      	subs	r4, #6
    331a:	2c01      	cmp	r4, #1
    331c:	d80c      	bhi.n	3338 <spin1_callback_on+0x78>
    331e:	4a0a      	ldr	r2, [pc, #40]	; (3348 <spin1_callback_on+0x88>)
    3320:	6813      	ldr	r3, [r2, #0]
    3322:	1c99      	adds	r1, r3, #2
    3324:	d007      	beq.n	3336 <spin1_callback_on+0x76>
    3326:	3301      	adds	r3, #1
    3328:	d106      	bne.n	3338 <spin1_callback_on+0x78>
    332a:	1c6b      	adds	r3, r5, #1
    332c:	d004      	beq.n	3338 <spin1_callback_on+0x78>
    332e:	2013      	movs	r0, #19
    3330:	f7fc eefc 	blx	12c <rt_error>
    3334:	e000      	b.n	3338 <spin1_callback_on+0x78>
    3336:	6015      	str	r5, [r2, #0]
    3338:	bd70      	pop	{r4, r5, r6, pc}
    333a:	46c0      	nop			; (mov r8, r8)
    333c:	00400b5c 	.word	0x00400b5c
    3340:	00400104 	.word	0x00400104
    3344:	004000fc 	.word	0x004000fc
    3348:	00400100 	.word	0x00400100

0000334c <spin1_get_simulation_time>:
    334c:	4b01      	ldr	r3, [pc, #4]	; (3354 <spin1_get_simulation_time+0x8>)
    334e:	6818      	ldr	r0, [r3, #0]
    3350:	4770      	bx	lr
    3352:	46c0      	nop			; (mov r8, r8)
    3354:	00400b54 	.word	0x00400b54

00003358 <spin1_exit>:
    3358:	4b04      	ldr	r3, [pc, #16]	; (336c <spin1_exit+0x14>)
    335a:	4a05      	ldr	r2, [pc, #20]	; (3370 <spin1_exit+0x18>)
    335c:	601a      	str	r2, [r3, #0]
    335e:	4b05      	ldr	r3, [pc, #20]	; (3374 <spin1_exit+0x1c>)
    3360:	2200      	movs	r2, #0
    3362:	601a      	str	r2, [r3, #0]
    3364:	4b04      	ldr	r3, [pc, #16]	; (3378 <spin1_exit+0x20>)
    3366:	6018      	str	r0, [r3, #0]
    3368:	4770      	bx	lr
    336a:	46c0      	nop			; (mov r8, r8)
    336c:	1f000014 	.word	0x1f000014
    3370:	09003012 	.word	0x09003012
    3374:	004004d0 	.word	0x004004d0
    3378:	004009b4 	.word	0x004009b4

0000337c <spin1_set_timer_tick>:
    337c:	4b01      	ldr	r3, [pc, #4]	; (3384 <spin1_set_timer_tick+0x8>)
    337e:	6018      	str	r0, [r3, #0]
    3380:	4770      	bx	lr
    3382:	46c0      	nop			; (mov r8, r8)
    3384:	004001a4 	.word	0x004001a4

00003388 <clean_up>:
    3388:	b510      	push	{r4, lr}
    338a:	f7fc ef16 	blx	1b8 <cpu_int_disable>
    338e:	4b10      	ldr	r3, [pc, #64]	; (33d0 <clean_up+0x48>)
    3390:	681a      	ldr	r2, [r3, #0]
    3392:	2320      	movs	r3, #32
    3394:	61da      	str	r2, [r3, #28]
    3396:	4b0f      	ldr	r3, [pc, #60]	; (33d4 <clean_up+0x4c>)
    3398:	681a      	ldr	r2, [r3, #0]
    339a:	4b0f      	ldr	r3, [pc, #60]	; (33d8 <clean_up+0x50>)
    339c:	601a      	str	r2, [r3, #0]
    339e:	4b0f      	ldr	r3, [pc, #60]	; (33dc <clean_up+0x54>)
    33a0:	681a      	ldr	r2, [r3, #0]
    33a2:	4b0f      	ldr	r3, [pc, #60]	; (33e0 <clean_up+0x58>)
    33a4:	601a      	str	r2, [r3, #0]
    33a6:	2359      	movs	r3, #89	; 0x59
    33a8:	781b      	ldrb	r3, [r3, #0]
    33aa:	4a0e      	ldr	r2, [pc, #56]	; (33e4 <clean_up+0x5c>)
    33ac:	009b      	lsls	r3, r3, #2
    33ae:	189b      	adds	r3, r3, r2
    33b0:	2232      	movs	r2, #50	; 0x32
    33b2:	601a      	str	r2, [r3, #0]
    33b4:	4b0c      	ldr	r3, [pc, #48]	; (33e8 <clean_up+0x60>)
    33b6:	3a31      	subs	r2, #49	; 0x31
    33b8:	601a      	str	r2, [r3, #0]
    33ba:	4b0c      	ldr	r3, [pc, #48]	; (33ec <clean_up+0x64>)
    33bc:	2200      	movs	r2, #0
    33be:	601a      	str	r2, [r3, #0]
    33c0:	4b0b      	ldr	r3, [pc, #44]	; (33f0 <clean_up+0x68>)
    33c2:	323f      	adds	r2, #63	; 0x3f
    33c4:	601a      	str	r2, [r3, #0]
    33c6:	3a32      	subs	r2, #50	; 0x32
    33c8:	601a      	str	r2, [r3, #0]
    33ca:	f7fc eefe 	blx	1c8 <cpu_int_restore>
    33ce:	bd10      	pop	{r4, pc}
    33d0:	004009b0 	.word	0x004009b0
    33d4:	00400b50 	.word	0x00400b50
    33d8:	1f00000c 	.word	0x1f00000c
    33dc:	004009fc 	.word	0x004009fc
    33e0:	1f000010 	.word	0x1f000010
    33e4:	2f000200 	.word	0x2f000200
    33e8:	2100000c 	.word	0x2100000c
    33ec:	40000018 	.word	0x40000018
    33f0:	40000010 	.word	0x40000010

000033f4 <report_debug>:
    33f4:	4b12      	ldr	r3, [pc, #72]	; (3440 <report_debug+0x4c>)
    33f6:	b510      	push	{r4, lr}
    33f8:	781b      	ldrb	r3, [r3, #0]
    33fa:	2b00      	cmp	r3, #0
    33fc:	d00e      	beq.n	341c <report_debug+0x28>
    33fe:	4b11      	ldr	r3, [pc, #68]	; (3444 <report_debug+0x50>)
    3400:	4911      	ldr	r1, [pc, #68]	; (3448 <report_debug+0x54>)
    3402:	681a      	ldr	r2, [r3, #0]
    3404:	4b11      	ldr	r3, [pc, #68]	; (344c <report_debug+0x58>)
    3406:	2002      	movs	r0, #2
    3408:	681b      	ldr	r3, [r3, #0]
    340a:	18d2      	adds	r2, r2, r3
    340c:	f7ff fc76 	bl	2cfc <io_printf>
    3410:	4b0f      	ldr	r3, [pc, #60]	; (3450 <report_debug+0x5c>)
    3412:	4910      	ldr	r1, [pc, #64]	; (3454 <report_debug+0x60>)
    3414:	681a      	ldr	r2, [r3, #0]
    3416:	2002      	movs	r0, #2
    3418:	f7ff fc70 	bl	2cfc <io_printf>
    341c:	4c0e      	ldr	r4, [pc, #56]	; (3458 <report_debug+0x64>)
    341e:	490f      	ldr	r1, [pc, #60]	; (345c <report_debug+0x68>)
    3420:	6922      	ldr	r2, [r4, #16]
    3422:	2002      	movs	r0, #2
    3424:	f7ff fc6a 	bl	2cfc <io_printf>
    3428:	6b62      	ldr	r2, [r4, #52]	; 0x34
    342a:	490d      	ldr	r1, [pc, #52]	; (3460 <report_debug+0x6c>)
    342c:	2002      	movs	r0, #2
    342e:	f7ff fc65 	bl	2cfc <io_printf>
    3432:	4b0c      	ldr	r3, [pc, #48]	; (3464 <report_debug+0x70>)
    3434:	490c      	ldr	r1, [pc, #48]	; (3468 <report_debug+0x74>)
    3436:	681a      	ldr	r2, [r3, #0]
    3438:	2002      	movs	r0, #2
    343a:	f7ff fc5f 	bl	2cfc <io_printf>
    343e:	bd10      	pop	{r4, pc}
    3440:	00400a04 	.word	0x00400a04
    3444:	e1000300 	.word	0xe1000300
    3448:	000053ca 	.word	0x000053ca
    344c:	e1000304 	.word	0xe1000304
    3450:	e1000320 	.word	0xe1000320
    3454:	000053f0 	.word	0x000053f0
    3458:	004009b4 	.word	0x004009b4
    345c:	00005416 	.word	0x00005416
    3460:	0000543c 	.word	0x0000543c
    3464:	40000040 	.word	0x40000040
    3468:	00005465 	.word	0x00005465

0000346c <report_warns>:
    346c:	b510      	push	{r4, lr}
    346e:	4c0d      	ldr	r4, [pc, #52]	; (34a4 <report_warns+0x38>)
    3470:	6863      	ldr	r3, [r4, #4]
    3472:	07db      	lsls	r3, r3, #31
    3474:	d504      	bpl.n	3480 <report_warns+0x14>
    3476:	6a22      	ldr	r2, [r4, #32]
    3478:	490b      	ldr	r1, [pc, #44]	; (34a8 <report_warns+0x3c>)
    347a:	2002      	movs	r0, #2
    347c:	f7ff fc3e 	bl	2cfc <io_printf>
    3480:	6863      	ldr	r3, [r4, #4]
    3482:	2002      	movs	r0, #2
    3484:	4203      	tst	r3, r0
    3486:	d003      	beq.n	3490 <report_warns+0x24>
    3488:	69e2      	ldr	r2, [r4, #28]
    348a:	4908      	ldr	r1, [pc, #32]	; (34ac <report_warns+0x40>)
    348c:	f7ff fc36 	bl	2cfc <io_printf>
    3490:	6863      	ldr	r3, [r4, #4]
    3492:	075b      	lsls	r3, r3, #29
    3494:	d504      	bpl.n	34a0 <report_warns+0x34>
    3496:	6a62      	ldr	r2, [r4, #36]	; 0x24
    3498:	4905      	ldr	r1, [pc, #20]	; (34b0 <report_warns+0x44>)
    349a:	2002      	movs	r0, #2
    349c:	f7ff fc2e 	bl	2cfc <io_printf>
    34a0:	bd10      	pop	{r4, pc}
    34a2:	46c0      	nop			; (mov r8, r8)
    34a4:	004009b4 	.word	0x004009b4
    34a8:	00005484 	.word	0x00005484
    34ac:	000054b0 	.word	0x000054b0
    34b0:	000054db 	.word	0x000054db

000034b4 <start>:
    34b4:	b5f8      	push	{r3, r4, r5, r6, r7, lr}
    34b6:	4d2d      	ldr	r5, [pc, #180]	; (356c <start+0xb8>)
    34b8:	0007      	movs	r7, r0
    34ba:	6029      	str	r1, [r5, #0]
    34bc:	682b      	ldr	r3, [r5, #0]
    34be:	200a      	movs	r0, #10
    34c0:	2b00      	cmp	r3, #0
    34c2:	d100      	bne.n	34c6 <start+0x12>
    34c4:	2007      	movs	r0, #7
    34c6:	f7fe ff17 	bl	22f8 <sark_cpu_state>
    34ca:	2380      	movs	r3, #128	; 0x80
    34cc:	2400      	movs	r4, #0
    34ce:	059b      	lsls	r3, r3, #22
    34d0:	601c      	str	r4, [r3, #0]
    34d2:	f7ff fd67 	bl	2fa4 <configure_dma_controller>
    34d6:	4e26      	ldr	r6, [pc, #152]	; (3570 <start+0xbc>)
    34d8:	6830      	ldr	r0, [r6, #0]
    34da:	f7ff fd77 	bl	2fcc <configure_timer1>
    34de:	6828      	ldr	r0, [r5, #0]
    34e0:	4243      	negs	r3, r0
    34e2:	4158      	adcs	r0, r3
    34e4:	f7ff fd8a 	bl	2ffc <configure_vic>
    34e8:	4b22      	ldr	r3, [pc, #136]	; (3574 <start+0xc0>)
    34ea:	2201      	movs	r2, #1
    34ec:	605c      	str	r4, [r3, #4]
    34ee:	61dc      	str	r4, [r3, #28]
    34f0:	621c      	str	r4, [r3, #32]
    34f2:	625c      	str	r4, [r3, #36]	; 0x24
    34f4:	601c      	str	r4, [r3, #0]
    34f6:	639c      	str	r4, [r3, #56]	; 0x38
    34f8:	63dc      	str	r4, [r3, #60]	; 0x3c
    34fa:	645c      	str	r4, [r3, #68]	; 0x44
    34fc:	641c      	str	r4, [r3, #64]	; 0x40
    34fe:	615a      	str	r2, [r3, #20]
    3500:	001c      	movs	r4, r3
    3502:	4297      	cmp	r7, r2
    3504:	d101      	bne.n	350a <start+0x56>
    3506:	f7ff f9b9 	bl	287c <event_wait>
    350a:	6833      	ldr	r3, [r6, #0]
    350c:	2b00      	cmp	r3, #0
    350e:	d005      	beq.n	351c <start+0x68>
    3510:	682b      	ldr	r3, [r5, #0]
    3512:	2b00      	cmp	r3, #0
    3514:	d102      	bne.n	351c <start+0x68>
    3516:	4b18      	ldr	r3, [pc, #96]	; (3578 <start+0xc4>)
    3518:	22e2      	movs	r2, #226	; 0xe2
    351a:	601a      	str	r2, [r3, #0]
    351c:	4b17      	ldr	r3, [pc, #92]	; (357c <start+0xc8>)
    351e:	2200      	movs	r2, #0
    3520:	601a      	str	r2, [r3, #0]
    3522:	4b17      	ldr	r3, [pc, #92]	; (3580 <start+0xcc>)
    3524:	3201      	adds	r2, #1
    3526:	601a      	str	r2, [r3, #0]
    3528:	f7ff fe54 	bl	31d4 <dispatch>
    352c:	f7ff ff2c 	bl	3388 <clean_up>
    3530:	f7fc ee3a 	blx	1a8 <cpu_int_enable>
    3534:	4b13      	ldr	r3, [pc, #76]	; (3584 <start+0xd0>)
    3536:	681a      	ldr	r2, [r3, #0]
    3538:	4b13      	ldr	r3, [pc, #76]	; (3588 <start+0xd4>)
    353a:	681b      	ldr	r3, [r3, #0]
    353c:	18d3      	adds	r3, r2, r3
    353e:	60a3      	str	r3, [r4, #8]
    3540:	4b12      	ldr	r3, [pc, #72]	; (358c <start+0xd8>)
    3542:	681b      	ldr	r3, [r3, #0]
    3544:	60e3      	str	r3, [r4, #12]
    3546:	4b12      	ldr	r3, [pc, #72]	; (3590 <start+0xdc>)
    3548:	681b      	ldr	r3, [r3, #0]
    354a:	61a3      	str	r3, [r4, #24]
    354c:	4b11      	ldr	r3, [pc, #68]	; (3594 <start+0xe0>)
    354e:	681a      	ldr	r2, [r3, #0]
    3550:	4b11      	ldr	r3, [pc, #68]	; (3598 <start+0xe4>)
    3552:	681b      	ldr	r3, [r3, #0]
    3554:	18d3      	adds	r3, r2, r3
    3556:	62e3      	str	r3, [r4, #44]	; 0x2c
    3558:	4b10      	ldr	r3, [pc, #64]	; (359c <start+0xe8>)
    355a:	681b      	ldr	r3, [r3, #0]
    355c:	6323      	str	r3, [r4, #48]	; 0x30
    355e:	f7ff ff49 	bl	33f4 <report_debug>
    3562:	f7ff ff83 	bl	346c <report_warns>
    3566:	6820      	ldr	r0, [r4, #0]
    3568:	bdf8      	pop	{r3, r4, r5, r6, r7, pc}
    356a:	46c0      	nop			; (mov r8, r8)
    356c:	004001a8 	.word	0x004001a8
    3570:	004001a4 	.word	0x004001a4
    3574:	004009b4 	.word	0x004009b4
    3578:	21000008 	.word	0x21000008
    357c:	00400b54 	.word	0x00400b54
    3580:	004004d0 	.word	0x004004d0
    3584:	e1000300 	.word	0xe1000300
    3588:	e1000304 	.word	0xe1000304
    358c:	e1000320 	.word	0xe1000320
    3590:	40000040 	.word	0x40000040
    3594:	e1000318 	.word	0xe1000318
    3598:	e100031c 	.word	0xe100031c
    359c:	e100032c 	.word	0xe100032c

000035a0 <spin1_start>:
    35a0:	b510      	push	{r4, lr}
    35a2:	2100      	movs	r1, #0
    35a4:	f7ff ff86 	bl	34b4 <start>
    35a8:	bd10      	pop	{r4, pc}
	...

000035ac <spin1_dma_transfer>:
    35ac:	b5f0      	push	{r4, r5, r6, r7, lr}
    35ae:	b085      	sub	sp, #20
    35b0:	9100      	str	r1, [sp, #0]
    35b2:	9201      	str	r2, [sp, #4]
    35b4:	001d      	movs	r5, r3
    35b6:	9003      	str	r0, [sp, #12]
    35b8:	f7fc edfe 	blx	1b8 <cpu_int_disable>
    35bc:	491f      	ldr	r1, [pc, #124]	; (363c <spin1_dma_transfer+0x90>)
    35be:	230f      	movs	r3, #15
    35c0:	684a      	ldr	r2, [r1, #4]
    35c2:	680f      	ldr	r7, [r1, #0]
    35c4:	1c54      	adds	r4, r2, #1
    35c6:	401c      	ands	r4, r3
    35c8:	0026      	movs	r6, r4
    35ca:	4b1d      	ldr	r3, [pc, #116]	; (3640 <spin1_dma_transfer+0x94>)
    35cc:	9002      	str	r0, [sp, #8]
    35ce:	42bc      	cmp	r4, r7
    35d0:	d025      	beq.n	361e <spin1_dma_transfer+0x72>
    35d2:	695c      	ldr	r4, [r3, #20]
    35d4:	04ed      	lsls	r5, r5, #19
    35d6:	1c60      	adds	r0, r4, #1
    35d8:	6158      	str	r0, [r3, #20]
    35da:	980a      	ldr	r0, [sp, #40]	; 0x28
    35dc:	23c0      	movs	r3, #192	; 0xc0
    35de:	045b      	lsls	r3, r3, #17
    35e0:	4303      	orrs	r3, r0
    35e2:	2014      	movs	r0, #20
    35e4:	431d      	orrs	r5, r3
    35e6:	0003      	movs	r3, r0
    35e8:	4353      	muls	r3, r2
    35ea:	18c9      	adds	r1, r1, r3
    35ec:	9b03      	ldr	r3, [sp, #12]
    35ee:	60cb      	str	r3, [r1, #12]
    35f0:	9b00      	ldr	r3, [sp, #0]
    35f2:	610b      	str	r3, [r1, #16]
    35f4:	9b01      	ldr	r3, [sp, #4]
    35f6:	614b      	str	r3, [r1, #20]
    35f8:	4b12      	ldr	r3, [pc, #72]	; (3644 <spin1_dma_transfer+0x98>)
    35fa:	608c      	str	r4, [r1, #8]
    35fc:	618d      	str	r5, [r1, #24]
    35fe:	681b      	ldr	r3, [r3, #0]
    3600:	075b      	lsls	r3, r3, #29
    3602:	d409      	bmi.n	3618 <spin1_dma_transfer+0x6c>
    3604:	42ba      	cmp	r2, r7
    3606:	d107      	bne.n	3618 <spin1_dma_transfer+0x6c>
    3608:	4b0f      	ldr	r3, [pc, #60]	; (3648 <spin1_dma_transfer+0x9c>)
    360a:	9a00      	ldr	r2, [sp, #0]
    360c:	601a      	str	r2, [r3, #0]
    360e:	4b0f      	ldr	r3, [pc, #60]	; (364c <spin1_dma_transfer+0xa0>)
    3610:	9a01      	ldr	r2, [sp, #4]
    3612:	601a      	str	r2, [r3, #0]
    3614:	4b0e      	ldr	r3, [pc, #56]	; (3650 <spin1_dma_transfer+0xa4>)
    3616:	601d      	str	r5, [r3, #0]
    3618:	4b08      	ldr	r3, [pc, #32]	; (363c <spin1_dma_transfer+0x90>)
    361a:	605e      	str	r6, [r3, #4]
    361c:	e007      	b.n	362e <spin1_dma_transfer+0x82>
    361e:	6859      	ldr	r1, [r3, #4]
    3620:	2202      	movs	r2, #2
    3622:	430a      	orrs	r2, r1
    3624:	605a      	str	r2, [r3, #4]
    3626:	69da      	ldr	r2, [r3, #28]
    3628:	2400      	movs	r4, #0
    362a:	3201      	adds	r2, #1
    362c:	61da      	str	r2, [r3, #28]
    362e:	9802      	ldr	r0, [sp, #8]
    3630:	f7fc edca 	blx	1c8 <cpu_int_restore>
    3634:	0020      	movs	r0, r4
    3636:	b005      	add	sp, #20
    3638:	bdf0      	pop	{r4, r5, r6, r7, pc}
    363a:	46c0      	nop			; (mov r8, r8)
    363c:	00400a08 	.word	0x00400a08
    3640:	004009b4 	.word	0x004009b4
    3644:	40000014 	.word	0x40000014
    3648:	40000004 	.word	0x40000004
    364c:	40000008 	.word	0x40000008
    3650:	4000000c 	.word	0x4000000c

00003654 <spin1_get_core_id>:
    3654:	4b01      	ldr	r3, [pc, #4]	; (365c <spin1_get_core_id+0x8>)
    3656:	6818      	ldr	r0, [r3, #0]
    3658:	4770      	bx	lr
    365a:	46c0      	nop			; (mov r8, r8)
    365c:	004008dc 	.word	0x004008dc

00003660 <spin1_get_chip_id>:
    3660:	4b01      	ldr	r3, [pc, #4]	; (3668 <spin1_get_chip_id+0x8>)
    3662:	8818      	ldrh	r0, [r3, #0]
    3664:	4770      	bx	lr
    3666:	46c0      	nop			; (mov r8, r8)
    3668:	e5007f00 	.word	0xe5007f00

0000366c <schedule_sysmode>:
    366c:	b5f0      	push	{r4, r5, r6, r7, lr}
    366e:	b085      	sub	sp, #20
    3670:	9003      	str	r0, [sp, #12]
    3672:	9b03      	ldr	r3, [sp, #12]
    3674:	4c1d      	ldr	r4, [pc, #116]	; (36ec <schedule_sysmode+0x80>)
    3676:	00dd      	lsls	r5, r3, #3
    3678:	1963      	adds	r3, r4, r5
    367a:	685b      	ldr	r3, [r3, #4]
    367c:	0008      	movs	r0, r1
    367e:	2b00      	cmp	r3, #0
    3680:	dc03      	bgt.n	368a <schedule_sysmode+0x1e>
    3682:	592b      	ldr	r3, [r5, r4]
    3684:	0011      	movs	r1, r2
    3686:	4798      	blx	r3
    3688:	e02d      	b.n	36e6 <schedule_sysmode+0x7a>
    368a:	3b01      	subs	r3, #1
    368c:	21c8      	movs	r1, #200	; 0xc8
    368e:	001f      	movs	r7, r3
    3690:	434f      	muls	r7, r1
    3692:	4e17      	ldr	r6, [pc, #92]	; (36f0 <schedule_sysmode+0x84>)
    3694:	9701      	str	r7, [sp, #4]
    3696:	19f7      	adds	r7, r6, r7
    3698:	687b      	ldr	r3, [r7, #4]
    369a:	9302      	str	r3, [sp, #8]
    369c:	39b9      	subs	r1, #185	; 0xb9
    369e:	3301      	adds	r3, #1
    36a0:	400b      	ands	r3, r1
    36a2:	469c      	mov	ip, r3
    36a4:	9b01      	ldr	r3, [sp, #4]
    36a6:	599b      	ldr	r3, [r3, r6]
    36a8:	459c      	cmp	ip, r3
    36aa:	d014      	beq.n	36d6 <schedule_sysmode+0x6a>
    36ac:	9b02      	ldr	r3, [sp, #8]
    36ae:	3903      	subs	r1, #3
    36b0:	434b      	muls	r3, r1
    36b2:	0019      	movs	r1, r3
    36b4:	9b01      	ldr	r3, [sp, #4]
    36b6:	18cb      	adds	r3, r1, r3
    36b8:	18f6      	adds	r6, r6, r3
    36ba:	592b      	ldr	r3, [r5, r4]
    36bc:	60b3      	str	r3, [r6, #8]
    36be:	4663      	mov	r3, ip
    36c0:	607b      	str	r3, [r7, #4]
    36c2:	9b03      	ldr	r3, [sp, #12]
    36c4:	60f0      	str	r0, [r6, #12]
    36c6:	6132      	str	r2, [r6, #16]
    36c8:	2b02      	cmp	r3, #2
    36ca:	d10c      	bne.n	36e6 <schedule_sysmode+0x7a>
    36cc:	4a09      	ldr	r2, [pc, #36]	; (36f4 <schedule_sysmode+0x88>)
    36ce:	6bd3      	ldr	r3, [r2, #60]	; 0x3c
    36d0:	3301      	adds	r3, #1
    36d2:	63d3      	str	r3, [r2, #60]	; 0x3c
    36d4:	e007      	b.n	36e6 <schedule_sysmode+0x7a>
    36d6:	4b07      	ldr	r3, [pc, #28]	; (36f4 <schedule_sysmode+0x88>)
    36d8:	2201      	movs	r2, #1
    36da:	6859      	ldr	r1, [r3, #4]
    36dc:	430a      	orrs	r2, r1
    36de:	605a      	str	r2, [r3, #4]
    36e0:	6a1a      	ldr	r2, [r3, #32]
    36e2:	3201      	adds	r2, #1
    36e4:	621a      	str	r2, [r3, #32]
    36e6:	b005      	add	sp, #20
    36e8:	bdf0      	pop	{r4, r5, r6, r7, pc}
    36ea:	46c0      	nop			; (mov r8, r8)
    36ec:	00400b5c 	.word	0x00400b5c
    36f0:	004001b0 	.word	0x004001b0
    36f4:	004009b4 	.word	0x004009b4

000036f8 <spin1_trigger_user_event>:
    36f8:	4b08      	ldr	r3, [pc, #32]	; (371c <spin1_trigger_user_event+0x24>)
    36fa:	b510      	push	{r4, lr}
    36fc:	781a      	ldrb	r2, [r3, #0]
    36fe:	0004      	movs	r4, r0
    3700:	2000      	movs	r0, #0
    3702:	4282      	cmp	r2, r0
    3704:	d108      	bne.n	3718 <spin1_trigger_user_event+0x20>
    3706:	4a06      	ldr	r2, [pc, #24]	; (3720 <spin1_trigger_user_event+0x28>)
    3708:	3001      	adds	r0, #1
    370a:	6014      	str	r4, [r2, #0]
    370c:	4a05      	ldr	r2, [pc, #20]	; (3724 <spin1_trigger_user_event+0x2c>)
    370e:	7018      	strb	r0, [r3, #0]
    3710:	4b05      	ldr	r3, [pc, #20]	; (3728 <spin1_trigger_user_event+0x30>)
    3712:	6011      	str	r1, [r2, #0]
    3714:	2202      	movs	r2, #2
    3716:	601a      	str	r2, [r3, #0]
    3718:	bd10      	pop	{r4, pc}
    371a:	46c0      	nop			; (mov r8, r8)
    371c:	004001ac 	.word	0x004001ac
    3720:	00400b58 	.word	0x00400b58
    3724:	00400a00 	.word	0x00400a00
    3728:	1f000018 	.word	0x1f000018

0000372c <sark_pre_main>:
    372c:	b510      	push	{r4, lr}
    372e:	f7fe fe59 	bl	23e4 <sark_call_cpp_constructors>
    3732:	2006      	movs	r0, #6
    3734:	f7fe fde0 	bl	22f8 <sark_cpu_state>
    3738:	2201      	movs	r2, #1
    373a:	235b      	movs	r3, #91	; 0x5b
    373c:	701a      	strb	r2, [r3, #0]
    373e:	f7fe fde3 	bl	2308 <sark_app_lead>
    3742:	4b04      	ldr	r3, [pc, #16]	; (3754 <sark_pre_main+0x28>)
    3744:	4a04      	ldr	r2, [pc, #16]	; (3758 <sark_pre_main+0x2c>)
    3746:	681b      	ldr	r3, [r3, #0]
    3748:	1a1b      	subs	r3, r3, r0
    374a:	4258      	negs	r0, r3
    374c:	4143      	adcs	r3, r0
    374e:	7013      	strb	r3, [r2, #0]
    3750:	bd10      	pop	{r4, pc}
    3752:	46c0      	nop			; (mov r8, r8)
    3754:	004008dc 	.word	0x004008dc
    3758:	00400a04 	.word	0x00400a04

0000375c <sark_post_main>:
    375c:	b510      	push	{r4, lr}
    375e:	200b      	movs	r0, #11
    3760:	f7fe fdca 	bl	22f8 <sark_cpu_state>
    3764:	bd10      	pop	{r4, pc}
	...

00003768 <cc_rx_ready_isr>:
    3768:	e24ee004 	sub	lr, lr, #4
    376c:	e92d500f 	push	{r0, r1, r2, r3, ip, lr}
    3770:	e3a03202 	mov	r3, #536870912	; 0x20000000
    3774:	e593200c 	ldr	r2, [r3, #12]
    3778:	e59f0058 	ldr	r0, [pc, #88]	; 37d8 <cc_rx_ready_isr+0x70>
    377c:	e2122802 	ands	r2, r2, #131072	; 0x20000
    3780:	0a000006 	beq	37a0 <cc_rx_ready_isr+0x38>
    3784:	e5932010 	ldr	r2, [r3, #16]
    3788:	e5931014 	ldr	r1, [r3, #20]
    378c:	e5903028 	ldr	r3, [r0, #40]	; 0x28
    3790:	e3530000 	cmp	r3, #0
    3794:	13a00005 	movne	r0, #5
    3798:	1a000005 	bne	37b4 <cc_rx_ready_isr+0x4c>
    379c:	ea000006 	b	37bc <cc_rx_ready_isr+0x54>
    37a0:	e5931014 	ldr	r1, [r3, #20]
    37a4:	e5903000 	ldr	r3, [r0]
    37a8:	e3530000 	cmp	r3, #0
    37ac:	0a000002 	beq	37bc <cc_rx_ready_isr+0x54>
    37b0:	e1a00002 	mov	r0, r2
    37b4:	ebfff2d5 	bl	310 <schedule>
    37b8:	ea000003 	b	37cc <cc_rx_ready_isr+0x64>
    37bc:	e59f2018 	ldr	r2, [pc, #24]	; 37dc <cc_rx_ready_isr+0x74>
    37c0:	e5923010 	ldr	r3, [r2, #16]
    37c4:	e2833001 	add	r3, r3, #1
    37c8:	e5823010 	str	r3, [r2, #16]
    37cc:	e3a0341f 	mov	r3, #520093696	; 0x1f000000
    37d0:	e5833030 	str	r3, [r3, #48]	; 0x30
    37d4:	e8fd900f 	ldm	sp!, {r0, r1, r2, r3, ip, pc}^
    37d8:	00400b5c 	.word	0x00400b5c
    37dc:	004009b4 	.word	0x004009b4

000037e0 <cc_rx_ready_fiqsr>:
    37e0:	e24ee004 	sub	lr, lr, #4
    37e4:	e92d500f 	push	{r0, r1, r2, r3, ip, lr}
    37e8:	e3a03202 	mov	r3, #536870912	; 0x20000000
    37ec:	e593100c 	ldr	r1, [r3, #12]
    37f0:	e59f201c 	ldr	r2, [pc, #28]	; 3814 <cc_rx_ready_fiqsr+0x34>
    37f4:	e2111802 	ands	r1, r1, #131072	; 0x20000
    37f8:	15931010 	ldrne	r1, [r3, #16]
    37fc:	05930014 	ldreq	r0, [r3, #20]
    3800:	15930014 	ldrne	r0, [r3, #20]
    3804:	05923000 	ldreq	r3, [r2]
    3808:	15923028 	ldrne	r3, [r2, #40]	; 0x28
    380c:	e12fff33 	blx	r3
    3810:	e8fd900f 	ldm	sp!, {r0, r1, r2, r3, ip, pc}^
    3814:	00400b5c 	.word	0x00400b5c

00003818 <cc_fr_ready_isr>:
    3818:	e24ee004 	sub	lr, lr, #4
    381c:	e92d500f 	push	{r0, r1, r2, r3, ip, lr}
    3820:	e3a03202 	mov	r3, #536870912	; 0x20000000
    3824:	e593200c 	ldr	r2, [r3, #12]
    3828:	e59f0054 	ldr	r0, [pc, #84]	; 3884 <cc_fr_ready_isr+0x6c>
    382c:	e2122802 	ands	r2, r2, #131072	; 0x20000
    3830:	0a00000a 	beq	3860 <cc_fr_ready_isr+0x48>
    3834:	e5932010 	ldr	r2, [r3, #16]
    3838:	e5931014 	ldr	r1, [r3, #20]
    383c:	e5903038 	ldr	r3, [r0, #56]	; 0x38
    3840:	e3530000 	cmp	r3, #0
    3844:	13a00007 	movne	r0, #7
    3848:	1a000009 	bne	3874 <cc_fr_ready_isr+0x5c>
    384c:	e59f2034 	ldr	r2, [pc, #52]	; 3888 <cc_fr_ready_isr+0x70>
    3850:	e5923034 	ldr	r3, [r2, #52]	; 0x34
    3854:	e2833001 	add	r3, r3, #1
    3858:	e5823034 	str	r3, [r2, #52]	; 0x34
    385c:	ea000005 	b	3878 <cc_fr_ready_isr+0x60>
    3860:	e5931014 	ldr	r1, [r3, #20]
    3864:	e5903030 	ldr	r3, [r0, #48]	; 0x30
    3868:	e3530000 	cmp	r3, #0
    386c:	0afffff6 	beq	384c <cc_fr_ready_isr+0x34>
    3870:	e3a00006 	mov	r0, #6
    3874:	ebfff2a5 	bl	310 <schedule>
    3878:	e3a0341f 	mov	r3, #520093696	; 0x1f000000
    387c:	e5833030 	str	r3, [r3, #48]	; 0x30
    3880:	e8fd900f 	ldm	sp!, {r0, r1, r2, r3, ip, pc}^
    3884:	00400b5c 	.word	0x00400b5c
    3888:	004009b4 	.word	0x004009b4

0000388c <cc_fr_ready_fiqsr>:
    388c:	e24ee004 	sub	lr, lr, #4
    3890:	e92d500f 	push	{r0, r1, r2, r3, ip, lr}
    3894:	e3a03202 	mov	r3, #536870912	; 0x20000000
    3898:	e593100c 	ldr	r1, [r3, #12]
    389c:	e59f201c 	ldr	r2, [pc, #28]	; 38c0 <cc_fr_ready_fiqsr+0x34>
    38a0:	e2111802 	ands	r1, r1, #131072	; 0x20000
    38a4:	15931010 	ldrne	r1, [r3, #16]
    38a8:	05930014 	ldreq	r0, [r3, #20]
    38ac:	15930014 	ldrne	r0, [r3, #20]
    38b0:	05923030 	ldreq	r3, [r2, #48]	; 0x30
    38b4:	15923038 	ldrne	r3, [r2, #56]	; 0x38
    38b8:	e12fff33 	blx	r3
    38bc:	e8fd900f 	ldm	sp!, {r0, r1, r2, r3, ip, pc}^
    38c0:	00400b5c 	.word	0x00400b5c

000038c4 <cc_tx_empty_isr>:
    38c4:	e24ee004 	sub	lr, lr, #4
    38c8:	e92d501f 	push	{r0, r1, r2, r3, r4, ip, lr}
    38cc:	e59f1074 	ldr	r1, [pc, #116]	; 3948 <cc_tx_empty_isr+0x84>
    38d0:	e3a03202 	mov	r3, #536870912	; 0x20000000
    38d4:	e3a02000 	mov	r2, #0
    38d8:	e3a0c00c 	mov	ip, #12
    38dc:	e5832000 	str	r2, [r3]
    38e0:	e5912000 	ldr	r2, [r1]
    38e4:	e5910004 	ldr	r0, [r1, #4]
    38e8:	e1520000 	cmp	r2, r0
    38ec:	0a00000e 	beq	392c <cc_tx_empty_isr+0x68>
    38f0:	e5930000 	ldr	r0, [r3]
    38f4:	e3100101 	tst	r0, #1073741824	; 0x40000000
    38f8:	1a00000e 	bne	3938 <cc_tx_empty_isr+0x74>
    38fc:	e020129c 	mla	r0, ip, r2, r1
    3900:	e2822001 	add	r2, r2, #1
    3904:	e590e008 	ldr	lr, [r0, #8]
    3908:	e590400c 	ldr	r4, [r0, #12]
    390c:	e5900010 	ldr	r0, [r0, #16]
    3910:	e202200f 	and	r2, r2, #15
    3914:	e3100802 	tst	r0, #131072	; 0x20000
    3918:	e5812000 	str	r2, [r1]
    391c:	e5830000 	str	r0, [r3]
    3920:	15834004 	strne	r4, [r3, #4]
    3924:	e583e008 	str	lr, [r3, #8]
    3928:	eaffffec 	b	38e0 <cc_tx_empty_isr+0x1c>
    392c:	e3a02b02 	mov	r2, #2048	; 0x800
    3930:	e3a0341f 	mov	r3, #520093696	; 0x1f000000
    3934:	e5832014 	str	r2, [r3, #20]
    3938:	e3a02001 	mov	r2, #1
    393c:	e3a0341f 	mov	r3, #520093696	; 0x1f000000
    3940:	e5832030 	str	r2, [r3, #48]	; 0x30
    3944:	e8fd901f 	ldm	sp!, {r0, r1, r2, r3, r4, ip, pc}^
    3948:	00400b9c 	.word	0x00400b9c

0000394c <dma_done_isr>:
    394c:	e24ee004 	sub	lr, lr, #4
    3950:	e92d503f 	push	{r0, r1, r2, r3, r4, r5, ip, lr}
    3954:	e59fe078 	ldr	lr, [pc, #120]	; 39d4 <dma_done_isr+0x88>
    3958:	e3a03008 	mov	r3, #8
    395c:	e3a04101 	mov	r4, #1073741824	; 0x40000000
    3960:	e5843010 	str	r3, [r4, #16]
    3964:	e59e0000 	ldr	r0, [lr]
    3968:	e3a0c014 	mov	ip, #20
    396c:	e023e09c 	mla	r3, ip, r0, lr
    3970:	e2800001 	add	r0, r0, #1
    3974:	e5931008 	ldr	r1, [r3, #8]
    3978:	e593200c 	ldr	r2, [r3, #12]
    397c:	e200300f 	and	r3, r0, #15
    3980:	e59e0004 	ldr	r0, [lr, #4]
    3984:	e58e3000 	str	r3, [lr]
    3988:	e1530000 	cmp	r3, r0
    398c:	0a000006 	beq	39ac <dma_done_isr+0x60>
    3990:	e023e39c 	mla	r3, ip, r3, lr
    3994:	e593c014 	ldr	ip, [r3, #20]
    3998:	e5930018 	ldr	r0, [r3, #24]
    399c:	e5933010 	ldr	r3, [r3, #16]
    39a0:	e5843004 	str	r3, [r4, #4]
    39a4:	e584c008 	str	ip, [r4, #8]
    39a8:	e584000c 	str	r0, [r4, #12]
    39ac:	e59f3024 	ldr	r3, [pc, #36]	; 39d8 <dma_done_isr+0x8c>
    39b0:	e5933008 	ldr	r3, [r3, #8]
    39b4:	e3530000 	cmp	r3, #0
    39b8:	0a000001 	beq	39c4 <dma_done_isr+0x78>
    39bc:	e3a00001 	mov	r0, #1
    39c0:	ebfff252 	bl	310 <schedule>
    39c4:	e3a02001 	mov	r2, #1
    39c8:	e3a0341f 	mov	r3, #520093696	; 0x1f000000
    39cc:	e5832030 	str	r2, [r3, #48]	; 0x30
    39d0:	e8fd903f 	ldm	sp!, {r0, r1, r2, r3, r4, r5, ip, pc}^
    39d4:	00400a08 	.word	0x00400a08
    39d8:	00400b5c 	.word	0x00400b5c

000039dc <dma_done_fiqsr>:
    39dc:	e24ee004 	sub	lr, lr, #4
    39e0:	e92d503f 	push	{r0, r1, r2, r3, r4, r5, ip, lr}
    39e4:	e59fe060 	ldr	lr, [pc, #96]	; 3a4c <dma_done_fiqsr+0x70>
    39e8:	e3a03008 	mov	r3, #8
    39ec:	e3a04101 	mov	r4, #1073741824	; 0x40000000
    39f0:	e5843010 	str	r3, [r4, #16]
    39f4:	e59e2000 	ldr	r2, [lr]
    39f8:	e3a0c014 	mov	ip, #20
    39fc:	e023e29c 	mla	r3, ip, r2, lr
    3a00:	e2822001 	add	r2, r2, #1
    3a04:	e5930008 	ldr	r0, [r3, #8]
    3a08:	e593100c 	ldr	r1, [r3, #12]
    3a0c:	e202300f 	and	r3, r2, #15
    3a10:	e59e2004 	ldr	r2, [lr, #4]
    3a14:	e58e3000 	str	r3, [lr]
    3a18:	e1530002 	cmp	r3, r2
    3a1c:	0a000006 	beq	3a3c <dma_done_fiqsr+0x60>
    3a20:	e023e39c 	mla	r3, ip, r3, lr
    3a24:	e593c014 	ldr	ip, [r3, #20]
    3a28:	e5932018 	ldr	r2, [r3, #24]
    3a2c:	e5933010 	ldr	r3, [r3, #16]
    3a30:	e5843004 	str	r3, [r4, #4]
    3a34:	e584c008 	str	ip, [r4, #8]
    3a38:	e584200c 	str	r2, [r4, #12]
    3a3c:	e59f300c 	ldr	r3, [pc, #12]	; 3a50 <dma_done_fiqsr+0x74>
    3a40:	e5933008 	ldr	r3, [r3, #8]
    3a44:	e12fff33 	blx	r3
    3a48:	e8fd903f 	ldm	sp!, {r0, r1, r2, r3, r4, r5, ip, pc}^
    3a4c:	00400a08 	.word	0x00400a08
    3a50:	00400b5c 	.word	0x00400b5c

00003a54 <timer1_isr>:
    3a54:	e24ee004 	sub	lr, lr, #4
    3a58:	e92d500f 	push	{r0, r1, r2, r3, ip, lr}
    3a5c:	e3a02001 	mov	r2, #1
    3a60:	e3a03421 	mov	r3, #553648128	; 0x21000000
    3a64:	e583200c 	str	r2, [r3, #12]
    3a68:	e59f3060 	ldr	r3, [pc, #96]	; 3ad0 <timer1_isr+0x7c>
    3a6c:	e5931000 	ldr	r1, [r3]
    3a70:	e0811002 	add	r1, r1, r2
    3a74:	e5831000 	str	r1, [r3]
    3a78:	e59f3054 	ldr	r3, [pc, #84]	; 3ad4 <timer1_isr+0x80>
    3a7c:	e5933010 	ldr	r3, [r3, #16]
    3a80:	e3530000 	cmp	r3, #0
    3a84:	0a00000d 	beq	3ac0 <timer1_isr+0x6c>
    3a88:	e59f3048 	ldr	r3, [pc, #72]	; 3ad8 <timer1_isr+0x84>
    3a8c:	e5932038 	ldr	r2, [r3, #56]	; 0x38
    3a90:	e3520000 	cmp	r2, #0
    3a94:	0a000006 	beq	3ab4 <timer1_isr+0x60>
    3a98:	e5932044 	ldr	r2, [r3, #68]	; 0x44
    3a9c:	e5930040 	ldr	r0, [r3, #64]	; 0x40
    3aa0:	e2822001 	add	r2, r2, #1
    3aa4:	e5832044 	str	r2, [r3, #68]	; 0x44
    3aa8:	e593203c 	ldr	r2, [r3, #60]	; 0x3c
    3aac:	e1520000 	cmp	r2, r0
    3ab0:	85832040 	strhi	r2, [r3, #64]	; 0x40
    3ab4:	e3a02000 	mov	r2, #0
    3ab8:	e3a00002 	mov	r0, #2
    3abc:	ebfff213 	bl	310 <schedule>
    3ac0:	e3a02001 	mov	r2, #1
    3ac4:	e3a0341f 	mov	r3, #520093696	; 0x1f000000
    3ac8:	e5832030 	str	r2, [r3, #48]	; 0x30
    3acc:	e8fd900f 	ldm	sp!, {r0, r1, r2, r3, ip, pc}^
    3ad0:	00400b54 	.word	0x00400b54
    3ad4:	00400b5c 	.word	0x00400b5c
    3ad8:	004009b4 	.word	0x004009b4

00003adc <timer1_fiqsr>:
    3adc:	e24ee004 	sub	lr, lr, #4
    3ae0:	e92d500f 	push	{r0, r1, r2, r3, ip, lr}
    3ae4:	e3a02001 	mov	r2, #1
    3ae8:	e3a03421 	mov	r3, #553648128	; 0x21000000
    3aec:	e583200c 	str	r2, [r3, #12]
    3af0:	e59f301c 	ldr	r3, [pc, #28]	; 3b14 <timer1_fiqsr+0x38>
    3af4:	e3a01000 	mov	r1, #0
    3af8:	e5930000 	ldr	r0, [r3]
    3afc:	e0800002 	add	r0, r0, r2
    3b00:	e5830000 	str	r0, [r3]
    3b04:	e59f300c 	ldr	r3, [pc, #12]	; 3b18 <timer1_fiqsr+0x3c>
    3b08:	e5933010 	ldr	r3, [r3, #16]
    3b0c:	e12fff33 	blx	r3
    3b10:	e8fd900f 	ldm	sp!, {r0, r1, r2, r3, ip, pc}^
    3b14:	00400b54 	.word	0x00400b54
    3b18:	00400b5c 	.word	0x00400b5c

00003b1c <soft_int_isr>:
    3b1c:	e24ee004 	sub	lr, lr, #4
    3b20:	e92d500f 	push	{r0, r1, r2, r3, ip, lr}
    3b24:	e3a0341f 	mov	r3, #520093696	; 0x1f000000
    3b28:	e3a02002 	mov	r2, #2
    3b2c:	e583201c 	str	r2, [r3, #28]
    3b30:	e59f303c 	ldr	r3, [pc, #60]	; 3b74 <soft_int_isr+0x58>
    3b34:	e5933020 	ldr	r3, [r3, #32]
    3b38:	e3530000 	cmp	r3, #0
    3b3c:	0a000005 	beq	3b58 <soft_int_isr+0x3c>
    3b40:	e59f3030 	ldr	r3, [pc, #48]	; 3b78 <soft_int_isr+0x5c>
    3b44:	e3a00004 	mov	r0, #4
    3b48:	e5932000 	ldr	r2, [r3]
    3b4c:	e59f3028 	ldr	r3, [pc, #40]	; 3b7c <soft_int_isr+0x60>
    3b50:	e5931000 	ldr	r1, [r3]
    3b54:	ebfff1ed 	bl	310 <schedule>
    3b58:	e59f3020 	ldr	r3, [pc, #32]	; 3b80 <soft_int_isr+0x64>
    3b5c:	e3a02000 	mov	r2, #0
    3b60:	e5c32000 	strb	r2, [r3]
    3b64:	e3a02001 	mov	r2, #1
    3b68:	e3a0341f 	mov	r3, #520093696	; 0x1f000000
    3b6c:	e5832030 	str	r2, [r3, #48]	; 0x30
    3b70:	e8fd900f 	ldm	sp!, {r0, r1, r2, r3, ip, pc}^
    3b74:	00400b5c 	.word	0x00400b5c
    3b78:	00400a00 	.word	0x00400a00
    3b7c:	00400b58 	.word	0x00400b58
    3b80:	004001ac 	.word	0x004001ac

00003b84 <soft_int_fiqsr>:
    3b84:	e24ee004 	sub	lr, lr, #4
    3b88:	e92d500f 	push	{r0, r1, r2, r3, ip, lr}
    3b8c:	e3a02002 	mov	r2, #2
    3b90:	e3a0341f 	mov	r3, #520093696	; 0x1f000000
    3b94:	e583201c 	str	r2, [r3, #28]
    3b98:	e59f2024 	ldr	r2, [pc, #36]	; 3bc4 <soft_int_fiqsr+0x40>
    3b9c:	e59f3024 	ldr	r3, [pc, #36]	; 3bc8 <soft_int_fiqsr+0x44>
    3ba0:	e5921000 	ldr	r1, [r2]
    3ba4:	e59f2020 	ldr	r2, [pc, #32]	; 3bcc <soft_int_fiqsr+0x48>
    3ba8:	e5933020 	ldr	r3, [r3, #32]
    3bac:	e5920000 	ldr	r0, [r2]
    3bb0:	e12fff33 	blx	r3
    3bb4:	e59f3014 	ldr	r3, [pc, #20]	; 3bd0 <soft_int_fiqsr+0x4c>
    3bb8:	e3a02000 	mov	r2, #0
    3bbc:	e5c32000 	strb	r2, [r3]
    3bc0:	e8fd900f 	ldm	sp!, {r0, r1, r2, r3, ip, pc}^
    3bc4:	00400a00 	.word	0x00400a00
    3bc8:	00400b5c 	.word	0x00400b5c
    3bcc:	00400b58 	.word	0x00400b58
    3bd0:	004001ac 	.word	0x004001ac

00003bd4 <__udivsi3>:
    3bd4:	e2512001 	subs	r2, r1, #1
    3bd8:	012fff1e 	bxeq	lr
    3bdc:	3a000036 	bcc	3cbc <__udivsi3+0xe8>
    3be0:	e1500001 	cmp	r0, r1
    3be4:	9a000022 	bls	3c74 <__udivsi3+0xa0>
    3be8:	e1110002 	tst	r1, r2
